 mediasdkvc10

 Timestamp is 5cb3eb3e (Mon Apr 15 10:23:58 2019)

 Preferred load address is 10000000

 Start         Length     Name                   Class
 0001:00000000 00000060H .rodata                 CODE
 0002:00000000 000b2472H .text                   CODE
 0002:000b2480 00004a56H .text$x                 CODE
 0002:000b6ee0 00000309H .text$yc                CODE
 0002:000b71f0 0000028cH .text$yd                CODE
 0003:00000000 000005f0H .idata$5                DATA
 0003:000005f0 00000004H .CRT$XCA                DATA
 0003:000005f4 0000002cH .CRT$XCU                DATA
 0003:00000620 00000004H .CRT$XCZ                DATA
 0003:00000624 00000004H .CRT$XIA                DATA
 0003:00000628 00000004H .CRT$XIAA               DATA
 0003:0000062c 00000004H .CRT$XIC                DATA
 0003:00000630 00000004H .CRT$XIZ                DATA
 0003:00000640 0001f051H .rdata                  DATA
 0003:0001f694 0000006bH .rdata$debug            DATA
 0003:0001f700 00001664H .rdata$r                DATA
 0003:00020d64 00000004H .rtc$IAA                DATA
 0003:00020d68 00000040H .rtc$IMZ                DATA
 0003:00020da8 00000004H .rtc$IZZ                DATA
 0003:00020dac 00000004H .rtc$TAA                DATA
 0003:00020db0 00000040H .rtc$TMZ                DATA
 0003:00020df0 00000004H .rtc$TZZ                DATA
 0003:00020df8 00004664H .xdata$x                DATA
 0003:0002545c 00000000H ATL$__a                 DATA
 0003:0002545c 00000000H ATL$__z                 DATA
 0003:0002545c 000001a4H .idata$2                DATA
 0003:00025600 00000014H .idata$3                DATA
 0003:00025614 000005f0H .idata$4                DATA
 0003:00025c04 00002190H .idata$6                DATA
 0003:00027da0 00004c7eH .edata                  DATA
 0004:00000000 00003830H .data                   DATA
 0004:00003830 0000ac00H .bss                    DATA

  Address         Publics by Value              Rva+Base       Lib:Object

 0000:00000000       ___safe_se_handler_count   00000000     <absolute>
 0000:00000000       __except_list              00000000     <absolute>
 0000:00000000       ___safe_se_handler_table   00000000     <absolute>
 0000:00009876       __ldused                   00009876     <absolute>
 0000:00009876       __fltused                  00009876     <absolute>
 0000:00000000       ___ImageBase               10000000     <linker-defined>
 0002:00000000       _yv12_to_yuyv_xmm          10002000     colorspace_yuyv_mmx.obj
 0002:00000100       _yv12_to_uyvy_xmm          10002100     colorspace_yuyv_mmx.obj
 0002:00000200       _yv12_to_rgb32_mmx         10002200     yv12_to_rgb32_mmx.obj
 0002:00000580       _bgr_to_yv12_mmx           10002580     colorspace_rgb_mmx.obj
 0002:00000750       _bgra_to_yv12_mmx          10002750     colorspace_rgb_mmx.obj
 0002:00000920       _yv12_to_bgr_mmx           10002920     colorspace_rgb_mmx.obj
 0002:00000c50       _yv12_to_bgra_mmx          10002c50     colorspace_rgb_mmx.obj
 0002:00000f10       ??0CApp@@QAE@XZ            10002f10 f i cloopbuffer.obj
 0002:00001060       ??1CApp@@UAE@XZ            10003060 f i cloopbuffer.obj
 0002:000010c0       ?GetPriority@CApp@@QAEEXZ  100030c0 f i cloopbuffer.obj
 0002:000010f0       ??0CApp@@QAE@ABU0@@Z       100030f0 f i cloopbuffer.obj
 0002:000012c0       ??4CApp@@QAEAAU0@ABU0@@Z   100032c0 f i cloopbuffer.obj
 0002:000014c0       ??_ECApp@@UAEPAXI@Z        100034c0 f i cloopbuffer.obj
 0002:00001560       ?DaemonInstanceEntry@CInstance@@UAEXQAUCMessage@@PAUCApp@@@Z 10003560 f i cloopbuffer.obj
 0002:000015c0       ?InstanceDump@CInstance@@UAEXI@Z 100035c0 f i cloopbuffer.obj
 0002:000015f0       ?DaemonInstanceDump@CInstance@@UAEXI@Z 100035f0 f i cloopbuffer.obj
 0002:00001620       ?InstanceExit@CInstance@@UAEXXZ 10003620 f i cloopbuffer.obj
 0002:00001650       ??0CInstance@@QAE@XZ       10003650 f i cloopbuffer.obj
 0002:00001690       ??0CInstance@@QAE@ABV0@@Z  10003690 f i cloopbuffer.obj
 0002:00001780       ??4CInstance@@QAEAAV0@ABV0@@Z 10003780 f i cloopbuffer.obj
 0002:00001880       ??0CLoopBuf@@QAE@XZ        10003880 f   cloopbuffer.obj
 0002:00001930       ??1CLoopBuf@@QAE@XZ        10003930 f   cloopbuffer.obj
 0002:000019c0       ?ReleaseBuffer@CLoopBuf@@QAEXXZ 100039c0 f i cloopbuffer.obj
 0002:00001a30       ?LoopBuf_init@CLoopBuf@@QAEHPAEI@Z 10003a30 f   cloopbuffer.obj
 0002:00001b10       ?LoopBuf_put@CLoopBuf@@QAEIPAEI@Z 10003b10 f   cloopbuffer.obj
 0002:00001d30       ?LoopBuf_get@CLoopBuf@@QAEIPAEI@Z 10003d30 f   cloopbuffer.obj
 0002:00001f50       ??0CEventWindows@@QAE@XZ   10003f50 f   eventwindows.obj
 0002:00001fc0       ?GetHandle@CEventWindows@@UAEPAXXZ 10003fc0 f i eventwindows.obj
 0002:00001ff0       ??_ECEventWindows@@UAEPAXI@Z 10003ff0 f i eventwindows.obj
 0002:00001ff0       ??_GCEventWindows@@UAEPAXI@Z 10003ff0 f i eventwindows.obj
 0002:00002050       ??1CEventWindows@@UAE@XZ   10004050 f   eventwindows.obj
 0002:000020d0       ?Set@CEventWindows@@UAEHXZ 100040d0 f   eventwindows.obj
 0002:00002130       ?Reset@CEventWindows@@UAEHXZ 10004130 f   eventwindows.obj
 0002:00002190       ?Wait@CEventWindows@@UAE?AW4EnumType@@I@Z 10004190 f   eventwindows.obj
 0002:00002220       ?StartTimer@CEventWindows@@UAEHHI@Z 10004220 f   eventwindows.obj
 0002:000022f0       ?StopTimer@CEventWindows@@UAEHXZ 100042f0 f   eventwindows.obj
 0002:00002350       ??0CMediaListCom@@QAE@XZ   10004350 f   listcomponent.obj
 0002:00002400       ??1CMediaListCom@@QAE@XZ   10004400 f   listcomponent.obj
 0002:00002490       ?AddDataFront@CMediaListCom@@QAEXPAX@Z 10004490 f   listcomponent.obj
 0002:000026b0       ?AddDataTail@CMediaListCom@@QAEXPAX@Z 100046b0 f   listcomponent.obj
 0002:00002880       ?DeleteData@CMediaListCom@@QAEXPAX@Z 10004880 f   listcomponent.obj
 0002:00002a10       ?DeleteAll@CMediaListCom@@QAEXXZ 10004a10 f   listcomponent.obj
 0002:00002a80       ?GetDataByIndex@CMediaListCom@@QAEPAXI@Z 10004a80 f   listcomponent.obj
 0002:00002bc0       ??0CCodecWrapperLog@@QAE@XZ 10004bc0 f   logbase.obj
 0002:00002c70       ??1CCodecWrapperLog@@QAE@XZ 10004c70 f   logbase.obj
 0002:00002ce0       ?SetLevel@CCodecWrapperLog@@QAEXI@Z 10004ce0 f   logbase.obj
 0002:00002e90       ?OpenPtPort@CCodecWrapperLog@@QAEXI@Z 10004e90 f   logbase.obj
 0002:000031f0       ?Print@CCodecWrapperLog@@QAAXIPBD0III0ZZ 100051f0 f   logbase.obj
 0002:000035c0       ?GetSysTime@@YAGPADI@Z     100055c0 f i logbase.obj
 0002:000036b0       ??$vsnprintf_s@$0BJA@@@YAHAAY0BJA@DIPBDPAD@Z 100056b0 f i logbase.obj
 0002:00003710       ?Create@CRecordPakge@@QAEHIPAXH@Z 10005710 f   record_pakage.obj
 0002:00003850       ??1CRecordPakge@@QAE@XZ    10005850 f   record_pakage.obj
 0002:000038e0       ?Destroy@CRecordPakge@@QAEHXZ 100058e0 f   record_pakage.obj
 0002:00003970       ?Init@CRecordPakge@@QAEHQAXI@Z 10005970 f   record_pakage.obj
 0002:00003a90       ?Dest@CRecordPakge@@QAEHXZ 10005a90 f   record_pakage.obj
 0002:00003af0       ?WriteData@CRecordPakge@@QAEHQBXI0I@Z 10005af0 f   record_pakage.obj
 0002:00003ed0       ?GetDataBuffer@CRecordPakge@@QAEQAXAAI@Z 10005ed0 f   record_pakage.obj
 0002:00004020       ?ReturnDataBuffer@CRecordPakge@@QAEHQBXI@Z 10006020 f   record_pakage.obj
 0002:00004260       ?ClearAllData@CRecordPakge@@QAEXXZ 10006260 f   record_pakage.obj
 0002:00004320       ??1CSaveFileCom@@QAE@XZ    10006320 f   savefilecomponent.obj
 0002:00004360       ?Create@CSaveFileCom@@QAEXPBD@Z 10006360 f   savefilecomponent.obj
 0002:00004520       ?StartSave@CSaveFileCom@@QAEXI@Z 10006520 f   savefilecomponent.obj
 0002:00004560       ?SaveToFile@CSaveFileCom@@QAEXPBEIH@Z 10006560 f   savefilecomponent.obj
 0002:000047d0       ?CloseFile@CSaveFileCom@@QAEXXZ 100067d0 f   savefilecomponent.obj
 0002:000048d0       ?OpenFileSrc@CReadFileCom@@QAEHPAD0I@Z 100068d0 f   savefilecomponent.obj
 0002:00004a10       ?ReadOneFrame@CReadFileCom@@QAEHPAEIAAI@Z 10006a10 f   savefilecomponent.obj
 0002:00004b30       ?CloseFileSrc@CReadFileCom@@QAEHXZ 10006b30 f   savefilecomponent.obj
 0002:00004be0       ??0CSemaphoreCom@@QAE@XZ   10006be0 f   semcomponent.obj
 0002:00004c20       ??1CSemaphoreCom@@QAE@XZ   10006c20 f   semcomponent.obj
 0002:00004c60       ?Create@CSemaphoreCom@@QAEXII@Z 10006c60 f   semcomponent.obj
 0002:00004d10       ?Destory@CSemaphoreCom@@QAEXXZ 10006d10 f   semcomponent.obj
 0002:00004d90       ?Take@CSemaphoreCom@@QAEHI@Z 10006d90 f   semcomponent.obj
 0002:00004e40       ?Give@CSemaphoreCom@@QAEXXZ 10006e40 f   semcomponent.obj
 0002:00004ed0       ??0CAutoLockCom@@QAE@AAVCSemaphoreCom@@I@Z 10006ed0 f   semcomponent.obj
 0002:00004f60       ??1CAutoLockCom@@QAE@XZ    10006f60 f   semcomponent.obj
 0002:00004fc0       ?task_createCB@@YGIPAX@Z   10006fc0 f   taskcomponent.obj
 0002:00005060       ??0CTaskCreate@@QAE@XZ     10007060 f   taskcomponent.obj
 0002:000050c0       ?RealTaskProcess@CTaskCreate@@UAEXI@Z 100070c0 f i taskcomponent.obj
 0002:000050f0       ??_ECTaskCreate@@UAEPAXI@Z 100070f0 f i taskcomponent.obj
 0002:000050f0       ??_GCTaskCreate@@UAEPAXI@Z 100070f0 f i taskcomponent.obj
 0002:00005150       ??1CTaskCreate@@UAE@XZ     10007150 f   taskcomponent.obj
 0002:00005200       ?CreateTask@CTaskCreate@@QAEIIPAIQAPAD0@Z 10007200 f   taskcomponent.obj
 0002:00005560       ?DestroyTaskAll@CTaskCreate@@QAEIXZ 10007560 f   taskcomponent.obj
 0002:00005610       ?IsTaskCreate@CTaskCreate@@QAEHI@Z 10007610 f   taskcomponent.obj
 0002:00005670       ?IsTaskRunning@CTaskCreate@@QAEHI@Z 10007670 f   taskcomponent.obj
 0002:000056d0       ?SetTaskRunning@CTaskCreate@@QAEXHI@Z 100076d0 f   taskcomponent.obj
 0002:00005730       ?TaskDelay@CTaskCreate@@SAXI@Z 10007730 f   taskcomponent.obj
 0002:00005780       ?Sys_CreateThread@@YAPAXP6AXPAX@Z0W4xthreadPriority@@AAUTthreadInfo@@PBD@Z 10007780 f   win32common.obj
 0002:00005850       ?Sys_DLL_Load@@YAPAUHINSTANCE__@@PBD@Z 10007850 f   win32common.obj
 0002:00005980       ?Sys_DLL_GetProcAddress@@YAPAXPAUHINSTANCE__@@PBD@Z 10007980 f   win32common.obj
 0002:00005a10       ?Sys_DLL_Unload@@YAXPAUHINSTANCE__@@@Z 10007a10 f   win32common.obj
 0002:00005b10       ?Sys_ClockTicksPerSecond@@YANXZ 10007b10 f   win32common.obj
 0002:00005cb0       ?Sys_IsXpOrLower@@YAHXZ    10007cb0 f   win32common.obj
 0002:00005da0       ?Sys_IsVistaOrHigher@@YAHXZ 10007da0 f   win32common.obj
 0002:00005fc0       ?Sys_IsWin10@@YAHXZ        10007fc0 f   win32common.obj
 0002:000063d0       ?PrintComErr@@YAXJ@Z       100083d0 f   win32common.obj
 0002:00006520       ?GetModulePath@@YAHPADI@Z  10008520 f   win32common.obj
 0002:000067c0       ?strrchr@@YAPADPADH@Z      100087c0 f i win32common.obj
 0002:00006810       ?PrintSysErr@@YAXH@Z       10008810 f i win32common.obj
 0002:00006890       ?GetProcessCpu@@YAMAAT_LARGE_INTEGER@@I@Z 10008890 f   win32common.obj
 0002:00006b90       ?GetThreadCpu@@YAMAAT_LARGE_INTEGER@@I@Z 10008b90 f   win32common.obj
 0002:00006e90       ?cpu_vendor@@YAHXZ         10008e90 f   win32common.obj
 0002:00006fb0       ?microarch_info@@YAPBDI@Z  10008fb0 f   win32common.obj
 0002:00007160       ?IsSupportHwCodec@@YAHXZ   10009160 f   win32common.obj
 0002:000072c0       ??0?$basic_string@DU?$char_traits@D@std@@V?$allocator@D@2@@std@@QAE@XZ 100092c0 f i win32common.obj
 0002:00007360       ??1?$basic_string@DU?$char_traits@D@std@@V?$allocator@D@2@@std@@QAE@XZ 10009360 f i win32common.obj
 0002:000073f0       ??4?$basic_string@DU?$char_traits@D@std@@V?$allocator@D@2@@std@@QAEAAV01@PBD@Z 100093f0 f i win32common.obj
 0002:00007440       ??Y?$basic_string@DU?$char_traits@D@std@@V?$allocator@D@2@@std@@QAEAAV01@PBD@Z 10009440 f i win32common.obj
 0002:00007490       ?c_str@?$basic_string@DU?$char_traits@D@std@@V?$allocator@D@2@@std@@QBEPBDXZ 10009490 f i win32common.obj
 0002:000074d0       ?append@?$basic_string@DU?$char_traits@D@std@@V?$allocator@D@2@@std@@QAEAAV12@PBD@Z 100094d0 f i win32common.obj
 0002:00007530       ?length@?$char_traits@D@std@@SAIPBD@Z 10009530 f i win32common.obj
 0002:00007570       ?assign@?$basic_string@DU?$char_traits@D@std@@V?$allocator@D@2@@std@@QAEAAV12@PBD@Z 10009570 f i win32common.obj
 0002:000075d0       ?_Tidy@?$basic_string@DU?$char_traits@D@std@@V?$allocator@D@2@@std@@QAEX_NI@Z 100095d0 f i win32common.obj
 0002:00007670       ?copy@?$char_traits@D@std@@SAPADPADPBDI@Z 10009670 f i win32common.obj
 0002:000076c0       ?_Myptr@?$basic_string@DU?$char_traits@D@std@@V?$allocator@D@2@@std@@QBEPBDXZ 100096c0 f i win32common.obj
 0002:00007710       ??0?$_String_val@DV?$allocator@D@std@@@std@@QAE@V?$allocator@D@1@@Z 10009710 f i win32common.obj
 0002:00007760       ??1?$_String_val@DV?$allocator@D@std@@@std@@QAE@XZ 10009760 f i win32common.obj
 0002:00007790       ??0?$allocator@D@std@@QAE@XZ 10009790 f i win32common.obj
 0002:000077c0       ??0?$allocator@D@std@@QAE@ABV01@@Z 100097c0 f i win32common.obj
 0002:000077f0       ?append@?$basic_string@DU?$char_traits@D@std@@V?$allocator@D@2@@std@@QAEAAV12@PBDI@Z 100097f0 f i win32common.obj
 0002:000078d0       ?assign@?$basic_string@DU?$char_traits@D@std@@V?$allocator@D@2@@std@@QAEAAV12@PBDI@Z 100098d0 f i win32common.obj
 0002:00007980       ?_Eos@?$basic_string@DU?$char_traits@D@std@@V?$allocator@D@2@@std@@QAEXI@Z 10009980 f i win32common.obj
 0002:000079f0       ?assign@?$char_traits@D@std@@SAXAADABD@Z 100099f0 f i win32common.obj
 0002:00007a20       ?_Myptr@?$basic_string@DU?$char_traits@D@std@@V?$allocator@D@2@@std@@QAEPADXZ 10009a20 f i win32common.obj
 0002:00007a70       ?deallocate@?$allocator@D@std@@QAEXPADI@Z 10009a70 f i win32common.obj
 0002:00007ac0       ?append@?$basic_string@DU?$char_traits@D@std@@V?$allocator@D@2@@std@@QAEAAV12@ABV12@II@Z 10009ac0 f i win32common.obj
 0002:00007ba0       ?size@?$basic_string@DU?$char_traits@D@std@@V?$allocator@D@2@@std@@QBEIXZ 10009ba0 f i win32common.obj
 0002:00007bd0       ?_Xran@?$basic_string@DU?$char_traits@D@std@@V?$allocator@D@2@@std@@QBEXXZ 10009bd0 f i win32common.obj
 0002:00007c20       ?assign@?$basic_string@DU?$char_traits@D@std@@V?$allocator@D@2@@std@@QAEAAV12@ABV12@II@Z 10009c20 f i win32common.obj
 0002:00007d00       ?_Grow@?$basic_string@DU?$char_traits@D@std@@V?$allocator@D@2@@std@@QAE_NI_N@Z 10009d00 f i win32common.obj
 0002:00007dd0       ?_Inside@?$basic_string@DU?$char_traits@D@std@@V?$allocator@D@2@@std@@QAE_NPBD@Z 10009dd0 f i win32common.obj
 0002:00007e40       ?_Xlen@?$basic_string@DU?$char_traits@D@std@@V?$allocator@D@2@@std@@QBEXXZ 10009e40 f i win32common.obj
 0002:00007e90       ?erase@?$basic_string@DU?$char_traits@D@std@@V?$allocator@D@2@@std@@QAEAAV12@II@Z 10009e90 f i win32common.obj
 0002:00007f50       ?move@?$char_traits@D@std@@SAPADPADPBDI@Z 10009f50 f i win32common.obj
 0002:00007fa0       ?max_size@?$basic_string@DU?$char_traits@D@std@@V?$allocator@D@2@@std@@QBEIXZ 10009fa0 f i win32common.obj
 0002:00008010       ?_Copy@?$basic_string@DU?$char_traits@D@std@@V?$allocator@D@2@@std@@QAEXII@Z 1000a010 f i win32common.obj
 0002:000081d0       ?allocate@?$allocator@D@std@@QAEPADI@Z 1000a1d0 f i win32common.obj
 0002:00008220       ?max_size@?$allocator@D@std@@QBEIXZ 1000a220 f i win32common.obj
 0002:00008280       ??$_Allocate@D@std@@YAPADIPAD@Z 1000a280 f i win32common.obj
 0002:00008310       ??0bad_alloc@std@@QAE@PBD@Z 1000a310 f i win32common.obj
 0002:00008370       ??1bad_alloc@std@@UAE@XZ   1000a370 f i win32common.obj
 0002:000083d0       ??_Gbad_alloc@std@@UAEPAXI@Z 1000a3d0 f i win32common.obj
 0002:000083d0       ??_Ebad_alloc@std@@UAEPAXI@Z 1000a3d0 f i win32common.obj
 0002:00008430       ??0bad_alloc@std@@QAE@ABV01@@Z 1000a430 f i win32common.obj
 0002:00008490       ??0Win32Vars_t@@QAE@XZ     1000a490 f i win32common.obj
 0002:000084e0       ??1Win32Vars_t@@QAE@XZ     1000a4e0 f i win32common.obj
 0002:00008530       ?GetSingletonPtr@CKdvAudioAec@@SAPAV1@XZ 1000a530 f   aec.obj
 0002:00008560       ??0CKdvAudioAec@@QAE@XZ    1000a560 f   aec.obj
 0002:00008610       ??_ECKdvAudioAec@@UAEPAXI@Z 1000a610 f i aec.obj
 0002:00008610       ??_GCKdvAudioAec@@UAEPAXI@Z 1000a610 f i aec.obj
 0002:00008670       ??1CKdvAudioAec@@UAE@XZ    1000a670 f   aec.obj
 0002:00008700       ?InitAec@CKdvAudioAec@@IAEGXZ 1000a700 f   aec.obj
 0002:00008780       ?DestroyAec@CKdvAudioAec@@QAEGXZ 1000a780 f   aec.obj
 0002:00008970       ?SavePcm@CKdvAudioAec@@QAEGI@Z 1000a970 f   aec.obj
 0002:00008a40       ?SetAecParam@CKdvAudioAec@@QAEGIIII@Z 1000aa40 f   aec.obj
 0002:00008be0       ?Process@CKdvAudioAec@@QAEPAEAAUtagAudioPram@@PBEH@Z 1000abe0 f   aec.obj
 0002:00009140       ?Control@CKdvAudioAec@@QAEGW4enAecCtrlID@@ABUtagAecComCtrl@@@Z 1000b140 f   aec.obj
 0002:000091b0       ?PrintStatis@CKdvAudioAec@@QAEXXZ 1000b1b0 f   aec.obj
 0002:000093d0       ?InitAECInst@@YAXXZ        1000b3d0 f   aec.obj
 0002:000094a0       _aecreset                  1000b4a0 f   aec.obj
 0002:00009560       _aecstatis                 1000b560 f   aec.obj
 0002:000095a0       _aecdelay                  1000b5a0 f   aec.obj
 0002:000095d0       _kdvaectest                1000b5d0 f   aec.obj
 0002:00009a00       ??0CSaveFileCom@@QAE@XZ    1000ba00 f i aec.obj
 0002:00009a60       ??0CReadFileCom@@QAE@XZ    1000ba60 f i aec.obj
 0002:00009ac0       ??1CReadFileCom@@QAE@XZ    1000bac0 f i aec.obj
 0002:00009b00       ??0?$Singleton@VCKdvAudioAec@@@@QAE@XZ 1000bb00 f i aec.obj
 0002:00009b60       ??1?$Singleton@VCKdvAudioAec@@@@QAE@XZ 1000bb60 f i aec.obj
 0002:00009ba0       ??0CKdvEncoder@@QAE@ABV0@@Z 1000bba0 f i auddecoderwrapper.obj
 0002:00009c10       ??4CKdvEncoder@@QAEAAV0@ABV0@@Z 1000bc10 f i auddecoderwrapper.obj
 0002:00009c70       ??_ECKdvEncoder@@UAEPAXI@Z 1000bc70 f i auddecoderwrapper.obj
 0002:00009d10       ??0CKdvDecoder@@QAE@ABV0@@Z 1000bd10 f i auddecoderwrapper.obj
 0002:00009d80       ??4CKdvDecoder@@QAEAAV0@ABV0@@Z 1000bd80 f i auddecoderwrapper.obj
 0002:00009de0       ??_ECKdvDecoder@@UAEPAXI@Z 1000bde0 f i auddecoderwrapper.obj
 0002:00009e80       ??4CAVCapCheck@@QAEAAV0@ABV0@@Z 1000be80 f i auddecoderwrapper.obj
 0002:00009ec0       ?AudioDataProc@@YAXPAUtagFrameHdr@@I@Z 1000bec0 f   auddecoderwrapper.obj
 0002:0000a010       ??0CAudDecWrapper@@QAE@PAUTDecoderRef@@PAUTDecoderStatus@@@Z 1000c010 f   auddecoderwrapper.obj
 0002:0000a4c0       ?OpusRtpSend@CKdvMp3Codec@@UAEXPAEIII@Z 1000c4c0 f i auddecoderwrapper.obj
 0002:0000a4f0       ??_GCAudDecWrapper@@UAEPAXI@Z 1000c4f0 f i auddecoderwrapper.obj
 0002:0000a4f0       ??_ECAudDecWrapper@@UAEPAXI@Z 1000c4f0 f i auddecoderwrapper.obj
 0002:0000a550       ??1CAudDecWrapper@@UAE@XZ  1000c550 f   auddecoderwrapper.obj
 0002:0000a670       ?InitAudDecWrapper@CAudDecWrapper@@QAEGXZ 1000c670 f   auddecoderwrapper.obj
 0002:0000ac60       ?DestroyWrap@CAudDecWrapper@@QAEGXZ 1000cc60 f   auddecoderwrapper.obj
 0002:0000b010       ?DestroyPlayer@CAudDecWrapper@@QAEHXZ 1000d010 f   auddecoderwrapper.obj
 0002:0000b120       ?ClearAudDecBuf@CAudDecWrapper@@QAEXXZ 1000d120 f   auddecoderwrapper.obj
 0002:0000b180       ?LoopBuf_reset@CLoopBuf@@QAEXXZ 1000d180 f i auddecoderwrapper.obj
 0002:0000b220       ?StartDec@CAudDecWrapper@@QAEXH@Z 1000d220 f   auddecoderwrapper.obj
 0002:0000b350       ?SaveAudio@CAudDecWrapper@@QAEXPBDI@Z 1000d350 f   auddecoderwrapper.obj
 0002:0000b570       ?SetData@CAudDecWrapper@@QAEXPAUtagAudDataStream@@@Z 1000d570 f   auddecoderwrapper.obj
 0002:0000c130       ?IsAudioMediaTypeSuported@@YAHE@Z 1000e130 f i auddecoderwrapper.obj
 0002:0000c1e0       ?LoopBuf_len@CLoopBuf@@QAEIXZ 1000e1e0 f i auddecoderwrapper.obj
 0002:0000c280       ?CalcDecThreadCpu@CAudDecWrapper@@QAEXH@Z 1000e280 f   auddecoderwrapper.obj
 0002:0000c3d0       ?CalcPlayThreadCpu@CAudDecWrapper@@QAEXH@Z 1000e3d0 f   auddecoderwrapper.obj
 0002:0000c520       ?StartRcvAudio@CAudDecWrapper@@QAEHXZ 1000e520 f   auddecoderwrapper.obj
 0002:0000c640       ?StopRcvAudio@CAudDecWrapper@@QAEHXZ 1000e640 f   auddecoderwrapper.obj
 0002:0000c840       ?SetAudioRcvAddress@CAudDecWrapper@@QAEHPBUtagMnetNetParam@@@Z 1000e840 f   auddecoderwrapper.obj
 0002:0000ca40       ?RemoveAudioNetRcvLocalParam@CAudDecWrapper@@QAEHXZ 1000ea40 f   auddecoderwrapper.obj
 0002:0000cb30       ?SetNetFeedbackAudioParam@CAudDecWrapper@@QAEHH@Z 1000eb30 f   auddecoderwrapper.obj
 0002:0000cc30       ?SetAudioVolume@CAudDecWrapper@@QAEXE@Z 1000ec30 f   auddecoderwrapper.obj
 0002:0000cd30       ?SetAudioSysVolume@CAudDecWrapper@@QAEHE@Z 1000ed30 f   auddecoderwrapper.obj
 0002:0000ce40       ?GetAudioSysVolume@CAudDecWrapper@@QAEHAAE@Z 1000ee40 f   auddecoderwrapper.obj
 0002:0000cf10       ?SetAudioActivePT@CAudDecWrapper@@QAEHEE@Z 1000ef10 f   auddecoderwrapper.obj
 0002:0000d020       ?SetAudioActivePT@CAudDecWrapper@@QAEHUtagMapSet@@@Z 1000f020 f   auddecoderwrapper.obj
 0002:0000d160       ?SetDecryptKey@CAudDecWrapper@@QAEHPADGE@Z 1000f160 f   auddecoderwrapper.obj
 0002:0000d300       ?SetReverseG7221c@CAudDecWrapper@@QAEHH@Z 1000f300 f   auddecoderwrapper.obj
 0002:0000d400       ?SetAudioRcvId@CAudDecWrapper@@QAEHPBDII@Z 1000f400 f   auddecoderwrapper.obj
 0002:0000d510       ?GetAudioRcvId@CAudDecWrapper@@QAEHPADPAI1@Z 1000f510 f   auddecoderwrapper.obj
 0002:0000d620       ?AudioRcvEnableKeepAlive@CAudDecWrapper@@QAEHHPBUtagMnetNetParam@@@Z 1000f620 f   auddecoderwrapper.obj
 0002:0000d780       ?SetAudioRtcpStatus@CAudDecWrapper@@QAEHW4RTCPSTATUS@@@Z 1000f780 f   auddecoderwrapper.obj
 0002:0000d880       ?SetAudioCallBack@CAudDecWrapper@@QAEHP6AXEPBEHI@ZI@Z 1000f880 f   auddecoderwrapper.obj
 0002:0000d900       ?SetAudioDecPCMCallBack@CAudDecWrapper@@QAEHP6AXPAEHIIII@ZI@Z 1000f900 f   auddecoderwrapper.obj
 0002:0000d980       ?SetOutputAudioPowerCB@CAudDecWrapper@@QAEHP6AXEI@ZI@Z 1000f980 f   auddecoderwrapper.obj
 0002:0000da00       ?StartPlay@CAudDecWrapper@@QAEHH@Z 1000fa00 f   auddecoderwrapper.obj
 0002:0000dd00       ?Clear@tagAudioDevNameInfo@@QAEXXZ 1000fd00 f i auddecoderwrapper.obj
 0002:0000dd50       ??0tagAudioDevNameInfo@@QAE@XZ 1000fd50 f i auddecoderwrapper.obj
 0002:0000dde0       ??1tagAudioDevNameInfo@@QAE@XZ 1000fde0 f i auddecoderwrapper.obj
 0002:0000de70       ?SetPlyTest@CAudDecWrapper@@QAEHH@Z 1000fe70 f   auddecoderwrapper.obj
 0002:0000df00       ?ReadFileDataToDecBuffer@CAudDecWrapper@@QAEHPADI@Z 1000ff00 f   auddecoderwrapper.obj
 0002:0000e520       ?wcsrchr@@YAPA_WPA_W_W@Z   10010520 f i auddecoderwrapper.obj
 0002:0000e570       ?PlayPcmData@CAudDecWrapper@@QAEGPAEIIII@Z 10010570 f   auddecoderwrapper.obj
 0002:0000f560       ??0AudioFrame@mediawrapper@@QAE@XZ 10011560 f i auddecoderwrapper.obj
 0002:0000f620       ??_GAudioFrame@mediawrapper@@UAEPAXI@Z 10011620 f i auddecoderwrapper.obj
 0002:0000f620       ??_EAudioFrame@mediawrapper@@UAEPAXI@Z 10011620 f i auddecoderwrapper.obj
 0002:0000f680       ??1AudioFrame@mediawrapper@@UAE@XZ 10011680 f i auddecoderwrapper.obj
 0002:0000f6c0       ?PlayProcFunc@CAudDecWrapper@@SAXIEEIPAEPAX@Z 100116c0 f   auddecoderwrapper.obj
 0002:0000f720       ?SelectAudioPlyDevice@CAudDecWrapper@@QAEGPB_W0@Z 10011720 f   auddecoderwrapper.obj
 0002:0000fbc0       ??4tagAudioDevNameInfo@@QAEAAU0@ABU0@@Z 10011bc0 f i auddecoderwrapper.obj
 0002:0000fc20       ?GetCurAudPlyDev@CAudDecWrapper@@QAEGAAUTDevNameInfo@@@Z 10011c20 f   auddecoderwrapper.obj
 0002:0000fcc0       ?RefeshPlayDevices@CAudDecWrapper@@QAEXAAV?$vector@UtagAudioDevNameInfo@@V?$allocator@UtagAudioDevNameInfo@@@std@@@std@@AAI@Z 10011cc0 f   auddecoderwrapper.obj
 0002:0000fd60       ?GetAudDecoderStatis@CAudDecWrapper@@QAEGAAUKdvDecStatis@@@Z 10011d60 f   auddecoderwrapper.obj
 0002:00010130       ?PrintStatis@CAudDecWrapper@@QAEXXZ 10012130 f   auddecoderwrapper.obj
 0002:00010a70       ?SetAudDecSpeLevel@CAudDecWrapper@@QAEGHI@Z 10012a70 f   auddecoderwrapper.obj
 0002:00010b70       ?GetAudDecSpeLevel@CAudDecWrapper@@QAEGAAI@Z 10012b70 f   auddecoderwrapper.obj
 0002:00010c10       ?SetAudReduceToRadio@CAudDecWrapper@@QAEGI@Z 10012c10 f   auddecoderwrapper.obj
 0002:00010cb0       ?GetAudReduceToRadio@CAudDecWrapper@@QAEGAAI@Z 10012cb0 f   auddecoderwrapper.obj
 0002:00010d40       ?SetAudioDecMode@CAudDecWrapper@@QAEGIE@Z 10012d40 f   auddecoderwrapper.obj
 0002:00010e50       ?CheckAudioModeForAAC@CAudDecWrapper@@QAEGIAAE@Z 10012e50 f   auddecoderwrapper.obj
 0002:00010ee0       ?SetAudFecEnable@CAudDecWrapper@@QAEHH@Z 10012ee0 f   auddecoderwrapper.obj
 0002:00010fe0       ?SetAudEnableCrypt@CAudDecWrapper@@QAEHHPATTMnetCryptCfg@@@Z 10012fe0 f   auddecoderwrapper.obj
 0002:000110f0       ?SetAudMnetCryptCfgInit@CAudDecWrapper@@QAEHPATTMnetCryptCfg@@H@Z 100130f0 f   auddecoderwrapper.obj
 0002:00011150       ?SetAudMnetCryptCfgSetCipherAlgorithm@CAudDecWrapper@@QAEHPATTMnetCryptCfg@@W4TMnetCryptDataType@@W4TMnetCryptAlgoType@@@Z 10013150 f   auddecoderwrapper.obj
 0002:000111b0       ?SetAudMnetCryptCfgSetAuthAlgorithm@CAudDecWrapper@@QAEHPATTMnetCryptCfg@@W4TMnetCryptDataType@@W4TMnetCryptAlgoType@@@Z 100131b0 f   auddecoderwrapper.obj
 0002:00011210       ?SetAudMnetCryptCfgSetMasterKey@CAudDecWrapper@@QAEHPATTMnetCryptCfg@@W4TMnetCryptDataType@@W4TMnetCryptKeyType@@GPAEW4TMnetCrypKeyLen@@4@Z 10013210 f   auddecoderwrapper.obj
 0002:00011280       ?SetAudMnetCryptCfgSetCipherKey@CAudDecWrapper@@QAEHPATTMnetCryptCfg@@W4TMnetCryptDataType@@GPAE@Z 10013280 f   auddecoderwrapper.obj
 0002:000112e0       ?SetAudMnetCryptCfgSetAuthKey@CAudDecWrapper@@QAEHPATTMnetCryptCfg@@W4TMnetCryptDataType@@GPAE@Z 100132e0 f   auddecoderwrapper.obj
 0002:00011340       ?SetAudMnetCryptCfgSetPkt@CAudDecWrapper@@QAEHPATTMnetCryptCfg@@W4TMnetCryptDataType@@W4TMnetCryptPktType@@@Z 10013340 f   auddecoderwrapper.obj
 0002:000113a0       ?SetAudMnetCryptCfgSetAuthTag@CAudDecWrapper@@QAEHPATTMnetCryptCfg@@W4TMnetCryptDataType@@W4TMnetCryptTagLen@@@Z 100133a0 f   auddecoderwrapper.obj
 0002:00011400       ??0?$basic_string@DU?$char_traits@D@std@@V?$allocator@D@2@@std@@QAE@PBD@Z 10013400 f i auddecoderwrapper.obj
 0002:000114b0       ??0?$basic_string@_WU?$char_traits@_W@std@@V?$allocator@_W@2@@std@@QAE@XZ 100134b0 f i auddecoderwrapper.obj
 0002:00011550       ??1?$basic_string@_WU?$char_traits@_W@std@@V?$allocator@_W@2@@std@@QAE@XZ 10013550 f i auddecoderwrapper.obj
 0002:000115e0       ??4?$basic_string@_WU?$char_traits@_W@std@@V?$allocator@_W@2@@std@@QAEAAV01@ABV01@@Z 100135e0 f i auddecoderwrapper.obj
 0002:00011630       ??4?$basic_string@_WU?$char_traits@_W@std@@V?$allocator@_W@2@@std@@QAEAAV01@PB_W@Z 10013630 f i auddecoderwrapper.obj
 0002:00011680       ?clear@?$basic_string@_WU?$char_traits@_W@std@@V?$allocator@_W@2@@std@@QAEXXZ 10013680 f i auddecoderwrapper.obj
 0002:000116d0       ?c_str@?$basic_string@_WU?$char_traits@_W@std@@V?$allocator@_W@2@@std@@QBEPB_WXZ 100136d0 f i auddecoderwrapper.obj
 0002:00011710       ?length@?$basic_string@_WU?$char_traits@_W@std@@V?$allocator@_W@2@@std@@QBEIXZ 10013710 f i auddecoderwrapper.obj
 0002:00011740       ?compare@?$basic_string@_WU?$char_traits@_W@std@@V?$allocator@_W@2@@std@@QBEHPB_W@Z 10013740 f i auddecoderwrapper.obj
 0002:000117a0       ?length@?$char_traits@_W@std@@SAIPB_W@Z 100137a0 f i auddecoderwrapper.obj
 0002:000117f0       ??0?$vector@UtagAudioDevNameInfo@@V?$allocator@UtagAudioDevNameInfo@@@std@@@std@@QAE@XZ 100137f0 f i auddecoderwrapper.obj
 0002:00011840       ??1?$vector@UtagAudioDevNameInfo@@V?$allocator@UtagAudioDevNameInfo@@@std@@@std@@QAE@XZ 10013840 f i auddecoderwrapper.obj
 0002:000118c0       ??A?$vector@UtagAudioDevNameInfo@@V?$allocator@UtagAudioDevNameInfo@@@std@@@std@@QAEAAUtagAudioDevNameInfo@@I@Z 100138c0 f i auddecoderwrapper.obj
 0002:00011900       ?assign@?$basic_string@_WU?$char_traits@_W@std@@V?$allocator@_W@2@@std@@QAEAAV12@ABV12@@Z 10013900 f i auddecoderwrapper.obj
 0002:00011950       ?assign@?$basic_string@_WU?$char_traits@_W@std@@V?$allocator@_W@2@@std@@QAEAAV12@ABV12@II@Z 10013950 f i auddecoderwrapper.obj
 0002:00011a30       ?copy@?$char_traits@_W@std@@SAPA_WPA_WPB_WI@Z 10013a30 f i auddecoderwrapper.obj
 0002:00011a80       _wmemcpy                   10013a80 f i auddecoderwrapper.obj
 0002:00011ad0       ?size@?$basic_string@_WU?$char_traits@_W@std@@V?$allocator@_W@2@@std@@QBEIXZ 10013ad0 f i auddecoderwrapper.obj
 0002:00011b00       ?assign@?$basic_string@_WU?$char_traits@_W@std@@V?$allocator@_W@2@@std@@QAEAAV12@PB_W@Z 10013b00 f i auddecoderwrapper.obj
 0002:00011b60       ?compare@?$basic_string@_WU?$char_traits@_W@std@@V?$allocator@_W@2@@std@@QBEHIIPB_WI@Z 10013b60 f i auddecoderwrapper.obj
 0002:00011c50       ?compare@?$char_traits@_W@std@@SAHPB_W0I@Z 10013c50 f i auddecoderwrapper.obj
 0002:00011ca0       _wmemcmp                   10013ca0 f i auddecoderwrapper.obj
 0002:00011d20       ?_Eos@?$basic_string@_WU?$char_traits@_W@std@@V?$allocator@_W@2@@std@@QAEXI@Z 10013d20 f i auddecoderwrapper.obj
 0002:00011d90       ?assign@?$char_traits@_W@std@@SAXAA_WAB_W@Z 10013d90 f i auddecoderwrapper.obj
 0002:00011dd0       ?_Tidy@?$basic_string@_WU?$char_traits@_W@std@@V?$allocator@_W@2@@std@@QAEX_NI@Z 10013dd0 f i auddecoderwrapper.obj
 0002:00011e70       ?_Myptr@?$basic_string@_WU?$char_traits@_W@std@@V?$allocator@_W@2@@std@@QBEPB_WXZ 10013e70 f i auddecoderwrapper.obj
 0002:00011ec0       ??0?$_String_val@_WV?$allocator@_W@std@@@std@@QAE@V?$allocator@_W@1@@Z 10013ec0 f i auddecoderwrapper.obj
 0002:00011f10       ??1?$_String_val@_WV?$allocator@_W@std@@@std@@QAE@XZ 10013f10 f i auddecoderwrapper.obj
 0002:00011f40       ??0?$allocator@_W@std@@QAE@XZ 10013f40 f i auddecoderwrapper.obj
 0002:00011f70       ??0?$allocator@_W@std@@QAE@ABV01@@Z 10013f70 f i auddecoderwrapper.obj
 0002:00011fa0       ?_Tidy@?$vector@UtagAudioDevNameInfo@@V?$allocator@UtagAudioDevNameInfo@@@std@@@std@@IAEXXZ 10013fa0 f i auddecoderwrapper.obj
 0002:00012050       ??0?$_Vector_val@UtagAudioDevNameInfo@@V?$allocator@UtagAudioDevNameInfo@@@std@@@std@@QAE@V?$allocator@UtagAudioDevNameInfo@@@1@@Z 10014050 f i auddecoderwrapper.obj
 0002:000120c0       ??1?$_Vector_val@UtagAudioDevNameInfo@@V?$allocator@UtagAudioDevNameInfo@@@std@@@std@@QAE@XZ 100140c0 f i auddecoderwrapper.obj
 0002:000120f0       ??0?$allocator@UtagAudioDevNameInfo@@@std@@QAE@XZ 100140f0 f i auddecoderwrapper.obj
 0002:00012120       ?assign@?$basic_string@_WU?$char_traits@_W@std@@V?$allocator@_W@2@@std@@QAEAAV12@PB_WI@Z 10014120 f i auddecoderwrapper.obj
 0002:000121d0       ?erase@?$basic_string@_WU?$char_traits@_W@std@@V?$allocator@_W@2@@std@@QAEAAV12@II@Z 100141d0 f i auddecoderwrapper.obj
 0002:00012290       ?move@?$char_traits@_W@std@@SAPA_WPA_WPB_WI@Z 10014290 f i auddecoderwrapper.obj
 0002:000122e0       _wmemmove                  100142e0 f i auddecoderwrapper.obj
 0002:00012340       ?_Grow@?$basic_string@_WU?$char_traits@_W@std@@V?$allocator@_W@2@@std@@QAE_NI_N@Z 10014340 f i auddecoderwrapper.obj
 0002:00012410       ?_Myptr@?$basic_string@_WU?$char_traits@_W@std@@V?$allocator@_W@2@@std@@QAEPA_WXZ 10014410 f i auddecoderwrapper.obj
 0002:00012460       ?_Xran@?$basic_string@_WU?$char_traits@_W@std@@V?$allocator@_W@2@@std@@QBEXXZ 10014460 f i auddecoderwrapper.obj
 0002:000124b0       ?deallocate@?$allocator@_W@std@@QAEXPA_WI@Z 100144b0 f i auddecoderwrapper.obj
 0002:00012500       ?_Destroy@?$vector@UtagAudioDevNameInfo@@V?$allocator@UtagAudioDevNameInfo@@@std@@@std@@IAEXPAUtagAudioDevNameInfo@@0@Z 10014500 f i auddecoderwrapper.obj
 0002:00012550       ??0?$allocator@UtagAudioDevNameInfo@@@std@@QAE@ABV01@@Z 10014550 f i auddecoderwrapper.obj
 0002:00012580       ?deallocate@?$allocator@UtagAudioDevNameInfo@@@std@@QAEXPAUtagAudioDevNameInfo@@I@Z 10014580 f i auddecoderwrapper.obj
 0002:000125d0       ?max_size@?$basic_string@_WU?$char_traits@_W@std@@V?$allocator@_W@2@@std@@QBEIXZ 100145d0 f i auddecoderwrapper.obj
 0002:00012640       ?_Copy@?$basic_string@_WU?$char_traits@_W@std@@V?$allocator@_W@2@@std@@QAEXII@Z 10014640 f i auddecoderwrapper.obj
 0002:00012800       ?_Inside@?$basic_string@_WU?$char_traits@_W@std@@V?$allocator@_W@2@@std@@QAE_NPB_W@Z 10014800 f i auddecoderwrapper.obj
 0002:00012870       ?_Xlen@?$basic_string@_WU?$char_traits@_W@std@@V?$allocator@_W@2@@std@@QBEXXZ 10014870 f i auddecoderwrapper.obj
 0002:000128c0       ?allocate@?$allocator@_W@std@@QAEPA_WI@Z 100148c0 f i auddecoderwrapper.obj
 0002:00012910       ?max_size@?$allocator@_W@std@@QBEIXZ 10014910 f i auddecoderwrapper.obj
 0002:00012970       ??$_Destroy_range@V?$allocator@UtagAudioDevNameInfo@@@std@@@std@@YAXPAUtagAudioDevNameInfo@@0AAV?$allocator@UtagAudioDevNameInfo@@@0@@Z 10014970 f i auddecoderwrapper.obj
 0002:000129e0       ??$_Allocate@_W@std@@YAPA_WIPA_W@Z 100149e0 f i auddecoderwrapper.obj
 0002:00012a70       ??$_Ptr_cat@UtagAudioDevNameInfo@@U1@@std@@YA?AU_Nonscalar_ptr_iterator_tag@0@PAUtagAudioDevNameInfo@@0@Z 10014a70 f i auddecoderwrapper.obj
 0002:00012ad0       ??$_Destroy_range@V?$allocator@UtagAudioDevNameInfo@@@std@@@std@@YAXPAUtagAudioDevNameInfo@@0AAV?$allocator@UtagAudioDevNameInfo@@@0@U_Nonscalar_ptr_iterator_tag@0@@Z 10014ad0 f i auddecoderwrapper.obj
 0002:00012b30       ??$_Dest_val@V?$allocator@UtagAudioDevNameInfo@@@std@@UtagAudioDevNameInfo@@@std@@YAXAAV?$allocator@UtagAudioDevNameInfo@@@0@PAUtagAudioDevNameInfo@@@Z 10014b30 f i auddecoderwrapper.obj
 0002:00012b70       ?destroy@?$allocator@UtagAudioDevNameInfo@@@std@@QAEXPAUtagAudioDevNameInfo@@@Z 10014b70 f i auddecoderwrapper.obj
 0002:00012bc0       ??$_Destroy@UtagAudioDevNameInfo@@@std@@YAXPAUtagAudioDevNameInfo@@@Z 10014bc0 f i auddecoderwrapper.obj
 0002:00012c00       ??_GtagAudioDevNameInfo@@QAEPAXI@Z 10014c00 f i auddecoderwrapper.obj
 0002:00012c60       ??0CAudEncWrapper@@QAE@PAUTEncoderRef@@PAUTEncoderStatus@@@Z 10014c60 f   audencoderwrapper.obj
 0002:00013110       ??_GCAudEncWrapper@@UAEPAXI@Z 10015110 f i audencoderwrapper.obj
 0002:00013110       ??_ECAudEncWrapper@@UAEPAXI@Z 10015110 f i audencoderwrapper.obj
 0002:00013170       ??1CAudEncWrapper@@UAE@XZ  10015170 f   audencoderwrapper.obj
 0002:000132b0       ?InitAudEncWrapper@CAudEncWrapper@@QAEGXZ 100152b0 f   audencoderwrapper.obj
 0002:00013520       ?DestroyWrap@CAudEncWrapper@@QAEGXZ 10015520 f   audencoderwrapper.obj
 0002:00013800       ?StartEnc@CAudEncWrapper@@QAEXH@Z 10015800 f   audencoderwrapper.obj
 0002:000139b0       ?StartCap@CAudEncWrapper@@QAEHH@Z 100159b0 f   audencoderwrapper.obj
 0002:00013c60       ?SetCapTest@CAudEncWrapper@@QAEHH@Z 10015c60 f   audencoderwrapper.obj
 0002:00013d10       ?SetInputAudioPowerCB@CAudEncWrapper@@QAEHP6AXEI@ZI@Z 10015d10 f   audencoderwrapper.obj
 0002:00013d90       ?SetNetFeedbackAudioParam@CAudEncWrapper@@QAEHH@Z 10015d90 f   audencoderwrapper.obj
 0002:00013f10       ?SetAudioSndBand@CAudEncWrapper@@QAEHI@Z 10015f10 f   audencoderwrapper.obj
 0002:00014190       ?SetNetSndAudioParam@CAudEncWrapper@@QAEHPBUtagMnetNetParam@@@Z 10016190 f   audencoderwrapper.obj
 0002:00014670       ?RemoveAudioNetSndLocalParam@CAudEncWrapper@@QAEHXZ 10016670 f   audencoderwrapper.obj
 0002:000148b0       ?SetAudioActivePT@CAudEncWrapper@@QAEHEE@Z 100168b0 f   audencoderwrapper.obj
 0002:00014a20       ?SetAudEncryptKey@CAudEncWrapper@@QAEHPADGE@Z 10016a20 f   audencoderwrapper.obj
 0002:00014c10       ?SetAudioSendId@CAudEncWrapper@@QAEHPBDII@Z 10016c10 f   audencoderwrapper.obj
 0002:00014d80       ?GetAudioSendId@CAudEncWrapper@@QAEHPADPAI1@Z 10016d80 f   audencoderwrapper.obj
 0002:00014ef0       ?AudioSendEnableKeepAlive@CAudEncWrapper@@QAEHHPBUtagMnetNetParam@@@Z 10016ef0 f   audencoderwrapper.obj
 0002:000150c0       ?AudioEnableRtpExStrip@CAudEncWrapper@@QAEHH@Z 100170c0 f   audencoderwrapper.obj
 0002:00015220       ?SetAudioRtcpStatus@CAudEncWrapper@@QAEHW4RTCPSTATUS@@@Z 10017220 f   audencoderwrapper.obj
 0002:00015380       ?SetAudFecEnable@CAudEncWrapper@@QAEHH@Z 10017380 f   audencoderwrapper.obj
 0002:000154e0       ?SetAudFecPackLen@CAudEncWrapper@@QAEHG@Z 100174e0 f   audencoderwrapper.obj
 0002:00015520       ?SetAudFecIntraFrame@CAudEncWrapper@@QAEHH@Z 10017520 f   audencoderwrapper.obj
 0002:00015560       ?SetAudFecMode@CAudEncWrapper@@QAEHE@Z 10017560 f   audencoderwrapper.obj
 0002:000155a0       ?SetAudFecXY@CAudEncWrapper@@QAEHHH@Z 100175a0 f   audencoderwrapper.obj
 0002:000155e0       ?StartSendAudio@CAudEncWrapper@@QAEHI@Z 100175e0 f   audencoderwrapper.obj
 0002:000157a0       ?StopSendAudio@CAudEncWrapper@@QAEHXZ 100177a0 f   audencoderwrapper.obj
 0002:00015890       ?SetReverseG7221c@CAudEncWrapper@@QAEHH@Z 10017890 f   audencoderwrapper.obj
 0002:000159f0       ?SetNetAudioResend@CAudEncWrapper@@QAEHH@Z 100179f0 f   audencoderwrapper.obj
 0002:00015b60       ?CapProcFunc@CAudEncWrapper@@SAXPBEIEEIIHPAX@Z 10017b60 f   audencoderwrapper.obj
 0002:00015ce0       ?SetAudioVolume@CAudEncWrapper@@QAEXE@Z 10017ce0 f   audencoderwrapper.obj
 0002:00015dd0       ?SetAudioSysVolume@CAudEncWrapper@@QAEHE@Z 10017dd0 f   audencoderwrapper.obj
 0002:00015ea0       ?GetAudioSysVolume@CAudEncWrapper@@QAEHAAE@Z 10017ea0 f   audencoderwrapper.obj
 0002:00015f70       ?SetAudioMode@CAudEncWrapper@@QAEHEG@Z 10017f70 f   audencoderwrapper.obj
 0002:000165b0       ?SelectAudioSource@CAudEncWrapper@@QAEGPB_W0@Z 100185b0 f   audencoderwrapper.obj
 0002:00016a90       ?wcsstr@@YAPA_WPA_WPB_W@Z  10018a90 f i audencoderwrapper.obj
 0002:00016ae0       ?GetCurAudCapDev@CAudEncWrapper@@QAEGAAUTDevNameInfo@@@Z 10018ae0 f   audencoderwrapper.obj
 0002:00016b80       ?EncAudioFrame@CAudEncWrapper@@QAEGPBEI@Z 10018b80 f   audencoderwrapper.obj
 0002:00017510       ?SetAudioCallBack@CAudEncWrapper@@QAEHP6AXEPBEHI@ZI@Z 10019510 f   audencoderwrapper.obj
 0002:00017590       ?RefreshCapDevices@CAudEncWrapper@@QAEXAAV?$vector@UtagAudioDevNameInfo@@V?$allocator@UtagAudioDevNameInfo@@@std@@@std@@AAI@Z 10019590 f   audencoderwrapper.obj
 0002:000175e0       ?OpusRtpSend@CAudEncWrapper@@UAEXPAEIII@Z 100195e0 f   audencoderwrapper.obj
 0002:000178d0       ?PrintStatis@CAudEncWrapper@@QAEXXZ 100198d0 f   audencoderwrapper.obj
 0002:00018150       ?SetSpeParam@CAudEncWrapper@@QAEGIIII@Z 1001a150 f   audencoderwrapper.obj
 0002:00018280       ?SpeProcessPcm@CAudEncWrapper@@QAEGPAEI@Z 1001a280 f   audencoderwrapper.obj
 0002:00018380       ?CloseSpe@CAudEncWrapper@@QAEGXZ 1001a380 f   audencoderwrapper.obj
 0002:000183f0       ?CalcEncThreadCpu@CAudEncWrapper@@QAEXH@Z 1001a3f0 f   audencoderwrapper.obj
 0002:000185d0       ?GetAudSndStatis@CAudEncWrapper@@QAEHAAUtagKdvSndStatistics@@@Z 1001a5d0 f   audencoderwrapper.obj
 0002:000187b0       ?GetAudioMode@CAudEncWrapper@@QAEHAAEAAG@Z 1001a7b0 f   audencoderwrapper.obj
 0002:00018800       ?SaveAudio@CAudEncWrapper@@QAEXPBDI@Z 1001a800 f   audencoderwrapper.obj
 0002:00018a50       ?BufferPcmForEnc@CAudEncWrapper@@QAEGPBEIIII@Z 1001aa50 f   audencoderwrapper.obj
 0002:000192f0       ?GetAudioVolume@CAudEncWrapper@@QAEXAAE@Z 1001b2f0 f i audencoderwrapper.obj
 0002:00019330       ?SetAudEnableCrypt@CAudEncWrapper@@QAEHHPATTMnetCryptCfg@@@Z 1001b330 f   audencoderwrapper.obj
 0002:000194e0       ?SetAudMnetCryptCfgInit@CAudEncWrapper@@QAEHPATTMnetCryptCfg@@H@Z 1001b4e0 f   audencoderwrapper.obj
 0002:00019540       ?SetAudMnetCryptCfgSetCipherAlgorithm@CAudEncWrapper@@QAEHPATTMnetCryptCfg@@W4TMnetCryptDataType@@W4TMnetCryptAlgoType@@@Z 1001b540 f   audencoderwrapper.obj
 0002:000195a0       ?SetAudMnetCryptCfgSetAuthAlgorithm@CAudEncWrapper@@QAEHPATTMnetCryptCfg@@W4TMnetCryptDataType@@W4TMnetCryptAlgoType@@@Z 1001b5a0 f   audencoderwrapper.obj
 0002:00019600       ?SetAudMnetCryptCfgSetMasterKey@CAudEncWrapper@@QAEHPATTMnetCryptCfg@@W4TMnetCryptDataType@@W4TMnetCryptKeyType@@GPAEW4TMnetCrypKeyLen@@4@Z 1001b600 f   audencoderwrapper.obj
 0002:00019670       ?SetAudMnetCryptCfgSetCipherKey@CAudEncWrapper@@QAEHPATTMnetCryptCfg@@W4TMnetCryptDataType@@GPAE@Z 1001b670 f   audencoderwrapper.obj
 0002:000196d0       ?SetAudMnetCryptCfgSetAuthKey@CAudEncWrapper@@QAEHPATTMnetCryptCfg@@W4TMnetCryptDataType@@GPAE@Z 1001b6d0 f   audencoderwrapper.obj
 0002:00019730       ?SetAudMnetCryptCfgSetPkt@CAudEncWrapper@@QAEHPATTMnetCryptCfg@@W4TMnetCryptDataType@@W4TMnetCryptPktType@@@Z 1001b730 f   audencoderwrapper.obj
 0002:00019790       ?SetAudMnetCryptCfgSetAuthTag@CAudEncWrapper@@QAEHPATTMnetCryptCfg@@W4TMnetCryptDataType@@W4TMnetCryptTagLen@@@Z 1001b790 f   audencoderwrapper.obj
 0002:000197f0       ?StartAudDeskSharedCap@CAudEncWrapper@@QAEGH@Z 1001b7f0 f   audencoderwrapper.obj
 0002:00019910       ?volume_adjust@@YAXPAF0H@Z 1001b910 f   audencoderwrapper.obj
 0002:000199d0       ?CBAudioProc@CAudEncWrapper@@SAXPAEHHHPAXH@Z 1001b9d0 f   audencoderwrapper.obj
 0002:00019c20       ?SetAudZoominVol@CAudEncWrapper@@QAEGM@Z 1001bc20 f   audencoderwrapper.obj
 0002:00019c90       ?SetAudDeskSharedCallBack@CAudEncWrapper@@QAEGP6AXPAXI@ZI@Z 1001bc90 f   audencoderwrapper.obj
 0002:00019ce0       ?SetAudCapErrorCallback@CAudEncWrapper@@QAEGP6AXHH@ZH@Z 1001bce0 f   audencoderwrapper.obj
 0002:00019d30       ??0CAudioCapDmo@@QAE@XZ    1001bd30 f   audiocapdmo.obj
 0002:00019ee0       ??0CAudioCapCom@@QAE@XZ    1001bee0 f i audiocapdmo.obj
 0002:00019f80       ??1CAudioCapCom@@UAE@XZ    1001bf80 f i audiocapdmo.obj
 0002:00019fc0       ??_GCAudioCapCom@@UAEPAXI@Z 1001bfc0 f i audiocapdmo.obj
 0002:00019fc0       ??_ECAudioCapCom@@UAEPAXI@Z 1001bfc0 f i audiocapdmo.obj
 0002:0001a020       ?SetCapCallBack@CAudioCapDmo@@UAEXP6AXPBEIEEIIHPAX@Z1@Z 1001c020 f i audiocapdmo.obj
 0002:0001a110       ??_ECAudioCapDmo@@UAEPAXI@Z 1001c110 f i audiocapdmo.obj
 0002:0001a110       ??_GCAudioCapDmo@@UAEPAXI@Z 1001c110 f i audiocapdmo.obj
 0002:0001a170       ??1CAudioCapDmo@@UAE@XZ    1001c170 f   audiocapdmo.obj
 0002:0001a340       ?InitCapThread@CAudioCapDmo@@IAEHXZ 1001c340 f   audiocapdmo.obj
 0002:0001a480       ?SetDMOProperties@CAudioCapDmo@@IAEHIIH@Z 1001c480 f   audiocapdmo.obj
 0002:0001aaa0       _PropVariantInit           1001caa0 f i audiocapdmo.obj
 0002:0001aaf0       ?SetCaptureParam@CAudioCapDmo@@UAEHABUtagAudioCapParam@@H@Z 1001caf0 f   audiocapdmo.obj
 0002:0001af40       ?IsCapturing@CAudioCapCom@@QAEHXZ 1001cf40 f i audiocapdmo.obj
 0002:0001af70       ??0MediaBufferImpl@@QAE@K@Z 1001cf70 f i audiocapdmo.obj
 0002:0001b000       ?GetBufferAndLength@MediaBufferImpl@@UAGJPAPAEPAK@Z 1001d000 f i audiocapdmo.obj
 0002:0001b060       ?GetMaxLength@MediaBufferImpl@@UAGJPAK@Z 1001d060 f i audiocapdmo.obj
 0002:0001b0b0       ?SetLength@MediaBufferImpl@@UAGJK@Z 1001d0b0 f i audiocapdmo.obj
 0002:0001b100       ?AddRef@MediaBufferImpl@@UAGKXZ 1001d100 f i audiocapdmo.obj
 0002:0001b150       ?QueryInterface@MediaBufferImpl@@UAGJABU_GUID@@PAPAX@Z 1001d150 f i audiocapdmo.obj
 0002:0001b1f0       _!=                        1001d1f0 f i audiocapdmo.obj
 0002:0001b240       _==                        1001d240 f i audiocapdmo.obj
 0002:0001b290       _IsEqualGUID               1001d290 f i audiocapdmo.obj
 0002:0001b2e0       ?Release@MediaBufferImpl@@UAGKXZ 1001d2e0 f i audiocapdmo.obj
 0002:0001b380       ??0IMediaBuffer@@QAE@XZ    1001d380 f i audiocapdmo.obj
 0002:0001b3d0       ??_GMediaBufferImpl@@AAEPAXI@Z 1001d3d0 f i audiocapdmo.obj
 0002:0001b430       ??1MediaBufferImpl@@AAE@XZ 1001d430 f i audiocapdmo.obj
 0002:0001b490       ??0IUnknown@@QAE@XZ        1001d490 f i audiocapdmo.obj
 0002:0001b4c0       ?GetNumCapDevices@CAudioCapDmo@@UAEIXZ 1001d4c0 f   audiocapdmo.obj
 0002:0001b510       ?GetNameCapDevices@CAudioCapDmo@@UAEIGQA_W0@Z 1001d510 f   audiocapdmo.obj
 0002:0001b6b0       ?StartCapture@CAudioCapDmo@@UAEHH@Z 1001d6b0 f   audiocapdmo.obj
 0002:0001b7f0       ?SetPlayDriverInst@CAudioCapDmo@@UAEXPAX@Z 1001d7f0 f   audiocapdmo.obj
 0002:0001b820       ?RealTaskProcess@CAudioCapDmo@@UAEXI@Z 1001d820 f   audiocapdmo.obj
 0002:0001bbe0       ?CreateDmoInputDevice@@YAPAVCAudioCapCom@@XZ 1001dbe0 f   audiocapdmo.obj
 0002:0001bca0       ??0?$CAutoComInterfacePtr@UIMediaObject@@@@QAE@PAUIMediaObject@@@Z 1001dca0 f i audiocapdmo.obj
 0002:0001bce0       ??1?$CAutoComInterfacePtr@UIMediaObject@@@@QAE@XZ 1001dce0 f i audiocapdmo.obj
 0002:0001bd50       ??4?$CAutoComInterfacePtr@UIMediaObject@@@@QAEPAUIMediaObject@@PAU1@@Z 1001dd50 f i audiocapdmo.obj
 0002:0001bde0       ??B?$CAutoComInterfacePtr@UIMediaObject@@@@QBEPAUIMediaObject@@XZ 1001dde0 f i audiocapdmo.obj
 0002:0001be10       ??I?$CAutoComInterfacePtr@UIMediaObject@@@@QAEPAPAUIMediaObject@@XZ 1001de10 f i audiocapdmo.obj
 0002:0001be40       ??C?$CAutoComInterfacePtr@UIMediaObject@@@@QBEPAUIMediaObject@@XZ 1001de40 f i audiocapdmo.obj
 0002:0001be70       ??0?$CAutoComInterfacePtr@UIMediaBuffer@@@@QAE@PAUIMediaBuffer@@@Z 1001de70 f i audiocapdmo.obj
 0002:0001beb0       ??1?$CAutoComInterfacePtr@UIMediaBuffer@@@@QAE@XZ 1001deb0 f i audiocapdmo.obj
 0002:0001bf20       ??4?$CAutoComInterfacePtr@UIMediaBuffer@@@@QAEPAUIMediaBuffer@@PAU1@@Z 1001df20 f i audiocapdmo.obj
 0002:0001bfb0       ??B?$CAutoComInterfacePtr@UIMediaBuffer@@@@QBEPAUIMediaBuffer@@XZ 1001dfb0 f i audiocapdmo.obj
 0002:0001bfe0       ??C?$CAutoComInterfacePtr@UIMediaBuffer@@@@QBEPAUIMediaBuffer@@XZ 1001dfe0 f i audiocapdmo.obj
 0002:0001c010       ??8?$CAutoComInterfacePtr@UIMediaBuffer@@@@QBE_NPAUIMediaBuffer@@@Z 1001e010 f i audiocapdmo.obj
 0002:0001c050       ??0?$CAutoComInterfacePtr@UIPropertyStore@@@@QAE@PAUIPropertyStore@@@Z 1001e050 f i audiocapdmo.obj
 0002:0001c090       ??1?$CAutoComInterfacePtr@UIPropertyStore@@@@QAE@XZ 1001e090 f i audiocapdmo.obj
 0002:0001c100       ??4?$CAutoComInterfacePtr@UIPropertyStore@@@@QAEPAUIPropertyStore@@PAU1@@Z 1001e100 f i audiocapdmo.obj
 0002:0001c190       ??C?$CAutoComInterfacePtr@UIPropertyStore@@@@QBEPAUIPropertyStore@@XZ 1001e190 f i audiocapdmo.obj
 0002:0001c1c0       ??0?$CAutoComInterfacePtr@UIMMDeviceCollection@@@@QAE@PAUIMMDeviceCollection@@@Z 1001e1c0 f i audiocapdmo.obj
 0002:0001c200       ??1?$CAutoComInterfacePtr@UIMMDeviceCollection@@@@QAE@XZ 1001e200 f i audiocapdmo.obj
 0002:0001c270       ??B?$CAutoComInterfacePtr@UIMMDeviceCollection@@@@QBEPAUIMMDeviceCollection@@XZ 1001e270 f i audiocapdmo.obj
 0002:0001c2a0       ??I?$CAutoComInterfacePtr@UIMMDeviceCollection@@@@QAEPAPAUIMMDeviceCollection@@XZ 1001e2a0 f i audiocapdmo.obj
 0002:0001c2d0       ??_ECAudioCapDmo@@WCE@AEPAXI@Z 1001e2d0 f i audiocapdmo.obj
 0002:0001c2e0       ??0CAudioCapWasapi@@QAE@XZ 1001e2e0 f   audiocapwasapi.obj
 0002:0001c460       ?SetCapCallBack@CAudioCapWasapi@@UAEXP6AXPBEIEEIIHPAX@Z1@Z 1001e460 f i audiocapwasapi.obj
 0002:0001c550       ??_ECAudioCapWasapi@@UAEPAXI@Z 1001e550 f i audiocapwasapi.obj
 0002:0001c550       ??_GCAudioCapWasapi@@UAEPAXI@Z 1001e550 f i audiocapwasapi.obj
 0002:0001c5b0       ??1CAudioCapWasapi@@UAE@XZ 1001e5b0 f   audiocapwasapi.obj
 0002:0001c860       ?SetCaptureParam@CAudioCapWasapi@@UAEHABUtagAudioCapParam@@H@Z 1001e860 f   audiocapwasapi.obj
 0002:0001cb90       ?GetNumCapDevices@CAudioCapWasapi@@UAEIXZ 1001eb90 f   audiocapwasapi.obj
 0002:0001cbe0       ?GetNameCapDevices@CAudioCapWasapi@@UAEIGQA_W0@Z 1001ebe0 f   audiocapwasapi.obj
 0002:0001cd80       ?StartCapture@CAudioCapWasapi@@UAEHH@Z 1001ed80 f   audiocapwasapi.obj
 0002:0001cfe0       ?SetPlayDriverInst@CAudioCapWasapi@@UAEXPAX@Z 1001efe0 f   audiocapwasapi.obj
 0002:0001d010       ?InitCapThread@CAudioCapWasapi@@IAEHXZ 1001f010 f   audiocapwasapi.obj
 0002:0001d130       ?RealTaskProcess@CAudioCapWasapi@@UAEXI@Z 1001f130 f   audiocapwasapi.obj
 0002:0001d6f0       ?RealStartWork@CAudioCapWasapi@@IAEGXZ 1001f6f0 f   audiocapwasapi.obj
 0002:0001e300       ?TestWasApiCap@@YAHXZ      10020300 f   audiocapwasapi.obj
 0002:0001e4c0       ?CreateWasapiInputDevice@@YAPAVCAudioCapCom@@XZ 100204c0 f   audiocapwasapi.obj
 0002:0001e580       ??_ECAudioCapWasapi@@WCE@AEPAXI@Z 10020580 f i audiocapwasapi.obj
 0002:0001e590       ?TraceWaveInError@@YAXI@Z  10020590 f   audiocapwav.obj
 0002:0001e680       ?GetNumCapDevices@CAudioCapWav@@UAEIXZ 10020680 f   audiocapwav.obj
 0002:0001e720       ?GetNameCapDevices@CAudioCapWav@@UAEIGQA_W0@Z 10020720 f   audiocapwav.obj
 0002:0001ec00       ?StartCapture@CAudioCapWav@@UAEHH@Z 10020c00 f   audiocapwav.obj
 0002:0001f460       ?SetCaptureParam@CAudioCapWav@@UAEHABUtagAudioCapParam@@H@Z 10021460 f   audiocapwav.obj
 0002:0001f620       ?PrepareCapBuffer@CAudioCapWav@@QAEHXZ 10021620 f   audiocapwav.obj
 0002:0001fa20       ??0CAudioCapWav@@QAE@XZ    10021a20 f   audiocapwav.obj
 0002:0001fbe0       ?SetPlayDriverInst@CAudioCapWav@@UAEXPAX@Z 10021be0 f i audiocapwav.obj
 0002:0001fc80       ?SetCapCallBack@CAudioCapWav@@UAEXP6AXPBEIEEIIHPAX@Z1@Z 10021c80 f i audiocapwav.obj
 0002:0001fd70       ??_GCAudioCapWav@@UAEPAXI@Z 10021d70 f i audiocapwav.obj
 0002:0001fd70       ??_ECAudioCapWav@@UAEPAXI@Z 10021d70 f i audiocapwav.obj
 0002:0001fdd0       ??1CAudioCapWav@@UAE@XZ    10021dd0 f   audiocapwav.obj
 0002:0001ff80       ?RealTaskProcess@CAudioCapWav@@UAEXI@Z 10021f80 f   audiocapwav.obj
 0002:000201c0       ?GetRecordingBufferDelay@CAudioCapWav@@QAEHAAI0@Z 100221c0 f   audiocapwav.obj
 0002:00020740       ?GetClockDrift@CAudioCapWav@@QAEHII@Z 10022740 f   audiocapwav.obj
 0002:000208d0       ?ReadOneBuffer@CAudioCapWav@@QAEIAA_JII@Z 100228d0 f   audiocapwav.obj
 0002:00020ee0       ?CreateWavInDevice@@YAPAVCAudioCapCom@@XZ 10022ee0 f   audiocapwav.obj
 0002:00020fa0       ??_ECAudioCapWav@@WCE@AEPAXI@Z 10022fa0 f i audiocapwav.obj
 0002:00020fc0       ?LoadCodecDll@CKdvMp3Codec@@SAXPBD@Z 10022fc0 f   audiocodec.obj
 0002:000215c0       ?UnloadCodecDll@CKdvMp3Codec@@SAXXZ 100235c0 f   audiocodec.obj
 0002:00021620       ??0CKdvMp3Codec@@QAE@XZ    10023620 f   audiocodec.obj
 0002:000217e0       ??0CAudioStreamCallback@@QAE@XZ 100237e0 f i audiocodec.obj
 0002:00021840       ??_ECAudioStreamCallback@@UAEPAXI@Z 10023840 f i audiocodec.obj
 0002:00021840       ??_GCAudioStreamCallback@@UAEPAXI@Z 10023840 f i audiocodec.obj
 0002:000218a0       ??0AudioPacketizationCallback@mediawrapper@@QAE@XZ 100238a0 f i audiocodec.obj
 0002:000218e0       ??_EAudioPacketizationCallback@mediawrapper@@UAEPAXI@Z 100238e0 f i audiocodec.obj
 0002:000218e0       ??_GAudioPacketizationCallback@mediawrapper@@UAEPAXI@Z 100238e0 f i audiocodec.obj
 0002:00021940       ??1AudioPacketizationCallback@mediawrapper@@UAE@XZ 10023940 f i audiocodec.obj
 0002:00021980       ??1CAudioStreamCallback@@UAE@XZ 10023980 f i audiocodec.obj
 0002:000219c0       ??_GCKdvMp3Codec@@UAEPAXI@Z 100239c0 f i audiocodec.obj
 0002:000219c0       ??_ECKdvMp3Codec@@UAEPAXI@Z 100239c0 f i audiocodec.obj
 0002:00021a20       ??1CKdvMp3Codec@@UAE@XZ    10023a20 f   audiocodec.obj
 0002:00021b70       ??_GCAudioCodecWrapper@@QAEPAXI@Z 10023b70 f i audiocodec.obj
 0002:00021be0       ?dllSetRatio@CKdvMp3Codec@@QAEHEHHAAH@Z 10023be0 f   audiocodec.obj
 0002:00022110       ?dllInit@CKdvMp3Codec@@QAEHHHEH@Z 10024110 f   audiocodec.obj
 0002:00022910       ?dllConvert@CKdvMp3Codec@@QAEHPBEHPAPAEAAH@Z 10024910 f   audiocodec.obj
 0002:00022d10       ?dllFree@CKdvMp3Codec@@QAEHXZ 10024d10 f   audiocodec.obj
 0002:00022f80       ?SetParam@CAudioStreamCallback@@QAEHPAX@Z 10024f80 f i audiocodec.obj
 0002:00022fc0       ?SetRatioOpus@CKdvMp3Codec@@QAEHEHHAAH@Z 10024fc0 f   audiocodec.obj
 0002:00023710       ?EncodeOpus@CKdvMp3Codec@@QAEHPBEH@Z 10025710 f   audiocodec.obj
 0002:000239e0       ?UpdateFrame@AudioFrame@mediawrapper@@QAEXHIPBFHHW4SpeechType@12@W4VADActivity@12@HI@Z 100259e0 f i audiocodec.obj
 0002:00023ac0       ?DecodeOpus@CKdvMp3Codec@@QAEHPAUtagAudDataStream@@@Z 10025ac0 f   audiocodec.obj
 0002:00023c50       ?SetAudioDecParam@CKdvMp3Codec@@QAEHII@Z 10025c50 f   audiocodec.obj
 0002:00023d20       ?CalcStatis@CKdvMp3Codec@@QAEXIAAI00@Z 10025d20 f   audiocodec.obj
 0002:00023f80       ?SendData@CAudioStreamCallback@@UAEHW4FrameType@mediawrapper@@EIPBEGPBVRTPFragmentationHeader@3@@Z 10025f80 f   audiocodec.obj
 0002:000241a0       _RegistAudEncoder          100261a0 f   audiocommand.obj
 0002:000241d0       _UnRegistAudEncoder        100261d0 f   audiocommand.obj
 0002:00024210       _RegistAudDecoder          10026210 f   audiocommand.obj
 0002:00024260       _UnRegistAudDecoder        10026260 f   audiocommand.obj
 0002:00024350       ?GetAudDecoderIndex@@YAHPAVCAudDecWrapper@@@Z 10026350 f   audiocommand.obj
 0002:00024430       _audthreadid               10026430 f   audiocommand.obj
 0002:00024630       ?GetThreadId@CAudEncWrapper@@QAEXAAI@Z 10026630 f i audiocommand.obj
 0002:00024670       ?GetThreadId@CAudDecWrapper@@QAEXAAI0@Z 10026670 f i audiocommand.obj
 0002:000246c0       _audthreadcpu              100266c0 f   audiocommand.obj
 0002:00024760       ?StartCalcThreadCpu@CAudEncWrapper@@QAEXH@Z 10026760 f i audiocommand.obj
 0002:000247a0       ?StartCalcThreadCpu@CAudDecWrapper@@QAEXH@Z 100267a0 f i audiocommand.obj
 0002:000247e0       _pGetInputAudioPowerCB     100267e0 f   audiocommand.obj
 0002:00024850       _pGetOutPutAudioPowerCB    10026850 f   audiocommand.obj
 0002:000248c0       _aenchelp                  100268c0 f   audiocommand.obj
 0002:00024de0       _adechelp                  10026de0 f   audiocommand.obj
 0002:00025300       _printallaudiodevice       10027300 f   audiocommand.obj
 0002:00025650       _getcuraudiodevice         10027650 f   audiocommand.obj
 0002:00025920       _testaudcap                10027920 f   audiocommand.obj
 0002:00025a70       _testaudplay               10027a70 f   audiocommand.obj
 0002:00025bc0       _adump                     10027bc0 f   audiocommand.obj
 0002:00025d40       _setsds                    10027d40 f   audiocommand.obj
 0002:00025d70       _printmode                 10027d70 f   audiocommand.obj
 0002:000262b0       _createaudencwrapper       100282b0 f   audiocommand.obj
 0002:000264a0       _destroyaudencwrapper      100284a0 f   audiocommand.obj
 0002:000265e0       _setaudmode                100285e0 f   audiocommand.obj
 0002:00026670       _startspe                  10028670 f   audiocommand.obj
 0002:000266f0       ?SetAudEnableSpe@CAudEncWrapper@@QAEGH@Z 100286f0 f i audiocommand.obj
 0002:00026730       _setencvol                 10028730 f   audiocommand.obj
 0002:000267b0       _getencvol                 100287b0 f   audiocommand.obj
 0002:00026860       _setsysvol                 10028860 f   audiocommand.obj
 0002:000268f0       _getsysvol                 100288f0 f   audiocommand.obj
 0002:000269b0       _setaudsendparam           100289b0 f   audiocommand.obj
 0002:00027070       _startaudsend              10029070 f   audiocommand.obj
 0002:00027120       _startaudcap               10029120 f   audiocommand.obj
 0002:000271b0       _startaudenc               100291b0 f   audiocommand.obj
 0002:00027230       _setaudnetband             10029230 f   audiocommand.obj
 0002:000272c0       _setaudresend              100292c0 f   audiocommand.obj
 0002:00027350       _selectaudcap              10029350 f   audiocommand.obj
 0002:000274e0       _setautogain               100294e0 f   audiocommand.obj
 0002:00027560       ?SetAudioCapAutoGain@CAudEncWrapper@@QAEXH@Z 10029560 f i audiocommand.obj
 0002:000275a0       _getautogain               100295a0 f   audiocommand.obj
 0002:00027690       ?GetAudioCapAutoGain@CAudEncWrapper@@QAEXAAH@Z 10029690 f i audiocommand.obj
 0002:000276d0       _saveaec                   100296d0 f   audiocommand.obj
 0002:00027720       _saveaenc                  10029720 f   audiocommand.obj
 0002:00027850       _setaencreve               10029850 f   audiocommand.obj
 0002:000278d0       _setaencmute               100298d0 f   audiocommand.obj
 0002:00027950       ?SetAudioMute@CKdvMp3Codec@@QAEXH@Z 10029950 f i audiocommand.obj
 0002:00027990       _captest                   10029990 f   audiocommand.obj
 0002:00027a10       _opensysaec                10029a10 f   audiocommand.obj
 0002:00027a60       _setaudencryptkey          10029a60 f   audiocommand.obj
 0002:00027b10       _setaudencpt               10029b10 f   audiocommand.obj
 0002:00027ba0       _setaudencfecenable        10029ba0 f   audiocommand.obj
 0002:00027c60       _createauddeccwrapper      10029c60 f   audiocommand.obj
 0002:00027e20       _destroyauddeccwrapper     10029e20 f   audiocommand.obj
 0002:00027fe0       _clearauddecbuf            10029fe0 f   audiocommand.obj
 0002:000280b0       _saveadec                  1002a0b0 f   audiocommand.obj
 0002:00028230       _setaudrecvparam           1002a230 f   audiocommand.obj
 0002:00028870       _startaudrecv              1002a870 f   audiocommand.obj
 0002:00028960       _startaudplay              1002a960 f   audiocommand.obj
 0002:00028a50       _startauddec               1002aa50 f   audiocommand.obj
 0002:00028b20       _selectaudplay             1002ab20 f   audiocommand.obj
 0002:00028cf0       _setauddecmode             1002acf0 f   audiocommand.obj
 0002:00028e20       _setaacchannel             1002ae20 f   audiocommand.obj
 0002:00028ef0       _setadecreve               1002aef0 f   audiocommand.obj
 0002:00028fc0       _setdecvol                 1002afc0 f   audiocommand.obj
 0002:00029090       _getdecvol                 1002b090 f   audiocommand.obj
 0002:000291d0       ?GetAudioVolume@CAudDecWrapper@@QAEXAAE@Z 1002b1d0 f i audiocommand.obj
 0002:00029210       _setdecsysvol              1002b210 f   audiocommand.obj
 0002:000292e0       _getdecsysvol              1002b2e0 f   audiocommand.obj
 0002:00029420       _setadecmute               1002b420 f   audiocommand.obj
 0002:000294f0       _plytest                   1002b4f0 f   audiocommand.obj
 0002:000295c0       _setauddecryptkey          1002b5c0 f   audiocommand.obj
 0002:00029760       _setauddecfecenable        1002b760 f   audiocommand.obj
 0002:00029870       _setradio                  1002b870 f   audiocommand.obj
 0002:00029940       _getradio                  1002b940 f   audiocommand.obj
 0002:00029a40       _setadecspelevel           1002ba40 f   audiocommand.obj
 0002:00029b10       _getadecspelevel           1002bb10 f   audiocommand.obj
 0002:00029c20       _setauddecpt               1002bc20 f   audiocommand.obj
 0002:00029cf0       _setzoominvol              1002bcf0 f   audiocommand.obj
 0002:00029d70       ?InitAudioDriverInst@@YAXXZ 1002bd70 f   audiocommand.obj
 0002:00029eb0       ?DeInitAudioDriverInst@@YAXXZ 1002beb0 f   audiocommand.obj
 0002:0002a200       ?begin@?$vector@PAVCAudDecWrapper@@V?$allocator@PAVCAudDecWrapper@@@std@@@std@@QAE?AV?$_Vector_iterator@V?$_Vector_val@PAVCAudDecWrapper@@V?$allocator@PAVCAudDecWrapper@@@std@@@std@@@2@XZ 1002c200 f i audiocommand.obj
 0002:0002a250       ?end@?$vector@PAVCAudDecWrapper@@V?$allocator@PAVCAudDecWrapper@@@std@@@std@@QAE?AV?$_Vector_iterator@V?$_Vector_val@PAVCAudDecWrapper@@V?$allocator@PAVCAudDecWrapper@@@std@@@std@@@2@XZ 1002c250 f i audiocommand.obj
 0002:0002a2a0       ?size@?$vector@PAVCAudDecWrapper@@V?$allocator@PAVCAudDecWrapper@@@std@@@std@@QBEIXZ 1002c2a0 f i audiocommand.obj
 0002:0002a2e0       ??A?$vector@PAVCAudDecWrapper@@V?$allocator@PAVCAudDecWrapper@@@std@@@std@@QAEAAPAVCAudDecWrapper@@I@Z 1002c2e0 f i audiocommand.obj
 0002:0002a320       ?push_back@?$vector@PAVCAudDecWrapper@@V?$allocator@PAVCAudDecWrapper@@@std@@@std@@QAEXABQAVCAudDecWrapper@@@Z 1002c320 f i audiocommand.obj
 0002:0002a450       ?erase@?$vector@PAVCAudDecWrapper@@V?$allocator@PAVCAudDecWrapper@@@std@@@std@@QAE?AV?$_Vector_iterator@V?$_Vector_val@PAVCAudDecWrapper@@V?$allocator@PAVCAudDecWrapper@@@std@@@std@@@2@V?$_Vector_const_iterator@V?$_Vector_val@PAVCAudDecWrapper@@V?$allocator@PAVCAudDecWrapper@@@std@@@std@@@2@@Z 1002c450 f i audiocommand.obj
 0002:0002a4e0       ??0?$_Vector_iterator@V?$_Vector_val@PAVCAudDecWrapper@@V?$allocator@PAVCAudDecWrapper@@@std@@@std@@@std@@QAE@XZ 1002c4e0 f i audiocommand.obj
 0002:0002a530       ??D?$_Vector_iterator@V?$_Vector_val@PAVCAudDecWrapper@@V?$allocator@PAVCAudDecWrapper@@@std@@@std@@@std@@QBEAAPAVCAudDecWrapper@@XZ 1002c530 f i audiocommand.obj
 0002:0002a570       ??E?$_Vector_iterator@V?$_Vector_val@PAVCAudDecWrapper@@V?$allocator@PAVCAudDecWrapper@@@std@@@std@@@std@@QAE?AV01@H@Z 1002c570 f i audiocommand.obj
 0002:0002a600       ??9?$_Vector_const_iterator@V?$_Vector_val@PAVCAudDecWrapper@@V?$allocator@PAVCAudDecWrapper@@@std@@@std@@@std@@QBE_NABV01@@Z 1002c600 f i audiocommand.obj
 0002:0002a650       ?_Make_iter@?$vector@PAVCAudDecWrapper@@V?$allocator@PAVCAudDecWrapper@@@std@@@std@@QBE?AV?$_Vector_iterator@V?$_Vector_val@PAVCAudDecWrapper@@V?$allocator@PAVCAudDecWrapper@@@std@@@std@@@2@V?$_Vector_const_iterator@V?$_Vector_val@PAVCAudDecWrapper@@V?$allocator@PAVCAudDecWrapper@@@std@@@std@@@2@@Z 1002c650 f i audiocommand.obj
 0002:0002a6a0       ?_Destroy@?$vector@PAVCAudDecWrapper@@V?$allocator@PAVCAudDecWrapper@@@std@@@std@@IAEXPAPAVCAudDecWrapper@@0@Z 1002c6a0 f i audiocommand.obj
 0002:0002a6f0       ?_Inside@?$vector@PAVCAudDecWrapper@@V?$allocator@PAVCAudDecWrapper@@@std@@@std@@IBE_NPBQAVCAudDecWrapper@@@Z 1002c6f0 f i audiocommand.obj
 0002:0002a750       ?_Reserve@?$vector@PAVCAudDecWrapper@@V?$allocator@PAVCAudDecWrapper@@@std@@@std@@IAEXI@Z 1002c750 f i audiocommand.obj
 0002:0002a7e0       ?_Orphan_range@?$vector@PAVCAudDecWrapper@@V?$allocator@PAVCAudDecWrapper@@@std@@@std@@IBEXPAPAVCAudDecWrapper@@0@Z 1002c7e0 f i audiocommand.obj
 0002:0002a810       ??0?$_Vector_iterator@V?$_Vector_val@PAVCAudDecWrapper@@V?$allocator@PAVCAudDecWrapper@@@std@@@std@@@std@@QAE@PAPAVCAudDecWrapper@@PBU_Container_base0@1@@Z 1002c810 f i audiocommand.obj
 0002:0002a860       ??E?$_Vector_iterator@V?$_Vector_val@PAVCAudDecWrapper@@V?$allocator@PAVCAudDecWrapper@@@std@@@std@@@std@@QAEAAV01@XZ 1002c860 f i audiocommand.obj
 0002:0002a8b0       ??0?$_Vector_const_iterator@V?$_Vector_val@PAVCAudDecWrapper@@V?$allocator@PAVCAudDecWrapper@@@std@@@std@@@std@@QAE@XZ 1002c8b0 f i audiocommand.obj
 0002:0002a8f0       ??D?$_Vector_const_iterator@V?$_Vector_val@PAVCAudDecWrapper@@V?$allocator@PAVCAudDecWrapper@@@std@@@std@@@std@@QBEABQAVCAudDecWrapper@@XZ 1002c8f0 f i audiocommand.obj
 0002:0002a930       ??8?$_Vector_const_iterator@V?$_Vector_val@PAVCAudDecWrapper@@V?$allocator@PAVCAudDecWrapper@@@std@@@std@@@std@@QBE_NABV01@@Z 1002c930 f i audiocommand.obj
 0002:0002a990       ?reserve@?$vector@PAVCAudDecWrapper@@V?$allocator@PAVCAudDecWrapper@@@std@@@std@@QAEXI@Z 1002c990 f i audiocommand.obj
 0002:0002ab10       ?capacity@?$vector@PAVCAudDecWrapper@@V?$allocator@PAVCAudDecWrapper@@@std@@@std@@QBEIXZ 1002cb10 f i audiocommand.obj
 0002:0002ab50       ?max_size@?$vector@PAVCAudDecWrapper@@V?$allocator@PAVCAudDecWrapper@@@std@@@std@@QBEIXZ 1002cb50 f i audiocommand.obj
 0002:0002aba0       ?_Grow_to@?$vector@PAVCAudDecWrapper@@V?$allocator@PAVCAudDecWrapper@@@std@@@std@@IBEII@Z 1002cba0 f i audiocommand.obj
 0002:0002ac30       ?_Xlen@?$vector@PAVCAudDecWrapper@@V?$allocator@PAVCAudDecWrapper@@@std@@@std@@IBEXXZ 1002cc30 f i audiocommand.obj
 0002:0002ac80       ?deallocate@?$allocator@PAVCAudDecWrapper@@@std@@QAEXPAPAVCAudDecWrapper@@I@Z 1002cc80 f i audiocommand.obj
 0002:0002acd0       ??0?$_Vector_const_iterator@V?$_Vector_val@PAVCAudDecWrapper@@V?$allocator@PAVCAudDecWrapper@@@std@@@std@@@std@@QAE@PAPAVCAudDecWrapper@@PBU_Container_base0@1@@Z 1002ccd0 f i audiocommand.obj
 0002:0002ad20       ?_Adopt@_Iterator_base0@std@@QAEXPBX@Z 1002cd20 f i audiocommand.obj
 0002:0002ad50       ??E?$_Vector_const_iterator@V?$_Vector_val@PAVCAudDecWrapper@@V?$allocator@PAVCAudDecWrapper@@@std@@@std@@@std@@QAEAAV01@XZ 1002cd50 f i audiocommand.obj
 0002:0002ad90       ?_Compat@?$_Vector_const_iterator@V?$_Vector_val@PAVCAudDecWrapper@@V?$allocator@PAVCAudDecWrapper@@@std@@@std@@@std@@QBEXABV12@@Z 1002cd90 f i audiocommand.obj
 0002:0002adc0       ?allocate@?$allocator@PAVCAudDecWrapper@@@std@@QAEPAPAVCAudDecWrapper@@I@Z 1002cdc0 f i audiocommand.obj
 0002:0002ae10       ?max_size@?$allocator@PAVCAudDecWrapper@@@std@@QBEIXZ 1002ce10 f i audiocommand.obj
 0002:0002ae70       ??$addressof@QAVCAudDecWrapper@@@std@@YAPBQAVCAudDecWrapper@@ABQAV1@@Z 1002ce70 f i audiocommand.obj
 0002:0002aea0       ??$_Cons_val@V?$allocator@PAVCAudDecWrapper@@@std@@PAVCAudDecWrapper@@AAPAV3@@std@@YAXAAV?$allocator@PAVCAudDecWrapper@@@0@PAPAVCAudDecWrapper@@AAPAV2@@Z 1002cea0 f i audiocommand.obj
 0002:0002aef0       ??$_Cons_val@V?$allocator@PAVCAudDecWrapper@@@std@@PAVCAudDecWrapper@@ABQAV3@@std@@YAXAAV?$allocator@PAVCAudDecWrapper@@@0@PAPAVCAudDecWrapper@@ABQAV2@@Z 1002cef0 f i audiocommand.obj
 0002:0002af40       ??$_Move@PAPAVCAudDecWrapper@@PAPAV1@@std@@YAPAPAVCAudDecWrapper@@PAPAV1@00@Z 1002cf40 f i audiocommand.obj
 0002:0002afb0       ??$_Destroy_range@V?$allocator@PAVCAudDecWrapper@@@std@@@std@@YAXPAPAVCAudDecWrapper@@0AAV?$allocator@PAVCAudDecWrapper@@@0@@Z 1002cfb0 f i audiocommand.obj
 0002:0002b020       ??$_Umove@PAPAVCAudDecWrapper@@@?$vector@PAVCAudDecWrapper@@V?$allocator@PAVCAudDecWrapper@@@std@@@std@@IAEPAPAVCAudDecWrapper@@PAPAV2@00@Z 1002d020 f i audiocommand.obj
 0002:0002b080       ??$_Allocate@PAVCAudDecWrapper@@@std@@YAPAPAVCAudDecWrapper@@IPAPAV1@@Z 1002d080 f i audiocommand.obj
 0002:0002b110       ?construct@?$allocator@PAVCAudDecWrapper@@@std@@QAEXPAPAVCAudDecWrapper@@ABQAV3@@Z 1002d110 f i audiocommand.obj
 0002:0002b160       ??$forward@AAPAVCAudDecWrapper@@@std@@YAAAPAVCAudDecWrapper@@AAPAV1@@Z 1002d160 f i audiocommand.obj
 0002:0002b190       ??$construct@AAPAVCAudDecWrapper@@@?$allocator@PAVCAudDecWrapper@@@std@@QAEXPAPAVCAudDecWrapper@@AAPAV2@@Z 1002d190 f i audiocommand.obj
 0002:0002b260       ??2@YAPAXIPAX@Z            1002d260 f i audiocommand.obj
 0002:0002b290       ??3@YAXPAX0@Z              1002d290 f i audiocommand.obj
 0002:0002b2c0       ??$forward@ABQAVCAudDecWrapper@@@std@@YAABQAVCAudDecWrapper@@ABQAV1@@Z 1002d2c0 f i audiocommand.obj
 0002:0002b2f0       ??$_Ptr_cat@PAVCAudDecWrapper@@PAV1@@std@@YA?AU_Scalar_ptr_iterator_tag@0@PAPAVCAudDecWrapper@@0@Z 1002d2f0 f i audiocommand.obj
 0002:0002b350       ??$_Move@PAPAVCAudDecWrapper@@PAPAV1@@std@@YAPAPAVCAudDecWrapper@@PAPAV1@00U_Scalar_ptr_iterator_tag@0@@Z 1002d350 f i audiocommand.obj
 0002:0002b3c0       ??$_Destroy_range@V?$allocator@PAVCAudDecWrapper@@@std@@@std@@YAXPAPAVCAudDecWrapper@@0AAV?$allocator@PAVCAudDecWrapper@@@0@U_Scalar_ptr_iterator_tag@0@@Z 1002d3c0 f i audiocommand.obj
 0002:0002b3f0       ??$_Uninitialized_move@PAPAVCAudDecWrapper@@PAPAV1@V?$allocator@PAVCAudDecWrapper@@@std@@@std@@YAPAPAVCAudDecWrapper@@PAPAV1@00AAV?$allocator@PAVCAudDecWrapper@@@0@@Z 1002d3f0 f i audiocommand.obj
 0002:0002b470       ??$_Construct@PAVCAudDecWrapper@@ABQAV1@@std@@YAXPAPAVCAudDecWrapper@@ABQAV1@@Z 1002d470 f i audiocommand.obj
 0002:0002b540       ??$_Val_type@PAPAVCAudDecWrapper@@@std@@YAPAPAVCAudDecWrapper@@PAPAV1@@Z 1002d540 f i audiocommand.obj
 0002:0002b570       ??$_Uninit_move@PAVCAudDecWrapper@@PAV1@PAV1@@std@@YAPAPAVCAudDecWrapper@@PAPAV1@00AAV?$allocator@PAVCAudDecWrapper@@@0@0U_Scalar_ptr_iterator_tag@0@@Z 1002d570 f i audiocommand.obj
 0002:0002b5e0       ??0?$vector@PAVCAudDecWrapper@@V?$allocator@PAVCAudDecWrapper@@@std@@@std@@QAE@XZ 1002d5e0 f i audiocommand.obj
 0002:0002b630       ??0?$_Vector_val@PAVCAudDecWrapper@@V?$allocator@PAVCAudDecWrapper@@@std@@@std@@QAE@V?$allocator@PAVCAudDecWrapper@@@1@@Z 1002d630 f i audiocommand.obj
 0002:0002b6a0       ??0?$allocator@PAVCAudDecWrapper@@@std@@QAE@XZ 1002d6a0 f i audiocommand.obj
 0002:0002b6d0       ??0?$allocator@PAVCAudDecWrapper@@@std@@QAE@ABV01@@Z 1002d6d0 f i audiocommand.obj
 0002:0002b700       ??1?$vector@PAVCAudDecWrapper@@V?$allocator@PAVCAudDecWrapper@@@std@@@std@@QAE@XZ 1002d700 f i audiocommand.obj
 0002:0002b780       ?_Tidy@?$vector@PAVCAudDecWrapper@@V?$allocator@PAVCAudDecWrapper@@@std@@@std@@IAEXXZ 1002d780 f i audiocommand.obj
 0002:0002b830       ??1?$_Vector_val@PAVCAudDecWrapper@@V?$allocator@PAVCAudDecWrapper@@@std@@@std@@QAE@XZ 1002d830 f i audiocommand.obj
 0002:0002b860       ?GetAudLenPerFrame@@YAII@Z 1002d860 f   audiocommon.obj
 0002:0002b900       ?GetPcmHeadFromMode@@YAHEAAUtagAudioPram@@@Z 1002d900 f   audiocommon.obj
 0002:0002b970       ?AudioModeToMediaType@@YAEE@Z 1002d970 f   audiocommon.obj
 0002:0002baf0       ?GetAudioModeName@@YAPADE@Z 1002daf0 f   audiocommon.obj
 0002:0002bcf0       ?MediaTypeToAudioMode@@YAXEAAE@Z 1002dcf0 f   audiocommon.obj
 0002:0002bef0       ?AudioCap16Bit32kTo8kTrans@@YAXPAX0HH@Z 1002def0 f   audiocommon.obj
 0002:0002c0a0       ?TestPlayCallback@@YAXIEEIPAEPAX@Z 1002e0a0 f   audiodeviceman.obj
 0002:0002c120       ?TestCapCallback@@YAXPBEIEEIIHPAX@Z 1002e120 f   audiodeviceman.obj
 0002:0002c1a0       ?GetSingletonPtr@CAudioDeviceMan@@SAPAV1@XZ 1002e1a0 f   audiodeviceman.obj
 0002:0002c1d0       ?GetSingleton@CAudioDeviceMan@@SAAAV1@XZ 1002e1d0 f   audiodeviceman.obj
 0002:0002c200       ??0CAudioDeviceMan@@QAE@XZ 1002e200 f   audiodeviceman.obj
 0002:0002c2c0       ??_ECAudioDeviceMan@@UAEPAXI@Z 1002e2c0 f i audiodeviceman.obj
 0002:0002c2c0       ??_GCAudioDeviceMan@@UAEPAXI@Z 1002e2c0 f i audiodeviceman.obj
 0002:0002c320       ??1CAudioDeviceMan@@UAE@XZ 1002e320 f   audiodeviceman.obj
 0002:0002c3c0       ?Init@CAudioDeviceMan@@QAEGW4ENAUDIOAPI@@@Z 1002e3c0 f   audiodeviceman.obj
 0002:0002c550       ?DestroyAll@CAudioDeviceMan@@QAEGXZ 1002e550 f   audiodeviceman.obj
 0002:0002c7d0       ?DestroyPlay@CAudioDeviceMan@@QAEGI@Z 1002e7d0 f   audiodeviceman.obj
 0002:0002c950       ?RefeshPlay@CAudioDeviceMan@@QAEGAAV?$vector@UtagAudioDevNameInfo@@V?$allocator@UtagAudioDevNameInfo@@@std@@@std@@AAI@Z 1002e950 f   audiodeviceman.obj
 0002:0002cc20       ?SelectCapDevice@CAudioDeviceMan@@QAEGPAUtagAudioDevNameInfo@@ABUtagAudioCapParam@@@Z 1002ec20 f   audiodeviceman.obj
 0002:0002cf70       ?GetCaptureParam@CAudioCapCom@@QAEXAAUtagAudioCapParam@@@Z 1002ef70 f i audiodeviceman.obj
 0002:0002cfe0       ?SelectPlayDevice@CAudioDeviceMan@@QAEGPAUtagAudioDevNameInfo@@ABUtagAudioPlayParam@@@Z 1002efe0 f   audiodeviceman.obj
 0002:0002d3f0       ?GetPlayParam@CAudioPlayCom@@QAEXAAUtagAudioPlayParam@@@Z 1002f3f0 f i audiodeviceman.obj
 0002:0002d450       ?StartPlayout@CAudioDeviceMan@@QAEGIH@Z 1002f450 f   audiodeviceman.obj
 0002:0002d590       ?IsPlaying@CAudioDeviceMan@@QBEHI@Z 1002f590 f   audiodeviceman.obj
 0002:0002d690       ?IsPlaying@CAudioPlayCom@@QAEHXZ 1002f690 f i audiodeviceman.obj
 0002:0002d6c0       ?StartCapture@CAudioDeviceMan@@QAEGH@Z 1002f6c0 f   audiodeviceman.obj
 0002:0002d770       ?IsCapturing@CAudioDeviceMan@@QBEHXZ 1002f770 f   audiodeviceman.obj
 0002:0002d7f0       ?RefeshCap@CAudioDeviceMan@@QAEGAAV?$vector@UtagAudioDevNameInfo@@V?$allocator@UtagAudioDevNameInfo@@@std@@@std@@AAI@Z 1002f7f0 f   audiodeviceman.obj
 0002:0002da80       ?GetAudioCapParam@CAudioDeviceMan@@QAEGAAUtagAudioCapParam@@@Z 1002fa80 f   audiodeviceman.obj
 0002:0002db10       ?GetAudioPlayParam@CAudioDeviceMan@@QAEGAAUtagAudioPlayParam@@@Z 1002fb10 f   audiodeviceman.obj
 0002:0002dba0       ?SetAudioPlayCallBack@CAudioDeviceMan@@QAEGP6AXIEEIPAEPAX@Z1@Z 1002fba0 f   audiodeviceman.obj
 0002:0002dc40       ?SetAudioCapCallBack@CAudioDeviceMan@@QAEGP6AXPBEIEEIIHPAX@Z1@Z 1002fc40 f   audiodeviceman.obj
 0002:0002dce0       ?OpenSysAEC@CAudioDeviceMan@@QAEGH@Z 1002fce0 f   audiodeviceman.obj
 0002:0002dec0       ?CreateAudioPlayExt@CAudioDeviceMan@@QAEGP6AXIEEIPAEPAX@Z1@Z 1002fec0 f   audiodeviceman.obj
 0002:0002e000       ?SynDefaultAudioPlayChanges@CAudioDeviceMan@@QAEGXZ 10030000 f   audiodeviceman.obj
 0002:0002e290       ?empty@?$basic_string@_WU?$char_traits@_W@std@@V?$allocator@_W@2@@std@@QBE_NXZ 10030290 f i audiodeviceman.obj
 0002:0002e2d0       ?compare@?$basic_string@_WU?$char_traits@_W@std@@V?$allocator@_W@2@@std@@QBEHABV12@@Z 100302d0 f i audiodeviceman.obj
 0002:0002e330       ??0?$Singleton@VCAudioDeviceMan@@@@QAE@XZ 10030330 f i audiodeviceman.obj
 0002:0002e390       ??1?$Singleton@VCAudioDeviceMan@@@@QAE@XZ 10030390 f i audiodeviceman.obj
 0002:0002e3d0       ??0?$vector@PAVCAudioPlayCom@@V?$allocator@PAVCAudioPlayCom@@@std@@@std@@QAE@XZ 100303d0 f i audiodeviceman.obj
 0002:0002e420       ??1?$vector@PAVCAudioPlayCom@@V?$allocator@PAVCAudioPlayCom@@@std@@@std@@QAE@XZ 10030420 f i audiodeviceman.obj
 0002:0002e4a0       ?begin@?$vector@PAVCAudioPlayCom@@V?$allocator@PAVCAudioPlayCom@@@std@@@std@@QAE?AV?$_Vector_iterator@V?$_Vector_val@PAVCAudioPlayCom@@V?$allocator@PAVCAudioPlayCom@@@std@@@std@@@2@XZ 100304a0 f i audiodeviceman.obj
 0002:0002e4f0       ?size@?$vector@PAVCAudioPlayCom@@V?$allocator@PAVCAudioPlayCom@@@std@@@std@@QBEIXZ 100304f0 f i audiodeviceman.obj
 0002:0002e530       ??A?$vector@PAVCAudioPlayCom@@V?$allocator@PAVCAudioPlayCom@@@std@@@std@@QBEABQAVCAudioPlayCom@@I@Z 10030530 f i audiodeviceman.obj
 0002:0002e570       ??A?$vector@PAVCAudioPlayCom@@V?$allocator@PAVCAudioPlayCom@@@std@@@std@@QAEAAPAVCAudioPlayCom@@I@Z 10030570 f i audiodeviceman.obj
 0002:0002e5b0       ?push_back@?$vector@PAVCAudioPlayCom@@V?$allocator@PAVCAudioPlayCom@@@std@@@std@@QAEXABQAVCAudioPlayCom@@@Z 100305b0 f i audiodeviceman.obj
 0002:0002e6e0       ?erase@?$vector@PAVCAudioPlayCom@@V?$allocator@PAVCAudioPlayCom@@@std@@@std@@QAE?AV?$_Vector_iterator@V?$_Vector_val@PAVCAudioPlayCom@@V?$allocator@PAVCAudioPlayCom@@@std@@@std@@@2@V?$_Vector_const_iterator@V?$_Vector_val@PAVCAudioPlayCom@@V?$allocator@PAVCAudioPlayCom@@@std@@@std@@@2@@Z 100306e0 f i audiodeviceman.obj
 0002:0002e770       ?clear@?$vector@PAVCAudioPlayCom@@V?$allocator@PAVCAudioPlayCom@@@std@@@std@@QAEXXZ 10030770 f i audiodeviceman.obj
 0002:0002e800       ??H?$_Vector_iterator@V?$_Vector_val@PAVCAudioPlayCom@@V?$allocator@PAVCAudioPlayCom@@@std@@@std@@@std@@QBE?AV01@H@Z 10030800 f i audiodeviceman.obj
 0002:0002e890       ??G?$_Vector_iterator@V?$_Vector_val@PAVCAudioPlayCom@@V?$allocator@PAVCAudioPlayCom@@@std@@@std@@@std@@QBE?AV01@H@Z 10030890 f i audiodeviceman.obj
 0002:0002e920       ?push_back@?$vector@UtagAudioDevNameInfo@@V?$allocator@UtagAudioDevNameInfo@@@std@@@std@@QAEXABUtagAudioDevNameInfo@@@Z 10030920 f i audiodeviceman.obj
 0002:0002ea50       ?clear@?$vector@UtagAudioDevNameInfo@@V?$allocator@UtagAudioDevNameInfo@@@std@@@std@@QAEXXZ 10030a50 f i audiodeviceman.obj
 0002:0002eae0       ?end@?$vector@PAVCAudioPlayCom@@V?$allocator@PAVCAudioPlayCom@@@std@@@std@@QAE?AV?$_Vector_iterator@V?$_Vector_val@PAVCAudioPlayCom@@V?$allocator@PAVCAudioPlayCom@@@std@@@std@@@2@XZ 10030ae0 f i audiodeviceman.obj
 0002:0002eb30       ?_Make_iter@?$vector@PAVCAudioPlayCom@@V?$allocator@PAVCAudioPlayCom@@@std@@@std@@QBE?AV?$_Vector_iterator@V?$_Vector_val@PAVCAudioPlayCom@@V?$allocator@PAVCAudioPlayCom@@@std@@@std@@@2@V?$_Vector_const_iterator@V?$_Vector_val@PAVCAudioPlayCom@@V?$allocator@PAVCAudioPlayCom@@@std@@@std@@@2@@Z 10030b30 f i audiodeviceman.obj
 0002:0002eb80       ?erase@?$vector@PAVCAudioPlayCom@@V?$allocator@PAVCAudioPlayCom@@@std@@@std@@QAE?AV?$_Vector_iterator@V?$_Vector_val@PAVCAudioPlayCom@@V?$allocator@PAVCAudioPlayCom@@@std@@@std@@@2@V?$_Vector_const_iterator@V?$_Vector_val@PAVCAudioPlayCom@@V?$allocator@PAVCAudioPlayCom@@@std@@@std@@@2@0@Z 10030b80 f i audiodeviceman.obj
 0002:0002ec90       ?_Destroy@?$vector@PAVCAudioPlayCom@@V?$allocator@PAVCAudioPlayCom@@@std@@@std@@IAEXPAPAVCAudioPlayCom@@0@Z 10030c90 f i audiodeviceman.obj
 0002:0002ece0       ?_Inside@?$vector@PAVCAudioPlayCom@@V?$allocator@PAVCAudioPlayCom@@@std@@@std@@IBE_NPBQAVCAudioPlayCom@@@Z 10030ce0 f i audiodeviceman.obj
 0002:0002ed40       ?_Reserve@?$vector@PAVCAudioPlayCom@@V?$allocator@PAVCAudioPlayCom@@@std@@@std@@IAEXI@Z 10030d40 f i audiodeviceman.obj
 0002:0002edd0       ?_Tidy@?$vector@PAVCAudioPlayCom@@V?$allocator@PAVCAudioPlayCom@@@std@@@std@@IAEXXZ 10030dd0 f i audiodeviceman.obj
 0002:0002ee80       ?_Orphan_range@?$vector@PAVCAudioPlayCom@@V?$allocator@PAVCAudioPlayCom@@@std@@@std@@IBEXPAPAVCAudioPlayCom@@0@Z 10030e80 f i audiodeviceman.obj
 0002:0002eeb0       ??0?$_Vector_val@PAVCAudioPlayCom@@V?$allocator@PAVCAudioPlayCom@@@std@@@std@@QAE@V?$allocator@PAVCAudioPlayCom@@@1@@Z 10030eb0 f i audiodeviceman.obj
 0002:0002ef20       ??1?$_Vector_val@PAVCAudioPlayCom@@V?$allocator@PAVCAudioPlayCom@@@std@@@std@@QAE@XZ 10030f20 f i audiodeviceman.obj
 0002:0002ef50       ??0?$allocator@PAVCAudioPlayCom@@@std@@QAE@XZ 10030f50 f i audiodeviceman.obj
 0002:0002ef80       ??0?$_Vector_iterator@V?$_Vector_val@PAVCAudioPlayCom@@V?$allocator@PAVCAudioPlayCom@@@std@@@std@@@std@@QAE@PAPAVCAudioPlayCom@@PBU_Container_base0@1@@Z 10030f80 f i audiodeviceman.obj
 0002:0002efd0       ??Y?$_Vector_iterator@V?$_Vector_val@PAVCAudioPlayCom@@V?$allocator@PAVCAudioPlayCom@@@std@@@std@@@std@@QAEAAV01@H@Z 10030fd0 f i audiodeviceman.obj
 0002:0002f020       ??Z?$_Vector_iterator@V?$_Vector_val@PAVCAudioPlayCom@@V?$allocator@PAVCAudioPlayCom@@@std@@@std@@@std@@QAEAAV01@H@Z 10031020 f i audiodeviceman.obj
 0002:0002f070       ?begin@?$vector@UtagAudioDevNameInfo@@V?$allocator@UtagAudioDevNameInfo@@@std@@@std@@QAE?AV?$_Vector_iterator@V?$_Vector_val@UtagAudioDevNameInfo@@V?$allocator@UtagAudioDevNameInfo@@@std@@@std@@@2@XZ 10031070 f i audiodeviceman.obj
 0002:0002f0c0       ?end@?$vector@UtagAudioDevNameInfo@@V?$allocator@UtagAudioDevNameInfo@@@std@@@std@@QAE?AV?$_Vector_iterator@V?$_Vector_val@UtagAudioDevNameInfo@@V?$allocator@UtagAudioDevNameInfo@@@std@@@std@@@2@XZ 100310c0 f i audiodeviceman.obj
 0002:0002f110       ?erase@?$vector@UtagAudioDevNameInfo@@V?$allocator@UtagAudioDevNameInfo@@@std@@@std@@QAE?AV?$_Vector_iterator@V?$_Vector_val@UtagAudioDevNameInfo@@V?$allocator@UtagAudioDevNameInfo@@@std@@@std@@@2@V?$_Vector_const_iterator@V?$_Vector_val@UtagAudioDevNameInfo@@V?$allocator@UtagAudioDevNameInfo@@@std@@@std@@@2@0@Z 10031110 f i audiodeviceman.obj
 0002:0002f220       ?_Inside@?$vector@UtagAudioDevNameInfo@@V?$allocator@UtagAudioDevNameInfo@@@std@@@std@@IBE_NPBUtagAudioDevNameInfo@@@Z 10031220 f i audiodeviceman.obj
 0002:0002f280       ?_Reserve@?$vector@UtagAudioDevNameInfo@@V?$allocator@UtagAudioDevNameInfo@@@std@@@std@@IAEXI@Z 10031280 f i audiodeviceman.obj
 0002:0002f310       ?_Orphan_range@?$vector@UtagAudioDevNameInfo@@V?$allocator@UtagAudioDevNameInfo@@@std@@@std@@IBEXPAUtagAudioDevNameInfo@@0@Z 10031310 f i audiodeviceman.obj
 0002:0002f340       ?reserve@?$vector@PAVCAudioPlayCom@@V?$allocator@PAVCAudioPlayCom@@@std@@@std@@QAEXI@Z 10031340 f i audiodeviceman.obj
 0002:0002f4c0       ?capacity@?$vector@PAVCAudioPlayCom@@V?$allocator@PAVCAudioPlayCom@@@std@@@std@@QBEIXZ 100314c0 f i audiodeviceman.obj
 0002:0002f500       ?max_size@?$vector@PAVCAudioPlayCom@@V?$allocator@PAVCAudioPlayCom@@@std@@@std@@QBEIXZ 10031500 f i audiodeviceman.obj
 0002:0002f550       ?_Grow_to@?$vector@PAVCAudioPlayCom@@V?$allocator@PAVCAudioPlayCom@@@std@@@std@@IBEII@Z 10031550 f i audiodeviceman.obj
 0002:0002f5e0       ?_Xlen@?$vector@PAVCAudioPlayCom@@V?$allocator@PAVCAudioPlayCom@@@std@@@std@@IBEXXZ 100315e0 f i audiodeviceman.obj
 0002:0002f630       ??0?$allocator@PAVCAudioPlayCom@@@std@@QAE@ABV01@@Z 10031630 f i audiodeviceman.obj
 0002:0002f660       ?deallocate@?$allocator@PAVCAudioPlayCom@@@std@@QAEXPAPAVCAudioPlayCom@@I@Z 10031660 f i audiodeviceman.obj
 0002:0002f6b0       ??0?$_Vector_const_iterator@V?$_Vector_val@PAVCAudioPlayCom@@V?$allocator@PAVCAudioPlayCom@@@std@@@std@@@std@@QAE@PAPAVCAudioPlayCom@@PBU_Container_base0@1@@Z 100316b0 f i audiodeviceman.obj
 0002:0002f700       ??Y?$_Vector_const_iterator@V?$_Vector_val@PAVCAudioPlayCom@@V?$allocator@PAVCAudioPlayCom@@@std@@@std@@@std@@QAEAAV01@H@Z 10031700 f i audiodeviceman.obj
 0002:0002f740       ??9?$_Vector_const_iterator@V?$_Vector_val@PAVCAudioPlayCom@@V?$allocator@PAVCAudioPlayCom@@@std@@@std@@@std@@QBE_NABV01@@Z 10031740 f i audiodeviceman.obj
 0002:0002f790       ?reserve@?$vector@UtagAudioDevNameInfo@@V?$allocator@UtagAudioDevNameInfo@@@std@@@std@@QAEXI@Z 10031790 f i audiodeviceman.obj
 0002:0002f910       ?capacity@?$vector@UtagAudioDevNameInfo@@V?$allocator@UtagAudioDevNameInfo@@@std@@@std@@QBEIXZ 10031910 f i audiodeviceman.obj
 0002:0002f950       ?_Make_iter@?$vector@UtagAudioDevNameInfo@@V?$allocator@UtagAudioDevNameInfo@@@std@@@std@@QBE?AV?$_Vector_iterator@V?$_Vector_val@UtagAudioDevNameInfo@@V?$allocator@UtagAudioDevNameInfo@@@std@@@std@@@2@V?$_Vector_const_iterator@V?$_Vector_val@UtagAudioDevNameInfo@@V?$allocator@UtagAudioDevNameInfo@@@std@@@std@@@2@@Z 10031950 f i audiodeviceman.obj
 0002:0002f9a0       ?size@?$vector@UtagAudioDevNameInfo@@V?$allocator@UtagAudioDevNameInfo@@@std@@@std@@QBEIXZ 100319a0 f i audiodeviceman.obj
 0002:0002f9e0       ?max_size@?$vector@UtagAudioDevNameInfo@@V?$allocator@UtagAudioDevNameInfo@@@std@@@std@@QBEIXZ 100319e0 f i audiodeviceman.obj
 0002:0002fa30       ?_Grow_to@?$vector@UtagAudioDevNameInfo@@V?$allocator@UtagAudioDevNameInfo@@@std@@@std@@IBEII@Z 10031a30 f i audiodeviceman.obj
 0002:0002fac0       ?_Xlen@?$vector@UtagAudioDevNameInfo@@V?$allocator@UtagAudioDevNameInfo@@@std@@@std@@IBEXXZ 10031ac0 f i audiodeviceman.obj
 0002:0002fb10       ??0?$_Vector_iterator@V?$_Vector_val@UtagAudioDevNameInfo@@V?$allocator@UtagAudioDevNameInfo@@@std@@@std@@@std@@QAE@PAUtagAudioDevNameInfo@@PBU_Container_base0@1@@Z 10031b10 f i audiodeviceman.obj
 0002:0002fb60       ??9?$_Vector_const_iterator@V?$_Vector_val@UtagAudioDevNameInfo@@V?$allocator@UtagAudioDevNameInfo@@@std@@@std@@@std@@QBE_NABV01@@Z 10031b60 f i audiodeviceman.obj
 0002:0002fbb0       ?allocate@?$allocator@PAVCAudioPlayCom@@@std@@QAEPAPAVCAudioPlayCom@@I@Z 10031bb0 f i audiodeviceman.obj
 0002:0002fc00       ?max_size@?$allocator@PAVCAudioPlayCom@@@std@@QBEIXZ 10031c00 f i audiodeviceman.obj
 0002:0002fc60       ??8?$_Vector_const_iterator@V?$_Vector_val@PAVCAudioPlayCom@@V?$allocator@PAVCAudioPlayCom@@@std@@@std@@@std@@QBE_NABV01@@Z 10031c60 f i audiodeviceman.obj
 0002:0002fcc0       ?allocate@?$allocator@UtagAudioDevNameInfo@@@std@@QAEPAUtagAudioDevNameInfo@@I@Z 10031cc0 f i audiodeviceman.obj
 0002:0002fd10       ?max_size@?$allocator@UtagAudioDevNameInfo@@@std@@QBEIXZ 10031d10 f i audiodeviceman.obj
 0002:0002fd70       ??0?$_Vector_const_iterator@V?$_Vector_val@UtagAudioDevNameInfo@@V?$allocator@UtagAudioDevNameInfo@@@std@@@std@@@std@@QAE@PAUtagAudioDevNameInfo@@PBU_Container_base0@1@@Z 10031d70 f i audiodeviceman.obj
 0002:0002fdc0       ??8?$_Vector_const_iterator@V?$_Vector_val@UtagAudioDevNameInfo@@V?$allocator@UtagAudioDevNameInfo@@@std@@@std@@@std@@QBE_NABV01@@Z 10031dc0 f i audiodeviceman.obj
 0002:0002fe20       ?_Compat@?$_Vector_const_iterator@V?$_Vector_val@PAVCAudioPlayCom@@V?$allocator@PAVCAudioPlayCom@@@std@@@std@@@std@@QBEXABV12@@Z 10031e20 f i audiodeviceman.obj
 0002:0002fe50       ?_Compat@?$_Vector_const_iterator@V?$_Vector_val@UtagAudioDevNameInfo@@V?$allocator@UtagAudioDevNameInfo@@@std@@@std@@@std@@QBEXABV12@@Z 10031e50 f i audiodeviceman.obj
 0002:0002fe80       ??$addressof@QAVCAudioPlayCom@@@std@@YAPBQAVCAudioPlayCom@@ABQAV1@@Z 10031e80 f i audiodeviceman.obj
 0002:0002feb0       ??$_Cons_val@V?$allocator@PAVCAudioPlayCom@@@std@@PAVCAudioPlayCom@@AAPAV3@@std@@YAXAAV?$allocator@PAVCAudioPlayCom@@@0@PAPAVCAudioPlayCom@@AAPAV2@@Z 10031eb0 f i audiodeviceman.obj
 0002:0002ff00       ??$_Cons_val@V?$allocator@PAVCAudioPlayCom@@@std@@PAVCAudioPlayCom@@ABQAV3@@std@@YAXAAV?$allocator@PAVCAudioPlayCom@@@0@PAPAVCAudioPlayCom@@ABQAV2@@Z 10031f00 f i audiodeviceman.obj
 0002:0002ff50       ??$_Move@PAPAVCAudioPlayCom@@PAPAV1@@std@@YAPAPAVCAudioPlayCom@@PAPAV1@00@Z 10031f50 f i audiodeviceman.obj
 0002:0002ffc0       ??$addressof@$$CBUtagAudioDevNameInfo@@@std@@YAPBUtagAudioDevNameInfo@@ABU1@@Z 10031fc0 f i audiodeviceman.obj
 0002:0002fff0       ??$_Cons_val@V?$allocator@UtagAudioDevNameInfo@@@std@@UtagAudioDevNameInfo@@AAU3@@std@@YAXAAV?$allocator@UtagAudioDevNameInfo@@@0@PAUtagAudioDevNameInfo@@AAU2@@Z 10031ff0 f i audiodeviceman.obj
 0002:00030040       ??$_Cons_val@V?$allocator@UtagAudioDevNameInfo@@@std@@UtagAudioDevNameInfo@@ABU3@@std@@YAXAAV?$allocator@UtagAudioDevNameInfo@@@0@PAUtagAudioDevNameInfo@@ABU2@@Z 10032040 f i audiodeviceman.obj
 0002:00030090       ??$_Destroy_range@V?$allocator@PAVCAudioPlayCom@@@std@@@std@@YAXPAPAVCAudioPlayCom@@0AAV?$allocator@PAVCAudioPlayCom@@@0@@Z 10032090 f i audiodeviceman.obj
 0002:00030100       ??$_Move@PAUtagAudioDevNameInfo@@PAU1@@std@@YAPAUtagAudioDevNameInfo@@PAU1@00@Z 10032100 f i audiodeviceman.obj
 0002:00030170       ??$_Umove@PAPAVCAudioPlayCom@@@?$vector@PAVCAudioPlayCom@@V?$allocator@PAVCAudioPlayCom@@@std@@@std@@IAEPAPAVCAudioPlayCom@@PAPAV2@00@Z 10032170 f i audiodeviceman.obj
 0002:000301d0       ??$_Umove@PAUtagAudioDevNameInfo@@@?$vector@UtagAudioDevNameInfo@@V?$allocator@UtagAudioDevNameInfo@@@std@@@std@@IAEPAUtagAudioDevNameInfo@@PAU2@00@Z 100321d0 f i audiodeviceman.obj
 0002:00030230       ??$_Allocate@PAVCAudioPlayCom@@@std@@YAPAPAVCAudioPlayCom@@IPAPAV1@@Z 10032230 f i audiodeviceman.obj
 0002:000302c0       ??$_Allocate@UtagAudioDevNameInfo@@@std@@YAPAUtagAudioDevNameInfo@@IPAU1@@Z 100322c0 f i audiodeviceman.obj
 0002:00030350       ?construct@?$allocator@PAVCAudioPlayCom@@@std@@QAEXPAPAVCAudioPlayCom@@ABQAV3@@Z 10032350 f i audiodeviceman.obj
 0002:000303a0       ?construct@?$allocator@UtagAudioDevNameInfo@@@std@@QAEXPAUtagAudioDevNameInfo@@ABU3@@Z 100323a0 f i audiodeviceman.obj
 0002:000303f0       ??$forward@AAPAVCAudioPlayCom@@@std@@YAAAPAVCAudioPlayCom@@AAPAV1@@Z 100323f0 f i audiodeviceman.obj
 0002:00030420       ??$construct@AAPAVCAudioPlayCom@@@?$allocator@PAVCAudioPlayCom@@@std@@QAEXPAPAVCAudioPlayCom@@AAPAV2@@Z 10032420 f i audiodeviceman.obj
 0002:000304f0       ??$forward@ABQAVCAudioPlayCom@@@std@@YAABQAVCAudioPlayCom@@ABQAV1@@Z 100324f0 f i audiodeviceman.obj
 0002:00030520       ??$_Ptr_cat@PAVCAudioPlayCom@@PAV1@@std@@YA?AU_Scalar_ptr_iterator_tag@0@PAPAVCAudioPlayCom@@0@Z 10032520 f i audiodeviceman.obj
 0002:00030580       ??$_Move@PAPAVCAudioPlayCom@@PAPAV1@@std@@YAPAPAVCAudioPlayCom@@PAPAV1@00U_Scalar_ptr_iterator_tag@0@@Z 10032580 f i audiodeviceman.obj
 0002:000305f0       ??$forward@AAUtagAudioDevNameInfo@@@std@@YAAAUtagAudioDevNameInfo@@AAU1@@Z 100325f0 f i audiodeviceman.obj
 0002:00030620       ??$construct@AAUtagAudioDevNameInfo@@@?$allocator@UtagAudioDevNameInfo@@@std@@QAEXPAUtagAudioDevNameInfo@@AAU2@@Z 10032620 f i audiodeviceman.obj
 0002:000306f0       ??$forward@ABUtagAudioDevNameInfo@@@std@@YAABUtagAudioDevNameInfo@@ABU1@@Z 100326f0 f i audiodeviceman.obj
 0002:00030720       ??$_Destroy_range@V?$allocator@PAVCAudioPlayCom@@@std@@@std@@YAXPAPAVCAudioPlayCom@@0AAV?$allocator@PAVCAudioPlayCom@@@0@U_Scalar_ptr_iterator_tag@0@@Z 10032720 f i audiodeviceman.obj
 0002:00030750       ??$_Move@PAUtagAudioDevNameInfo@@PAU1@@std@@YAPAUtagAudioDevNameInfo@@PAU1@00U_Nonscalar_ptr_iterator_tag@0@@Z 10032750 f i audiodeviceman.obj
 0002:000307c0       ??$_Uninitialized_move@PAPAVCAudioPlayCom@@PAPAV1@V?$allocator@PAVCAudioPlayCom@@@std@@@std@@YAPAPAVCAudioPlayCom@@PAPAV1@00AAV?$allocator@PAVCAudioPlayCom@@@0@@Z 100327c0 f i audiodeviceman.obj
 0002:00030840       ??$_Uninitialized_move@PAUtagAudioDevNameInfo@@PAU1@V?$allocator@UtagAudioDevNameInfo@@@std@@@std@@YAPAUtagAudioDevNameInfo@@PAU1@00AAV?$allocator@UtagAudioDevNameInfo@@@0@@Z 10032840 f i audiodeviceman.obj
 0002:000308c0       ??$_Construct@PAVCAudioPlayCom@@ABQAV1@@std@@YAXPAPAVCAudioPlayCom@@ABQAV1@@Z 100328c0 f i audiodeviceman.obj
 0002:00030990       ??$_Construct@UtagAudioDevNameInfo@@ABU1@@std@@YAXPAUtagAudioDevNameInfo@@ABU1@@Z 10032990 f i audiodeviceman.obj
 0002:00030a60       ??0tagAudioDevNameInfo@@QAE@ABU0@@Z 10032a60 f i audiodeviceman.obj
 0002:00030b00       ??0?$basic_string@_WU?$char_traits@_W@std@@V?$allocator@_W@2@@std@@QAE@ABV01@@Z 10032b00 f i audiodeviceman.obj
 0002:00030bc0       ??$move@AAUtagAudioDevNameInfo@@@std@@YA$$QAUtagAudioDevNameInfo@@AAU1@@Z 10032bc0 f i audiodeviceman.obj
 0002:00030bf0       ??$_Val_type@PAPAVCAudioPlayCom@@@std@@YAPAPAVCAudioPlayCom@@PAPAV1@@Z 10032bf0 f i audiodeviceman.obj
 0002:00030c20       ??$_Uninit_move@PAVCAudioPlayCom@@PAV1@PAV1@@std@@YAPAPAVCAudioPlayCom@@PAPAV1@00AAV?$allocator@PAVCAudioPlayCom@@@0@0U_Scalar_ptr_iterator_tag@0@@Z 10032c20 f i audiodeviceman.obj
 0002:00030c90       ??$_Val_type@PAUtagAudioDevNameInfo@@@std@@YAPAUtagAudioDevNameInfo@@PAU1@@Z 10032c90 f i audiodeviceman.obj
 0002:00030cc0       ??$_Uninit_move@PAUtagAudioDevNameInfo@@PAU1@V?$allocator@UtagAudioDevNameInfo@@@std@@U1@@std@@YAPAUtagAudioDevNameInfo@@PAU1@00AAV?$allocator@UtagAudioDevNameInfo@@@0@0U_Nonscalar_ptr_iterator_tag@0@@Z 10032cc0 f i audiodeviceman.obj
 0002:00030db0       ??$_Cons_val@V?$allocator@UtagAudioDevNameInfo@@@std@@UtagAudioDevNameInfo@@U3@@std@@YAXAAV?$allocator@UtagAudioDevNameInfo@@@0@PAUtagAudioDevNameInfo@@$$QAU2@@Z 10032db0 f i audiodeviceman.obj
 0002:00030e00       ?construct@?$allocator@UtagAudioDevNameInfo@@@std@@QAEXPAUtagAudioDevNameInfo@@$$QAU3@@Z 10032e00 f i audiodeviceman.obj
 0002:00030ed0       ??$forward@UtagAudioDevNameInfo@@@std@@YA$$QAUtagAudioDevNameInfo@@AAU1@@Z 10032ed0 f i audiodeviceman.obj
 0002:00030f00       ?DestroyAudioDecoder@CKdvDecoder@@IAEXXZ 10032f00 f   audiointerfaceimp.obj
 0002:00030fb0       ?InitialAudioDecoder@CKdvDecoder@@QAEGABUtagInitAudDecoder@@@Z 10032fb0 f   audiointerfaceimp.obj
 0002:000311b0       ?SelectAudioPlayDev@CKdvDecoder@@QAEGPB_W0@Z 100331b0 f   audiointerfaceimp.obj
 0002:00031350       ?GetCurAudPlyDev@CKdvDecoder@@QAEGAAUTDevNameInfo@@@Z 10033350 f   audiointerfaceimp.obj
 0002:000313e0       ?SetAudioSoftVolume@CKdvDecoder@@QAEGE@Z 100333e0 f   audiointerfaceimp.obj
 0002:000314f0       ?GetAudioSoftVolume@CKdvDecoder@@QAEGAAE@Z 100334f0 f   audiointerfaceimp.obj
 0002:00031580       ?SetAudioVolume@CKdvDecoder@@QAEGE@Z 10033580 f   audiointerfaceimp.obj
 0002:000316a0       ?GetAudioVolume@CKdvDecoder@@QAEGAAE@Z 100336a0 f   audiointerfaceimp.obj
 0002:00031740       ?SetAudioMute@CKdvDecoder@@QAEGH@Z 10033740 f   audiointerfaceimp.obj
 0002:00031890       ?GetAudioMute@CKdvDecoder@@QAEGAAH@Z 10033890 f   audiointerfaceimp.obj
 0002:00031920       ?IsMute@CKdvMp3Codec@@QAEHXZ 10033920 f i audiointerfaceimp.obj
 0002:00031950       ?SetAudioDecType@CKdvDecoder@@QAEGEI@Z 10033950 f   audiointerfaceimp.obj
 0002:00031a80       ?StartAudioDec@CKdvDecoder@@QAEGXZ 10033a80 f   audiointerfaceimp.obj
 0002:00031bd0       ?StopAudioDec@CKdvDecoder@@QAEGXZ 10033bd0 f   audiointerfaceimp.obj
 0002:00031cf0       ?SetAudioCallBack@CKdvDecoder@@QAEGP6AXEPBEHI@ZI@Z 10033cf0 f   audiointerfaceimp.obj
 0002:00031e10       ?SetAudioDecPCMCallBack@CKdvDecoder@@QAEGP6AXPAEHIIII@ZI@Z 10033e10 f   audiointerfaceimp.obj
 0002:00031f30       ?SetOutputAudioPowerCB@CKdvDecoder@@QAEGP6AXEI@ZI@Z 10033f30 f   audiointerfaceimp.obj
 0002:00032050       ?SetAudioDecParam@CKdvDecoder@@QAEGII@Z 10034050 f   audiointerfaceimp.obj
 0002:00032180       ?SetAuditoPlyTest@CKdvDecoder@@QAEGH@Z 10034180 f   audiointerfaceimp.obj
 0002:000322e0       ?SetAudioActivePT@CKdvDecoder@@QAEGEE@Z 100342e0 f   audiointerfaceimp.obj
 0002:00032410       ?SetAudioActivePT@CKdvDecoder@@QAEGUtagMapSet@@@Z 10034410 f   audiointerfaceimp.obj
 0002:00032570       ?SetAudDecryptKey@CKdvDecoder@@QAEGPADGE@Z 10034570 f   audiointerfaceimp.obj
 0002:00032690       ?SetAudioNetRcvParam@CKdvDecoder@@QAEGPBUtagMnetNetParam@@@Z 10034690 f   audiointerfaceimp.obj
 0002:000328d0       ?RemoveAudioNetRcvLocalParam@CKdvDecoder@@QAEGXZ 100348d0 f   audiointerfaceimp.obj
 0002:000329e0       ?SetAudioRcvId@CKdvDecoder@@QAEGPBDII@Z 100349e0 f   audiointerfaceimp.obj
 0002:00032b00       ?GetAudioRcvId@CKdvDecoder@@QAEGPADPAI1@Z 10034b00 f   audiointerfaceimp.obj
 0002:00032ba0       ?AudioRcvEnableKeepAlive@CKdvDecoder@@QAEGHPBUtagMnetNetParam@@@Z 10034ba0 f   audiointerfaceimp.obj
 0002:00032d00       ?SetAudioRtcpStatus@CKdvDecoder@@QAEGW4RTCPSTATUS@@@Z 10034d00 f   audiointerfaceimp.obj
 0002:00032e20       ?GetAudDecoderStatus@CKdvDecoder@@QAEGAAUKdvDecStatus@@@Z 10034e20 f   audiointerfaceimp.obj
 0002:00032eb0       ?GetAudDecoderStatis@CKdvDecoder@@QAEGAAUKdvDecStatis@@@Z 10034eb0 f   audiointerfaceimp.obj
 0002:00032f40       ?StartRcvAudio@CKdvDecoder@@QAEGXZ 10034f40 f   audiointerfaceimp.obj
 0002:00033050       ?StopRcvAudio@CKdvDecoder@@QAEGXZ 10035050 f   audiointerfaceimp.obj
 0002:00033160       ?SetAudDecDblSend@CKdvDecoder@@QAEGPBUtagMnetNetParam@@@Z 10035160 f   audiointerfaceimp.obj
 0002:00033190       ?SetReverseG7221c@CKdvDecoder@@QAEGH@Z 10035190 f   audiointerfaceimp.obj
 0002:000332f0       ?SetNetFeedbackAudioParam@CKdvDecoder@@QAEGH@Z 100352f0 f   audiointerfaceimp.obj
 0002:00033450       ?SetAudFecEnable@CKdvDecoder@@QAEGH@Z 10035450 f   audiointerfaceimp.obj
 0002:000335b0       ?SetAudEnableCrypt@CKdvDecoder@@QAEGHPATTMnetCryptCfg@@@Z 100355b0 f   audiointerfaceimp.obj
 0002:00033710       ?SetAudMnetCryptCfgInit@CKdvDecoder@@QAEGPATTMnetCryptCfg@@H@Z 10035710 f   audiointerfaceimp.obj
 0002:000337b0       ?SetAudMnetCryptCfgSetCipherAlgorithm@CKdvDecoder@@QAEGPATTMnetCryptCfg@@W4TMnetCryptDataType@@W4TMnetCryptAlgoType@@@Z 100357b0 f   audiointerfaceimp.obj
 0002:00033850       ?SetAudMnetCryptCfgSetAuthAlgorithm@CKdvDecoder@@QAEGPATTMnetCryptCfg@@W4TMnetCryptDataType@@W4TMnetCryptAlgoType@@@Z 10035850 f   audiointerfaceimp.obj
 0002:000338f0       ?SetAudMnetCryptCfgSetMasterKey@CKdvDecoder@@QAEGPATTMnetCryptCfg@@W4TMnetCryptDataType@@W4TMnetCryptKeyType@@GPAEW4TMnetCrypKeyLen@@4@Z 100358f0 f   audiointerfaceimp.obj
 0002:000339a0       ?SetAudMnetCryptCfgSetCipherKey@CKdvDecoder@@QAEGPATTMnetCryptCfg@@W4TMnetCryptDataType@@GPAE@Z 100359a0 f   audiointerfaceimp.obj
 0002:00033a40       ?SetAudMnetCryptCfgSetAuthKey@CKdvDecoder@@QAEGPATTMnetCryptCfg@@W4TMnetCryptDataType@@GPAE@Z 10035a40 f   audiointerfaceimp.obj
 0002:00033ae0       ?SetAudMnetCryptCfgSetPkt@CKdvDecoder@@QAEGPATTMnetCryptCfg@@W4TMnetCryptDataType@@W4TMnetCryptPktType@@@Z 10035ae0 f   audiointerfaceimp.obj
 0002:00033b80       ?SetAudMnetCryptCfgSetAuthTag@CKdvDecoder@@QAEGPATTMnetCryptCfg@@W4TMnetCryptDataType@@W4TMnetCryptTagLen@@@Z 10035b80 f   audiointerfaceimp.obj
 0002:00033c20       ?SetVoiceCheck@CKdvEncoder@@QAEGHPBUtagVoiceCheck@@@Z 10035c20 f   audiointerfaceimp.obj
 0002:00033cd0       ?StartAudioCap@CKdvEncoder@@QAEGXZ 10035cd0 f   audiointerfaceimp.obj
 0002:00033e00       ?StopAudioCap@CKdvEncoder@@QAEGXZ 10035e00 f   audiointerfaceimp.obj
 0002:00033f00       ?StartAudioEnc@CKdvEncoder@@QAEGXZ 10035f00 f   audiointerfaceimp.obj
 0002:00033fe0       ?StopAudioEnc@CKdvEncoder@@QAEGXZ 10035fe0 f   audiointerfaceimp.obj
 0002:000340a0       ?SetAudioEncParam@CKdvEncoder@@QAEGEG@Z 100360a0 f   audiointerfaceimp.obj
 0002:000341b0       ?GetAudioEncParam@CKdvEncoder@@QAEGAAEAAG@Z 100361b0 f   audiointerfaceimp.obj
 0002:00034250       ?SetAudioCallBack@CKdvEncoder@@QAEGP6AXEPBEHI@ZI@Z 10036250 f   audiointerfaceimp.obj
 0002:00034360       ?SetAudioCapCallBack@CKdvEncoder@@QAEGP6AXPAX@ZI@Z 10036360 f   audiointerfaceimp.obj
 0002:00034410       ?SetAudioCaptureDeviceChangeCB@CKdvEncoder@@QAEGP6AXIABV?$vector@UTDevNameInfo@@V?$allocator@UTDevNameInfo@@@std@@@std@@0@ZI@Z 10036410 f   audiointerfaceimp.obj
 0002:00034510       ?SetInputAudioPowerCB@CKdvEncoder@@QAEGP6AXEI@ZI@Z 10036510 f   audiointerfaceimp.obj
 0002:00034620       ?GetAudioMute@CKdvEncoder@@QAEGAAH@Z 10036620 f   audiointerfaceimp.obj
 0002:000346b0       ?SetAudioMute@CKdvEncoder@@QAEGH@Z 100366b0 f   audiointerfaceimp.obj
 0002:00034790       ?SetAudioCapAutoGain@CKdvEncoder@@QAEGH@Z 10036790 f   audiointerfaceimp.obj
 0002:00034870       ?GetAudioCapAutoGain@CKdvEncoder@@QAEGAAH@Z 10036870 f   audiointerfaceimp.obj
 0002:00034900       ?SetAudioSoftVolume@CKdvEncoder@@QAEGE@Z 10036900 f   audiointerfaceimp.obj
 0002:000349c0       ?SetAudioVolume@CKdvEncoder@@QAEGE@Z 100369c0 f   audiointerfaceimp.obj
 0002:00034ac0       ?GetAudioSoftVolume@CKdvEncoder@@QAEGAAE@Z 10036ac0 f   audiointerfaceimp.obj
 0002:00034b50       ?GetAudioVolume@CKdvEncoder@@QAEGAAE@Z 10036b50 f   audiointerfaceimp.obj
 0002:00034bf0       ?SetNetFeedbackAudioParam@CKdvEncoder@@QAEGGH@Z 10036bf0 f   audiointerfaceimp.obj
 0002:00034d40       ?DestroyAudioEncoder@CKdvEncoder@@IAEXXZ 10036d40 f   audiointerfaceimp.obj
 0002:00034de0       ?InitialAudioEncoder@CKdvEncoder@@QAEGABUtagInitAudEncoder@@@Z 10036de0 f   audiointerfaceimp.obj
 0002:00034fe0       ?SelectAudioSource@CKdvEncoder@@QAEGPB_W0@Z 10036fe0 f   audiointerfaceimp.obj
 0002:00035150       ?GetCurAudCapDev@CKdvEncoder@@QAEGAAUTDevNameInfo@@@Z 10037150 f   audiointerfaceimp.obj
 0002:000351e0       ?RefreshAudCapDevList@CKdvEncoder@@QAEXAAV?$vector@UTDevNameInfo@@V?$allocator@UTDevNameInfo@@@std@@@std@@AAI@Z 100371e0 f   audiointerfaceimp.obj
 0002:000353e0       ?SetNetAudioResend@CKdvEncoder@@QAEGH@Z 100373e0 f   audiointerfaceimp.obj
 0002:00035530       ?SetAudNetSndBand@CKdvEncoder@@QAEGI@Z 10037530 f   audiointerfaceimp.obj
 0002:00035640       ?SetNetSndAudioParam@CKdvEncoder@@QAEGPBUtagMnetNetParam@@@Z 10037640 f   audiointerfaceimp.obj
 0002:00035850       ?RemoveAudioNetSndLocalParam@CKdvEncoder@@QAEGXZ 10037850 f   audiointerfaceimp.obj
 0002:00035950       ?SetAudioSendId@CKdvEncoder@@QAEGPBDII@Z 10037950 f   audiointerfaceimp.obj
 0002:00035a60       ?GetAudioSendId@CKdvEncoder@@QAEGPADPAI1@Z 10037a60 f   audiointerfaceimp.obj
 0002:00035b00       ?AudioSendEnableKeepAlive@CKdvEncoder@@QAEGHPBUtagMnetNetParam@@@Z 10037b00 f   audiointerfaceimp.obj
 0002:00035c50       ?AudioEnableRtpExStrip@CKdvEncoder@@QAEGH@Z 10037c50 f   audiointerfaceimp.obj
 0002:00035da0       ?SetAudioRtcpStatus@CKdvEncoder@@QAEGW4RTCPSTATUS@@@Z 10037da0 f   audiointerfaceimp.obj
 0002:00035ea0       ?StartSendAudio@CKdvEncoder@@QAEGH@Z 10037ea0 f   audiointerfaceimp.obj
 0002:00035fa0       ?StopSendAudio@CKdvEncoder@@QAEGXZ 10037fa0 f   audiointerfaceimp.obj
 0002:000360a0       ?SetAudFecEnable@CKdvEncoder@@QAEGH@Z 100380a0 f   audiointerfaceimp.obj
 0002:000361f0       ?SetAudFecPackLen@CKdvEncoder@@QAEGG@Z 100381f0 f   audiointerfaceimp.obj
 0002:00036300       ?SetAudFecIntraFrame@CKdvEncoder@@QAEGH@Z 10038300 f   audiointerfaceimp.obj
 0002:00036450       ?SetAudFecMode@CKdvEncoder@@QAEGE@Z 10038450 f   audiointerfaceimp.obj
 0002:00036560       ?SetAudFecXY@CKdvEncoder@@QAEGHH@Z 10038560 f   audiointerfaceimp.obj
 0002:00036600       ?SetAudioActivePT@CKdvEncoder@@QAEGEE@Z 10038600 f   audiointerfaceimp.obj
 0002:00036720       ?SetAudEncryptKey@CKdvEncoder@@QAEGPADGE@Z 10038720 f   audiointerfaceimp.obj
 0002:00036830       ?SetReverseG7221c@CKdvEncoder@@QAEGH@Z 10038830 f   audiointerfaceimp.obj
 0002:00036980       ?StartDeskSharedAud@CKdvEncoder@@QAEGXZ 10038980 f   audiointerfaceimp.obj
 0002:00036a00       ?StopDeskSharedAud@CKdvEncoder@@QAEGXZ 10038a00 f   audiointerfaceimp.obj
 0002:00036a80       ?SetAudZoominVol@CKdvEncoder@@QAEGM@Z 10038a80 f   audiointerfaceimp.obj
 0002:00036b10       ?SetDeskSharedAudCallback@CKdvEncoder@@QAEGP6AXPAXI@ZI@Z 10038b10 f   audiointerfaceimp.obj
 0002:00036ba0       ?SetAudCapErrorCallback@CKdvEncoder@@QAEGP6AXHH@ZH@Z 10038ba0 f   audiointerfaceimp.obj
 0002:00036c30       ?RefreshPlayDevList@CKdvDecoder@@QAEXAAV?$vector@UTDevNameInfo@@V?$allocator@UTDevNameInfo@@@std@@@std@@AAI@Z 10038c30 f   audiointerfaceimp.obj
 0002:00036e30       ?SetAudioCapTest@CKdvEncoder@@QAEGH@Z 10038e30 f   audiointerfaceimp.obj
 0002:00036f80       ?SetAudEnableCrypt@CKdvEncoder@@QAEGHPATTMnetCryptCfg@@@Z 10038f80 f   audiointerfaceimp.obj
 0002:000370d0       ?SetAudMnetCryptCfgInit@CKdvEncoder@@QAEGPATTMnetCryptCfg@@H@Z 100390d0 f   audiointerfaceimp.obj
 0002:00037170       ?SetAudMnetCryptCfgSetCipherAlgorithm@CKdvEncoder@@QAEGPATTMnetCryptCfg@@W4TMnetCryptDataType@@W4TMnetCryptAlgoType@@@Z 10039170 f   audiointerfaceimp.obj
 0002:00037210       ?SetAudMnetCryptCfgSetAuthAlgorithm@CKdvEncoder@@QAEGPATTMnetCryptCfg@@W4TMnetCryptDataType@@W4TMnetCryptAlgoType@@@Z 10039210 f   audiointerfaceimp.obj
 0002:000372b0       ?SetAudMnetCryptCfgSetMasterKey@CKdvEncoder@@QAEGPATTMnetCryptCfg@@W4TMnetCryptDataType@@W4TMnetCryptKeyType@@GPAEW4TMnetCrypKeyLen@@4@Z 100392b0 f   audiointerfaceimp.obj
 0002:00037360       ?SetAudMnetCryptCfgSetCipherKey@CKdvEncoder@@QAEGPATTMnetCryptCfg@@W4TMnetCryptDataType@@GPAE@Z 10039360 f   audiointerfaceimp.obj
 0002:00037400       ?SetAudMnetCryptCfgSetAuthKey@CKdvEncoder@@QAEGPATTMnetCryptCfg@@W4TMnetCryptDataType@@GPAE@Z 10039400 f   audiointerfaceimp.obj
 0002:000374a0       ?SetAudMnetCryptCfgSetPkt@CKdvEncoder@@QAEGPATTMnetCryptCfg@@W4TMnetCryptDataType@@W4TMnetCryptPktType@@@Z 100394a0 f   audiointerfaceimp.obj
 0002:00037540       ?SetAudMnetCryptCfgSetAuthTag@CKdvEncoder@@QAEGPATTMnetCryptCfg@@W4TMnetCryptDataType@@W4TMnetCryptTagLen@@@Z 10039540 f   audiointerfaceimp.obj
 0002:000375e0       ?_Copy_s@?$basic_string@_WU?$char_traits@_W@std@@V?$allocator@_W@2@@std@@QBEIPA_WIII@Z 100395e0 f i audiointerfaceimp.obj
 0002:00037670       ?_Copy_s@?$char_traits@_W@std@@SAPA_WPA_WIPB_WI@Z 10039670 f i audiointerfaceimp.obj
 0002:000376c0       ?push_back@?$vector@UTDevNameInfo@@V?$allocator@UTDevNameInfo@@@std@@@std@@QAEXABUTDevNameInfo@@@Z 100396c0 f i audiointerfaceimp.obj
 0002:000377f0       ?clear@?$vector@UTDevNameInfo@@V?$allocator@UTDevNameInfo@@@std@@@std@@QAEXXZ 100397f0 f i audiointerfaceimp.obj
 0002:00037880       ?begin@?$vector@UTDevNameInfo@@V?$allocator@UTDevNameInfo@@@std@@@std@@QAE?AV?$_Vector_iterator@V?$_Vector_val@UTDevNameInfo@@V?$allocator@UTDevNameInfo@@@std@@@std@@@2@XZ 10039880 f i audiointerfaceimp.obj
 0002:000378d0       ?end@?$vector@UTDevNameInfo@@V?$allocator@UTDevNameInfo@@@std@@@std@@QAE?AV?$_Vector_iterator@V?$_Vector_val@UTDevNameInfo@@V?$allocator@UTDevNameInfo@@@std@@@std@@@2@XZ 100398d0 f i audiointerfaceimp.obj
 0002:00037920       ?erase@?$vector@UTDevNameInfo@@V?$allocator@UTDevNameInfo@@@std@@@std@@QAE?AV?$_Vector_iterator@V?$_Vector_val@UTDevNameInfo@@V?$allocator@UTDevNameInfo@@@std@@@std@@@2@V?$_Vector_const_iterator@V?$_Vector_val@UTDevNameInfo@@V?$allocator@UTDevNameInfo@@@std@@@std@@@2@0@Z 10039920 f i audiointerfaceimp.obj
 0002:00037a30       ?_Inside@?$vector@UTDevNameInfo@@V?$allocator@UTDevNameInfo@@@std@@@std@@IBE_NPBUTDevNameInfo@@@Z 10039a30 f i audiointerfaceimp.obj
 0002:00037a90       ?_Reserve@?$vector@UTDevNameInfo@@V?$allocator@UTDevNameInfo@@@std@@@std@@IAEXI@Z 10039a90 f i audiointerfaceimp.obj
 0002:00037b20       ?_Orphan_range@?$vector@UTDevNameInfo@@V?$allocator@UTDevNameInfo@@@std@@@std@@IBEXPAUTDevNameInfo@@0@Z 10039b20 f i audiointerfaceimp.obj
 0002:00037b50       ?reserve@?$vector@UTDevNameInfo@@V?$allocator@UTDevNameInfo@@@std@@@std@@QAEXI@Z 10039b50 f i audiointerfaceimp.obj
 0002:00037cd0       ?capacity@?$vector@UTDevNameInfo@@V?$allocator@UTDevNameInfo@@@std@@@std@@QBEIXZ 10039cd0 f i audiointerfaceimp.obj
 0002:00037d10       ?_Make_iter@?$vector@UTDevNameInfo@@V?$allocator@UTDevNameInfo@@@std@@@std@@QBE?AV?$_Vector_iterator@V?$_Vector_val@UTDevNameInfo@@V?$allocator@UTDevNameInfo@@@std@@@std@@@2@V?$_Vector_const_iterator@V?$_Vector_val@UTDevNameInfo@@V?$allocator@UTDevNameInfo@@@std@@@std@@@2@@Z 10039d10 f i audiointerfaceimp.obj
 0002:00037d60       ?size@?$vector@UTDevNameInfo@@V?$allocator@UTDevNameInfo@@@std@@@std@@QBEIXZ 10039d60 f i audiointerfaceimp.obj
 0002:00037da0       ?max_size@?$vector@UTDevNameInfo@@V?$allocator@UTDevNameInfo@@@std@@@std@@QBEIXZ 10039da0 f i audiointerfaceimp.obj
 0002:00037df0       ?_Destroy@?$vector@UTDevNameInfo@@V?$allocator@UTDevNameInfo@@@std@@@std@@IAEXPAUTDevNameInfo@@0@Z 10039df0 f i audiointerfaceimp.obj
 0002:00037e40       ?_Grow_to@?$vector@UTDevNameInfo@@V?$allocator@UTDevNameInfo@@@std@@@std@@IBEII@Z 10039e40 f i audiointerfaceimp.obj
 0002:00037ed0       ?_Xlen@?$vector@UTDevNameInfo@@V?$allocator@UTDevNameInfo@@@std@@@std@@IBEXXZ 10039ed0 f i audiointerfaceimp.obj
 0002:00037f20       ??0?$_Vector_iterator@V?$_Vector_val@UTDevNameInfo@@V?$allocator@UTDevNameInfo@@@std@@@std@@@std@@QAE@PAUTDevNameInfo@@PBU_Container_base0@1@@Z 10039f20 f i audiointerfaceimp.obj
 0002:00037f70       ??9?$_Vector_const_iterator@V?$_Vector_val@UTDevNameInfo@@V?$allocator@UTDevNameInfo@@@std@@@std@@@std@@QBE_NABV01@@Z 10039f70 f i audiointerfaceimp.obj
 0002:00037fc0       ?deallocate@?$allocator@UTDevNameInfo@@@std@@QAEXPAUTDevNameInfo@@I@Z 10039fc0 f i audiointerfaceimp.obj
 0002:00038010       ?allocate@?$allocator@UTDevNameInfo@@@std@@QAEPAUTDevNameInfo@@I@Z 1003a010 f i audiointerfaceimp.obj
 0002:00038060       ?max_size@?$allocator@UTDevNameInfo@@@std@@QBEIXZ 1003a060 f i audiointerfaceimp.obj
 0002:000380c0       ??0?$_Vector_const_iterator@V?$_Vector_val@UTDevNameInfo@@V?$allocator@UTDevNameInfo@@@std@@@std@@@std@@QAE@PAUTDevNameInfo@@PBU_Container_base0@1@@Z 1003a0c0 f i audiointerfaceimp.obj
 0002:00038110       ??8?$_Vector_const_iterator@V?$_Vector_val@UTDevNameInfo@@V?$allocator@UTDevNameInfo@@@std@@@std@@@std@@QBE_NABV01@@Z 1003a110 f i audiointerfaceimp.obj
 0002:00038170       ?_Compat@?$_Vector_const_iterator@V?$_Vector_val@UTDevNameInfo@@V?$allocator@UTDevNameInfo@@@std@@@std@@@std@@QBEXABV12@@Z 1003a170 f i audiointerfaceimp.obj
 0002:000381a0       ??$addressof@$$CBUTDevNameInfo@@@std@@YAPBUTDevNameInfo@@ABU1@@Z 1003a1a0 f i audiointerfaceimp.obj
 0002:000381d0       ??$_Cons_val@V?$allocator@UTDevNameInfo@@@std@@UTDevNameInfo@@AAU3@@std@@YAXAAV?$allocator@UTDevNameInfo@@@0@PAUTDevNameInfo@@AAU2@@Z 1003a1d0 f i audiointerfaceimp.obj
 0002:00038220       ??$_Cons_val@V?$allocator@UTDevNameInfo@@@std@@UTDevNameInfo@@ABU3@@std@@YAXAAV?$allocator@UTDevNameInfo@@@0@PAUTDevNameInfo@@ABU2@@Z 1003a220 f i audiointerfaceimp.obj
 0002:00038270       ??$_Move@PAUTDevNameInfo@@PAU1@@std@@YAPAUTDevNameInfo@@PAU1@00@Z 1003a270 f i audiointerfaceimp.obj
 0002:000382e0       ??$_Umove@PAUTDevNameInfo@@@?$vector@UTDevNameInfo@@V?$allocator@UTDevNameInfo@@@std@@@std@@IAEPAUTDevNameInfo@@PAU2@00@Z 1003a2e0 f i audiointerfaceimp.obj
 0002:00038340       ??$_Destroy_range@V?$allocator@UTDevNameInfo@@@std@@@std@@YAXPAUTDevNameInfo@@0AAV?$allocator@UTDevNameInfo@@@0@@Z 1003a340 f i audiointerfaceimp.obj
 0002:000383b0       ??$_Allocate@UTDevNameInfo@@@std@@YAPAUTDevNameInfo@@IPAU1@@Z 1003a3b0 f i audiointerfaceimp.obj
 0002:00038440       ?construct@?$allocator@UTDevNameInfo@@@std@@QAEXPAUTDevNameInfo@@ABU3@@Z 1003a440 f i audiointerfaceimp.obj
 0002:00038490       ??$forward@AAUTDevNameInfo@@@std@@YAAAUTDevNameInfo@@AAU1@@Z 1003a490 f i audiointerfaceimp.obj
 0002:000384c0       ??$construct@AAUTDevNameInfo@@@?$allocator@UTDevNameInfo@@@std@@QAEXPAUTDevNameInfo@@AAU2@@Z 1003a4c0 f i audiointerfaceimp.obj
 0002:00038590       ??$forward@ABUTDevNameInfo@@@std@@YAABUTDevNameInfo@@ABU1@@Z 1003a590 f i audiointerfaceimp.obj
 0002:000385c0       ??$_Ptr_cat@UTDevNameInfo@@U1@@std@@YA?AU_Nonscalar_ptr_iterator_tag@0@PAUTDevNameInfo@@0@Z 1003a5c0 f i audiointerfaceimp.obj
 0002:00038620       ??$_Move@PAUTDevNameInfo@@PAU1@@std@@YAPAUTDevNameInfo@@PAU1@00U_Nonscalar_ptr_iterator_tag@0@@Z 1003a620 f i audiointerfaceimp.obj
 0002:00038690       ??$_Uninitialized_move@PAUTDevNameInfo@@PAU1@V?$allocator@UTDevNameInfo@@@std@@@std@@YAPAUTDevNameInfo@@PAU1@00AAV?$allocator@UTDevNameInfo@@@0@@Z 1003a690 f i audiointerfaceimp.obj
 0002:00038710       ??$_Destroy_range@V?$allocator@UTDevNameInfo@@@std@@@std@@YAXPAUTDevNameInfo@@0AAV?$allocator@UTDevNameInfo@@@0@U_Nonscalar_ptr_iterator_tag@0@@Z 1003a710 f i audiointerfaceimp.obj
 0002:00038770       ??$_Construct@UTDevNameInfo@@ABU1@@std@@YAXPAUTDevNameInfo@@ABU1@@Z 1003a770 f i audiointerfaceimp.obj
 0002:00038840       ??$move@AAUTDevNameInfo@@@std@@YA$$QAUTDevNameInfo@@AAU1@@Z 1003a840 f i audiointerfaceimp.obj
 0002:00038870       ??$_Val_type@PAUTDevNameInfo@@@std@@YAPAUTDevNameInfo@@PAU1@@Z 1003a870 f i audiointerfaceimp.obj
 0002:000388a0       ??$_Uninit_move@PAUTDevNameInfo@@PAU1@V?$allocator@UTDevNameInfo@@@std@@U1@@std@@YAPAUTDevNameInfo@@PAU1@00AAV?$allocator@UTDevNameInfo@@@0@0U_Nonscalar_ptr_iterator_tag@0@@Z 1003a8a0 f i audiointerfaceimp.obj
 0002:00038990       ??$_Dest_val@V?$allocator@UTDevNameInfo@@@std@@UTDevNameInfo@@@std@@YAXAAV?$allocator@UTDevNameInfo@@@0@PAUTDevNameInfo@@@Z 1003a990 f i audiointerfaceimp.obj
 0002:000389d0       ?destroy@?$allocator@UTDevNameInfo@@@std@@QAEXPAUTDevNameInfo@@@Z 1003a9d0 f i audiointerfaceimp.obj
 0002:00038a20       ??$_Cons_val@V?$allocator@UTDevNameInfo@@@std@@UTDevNameInfo@@U3@@std@@YAXAAV?$allocator@UTDevNameInfo@@@0@PAUTDevNameInfo@@$$QAU2@@Z 1003aa20 f i audiointerfaceimp.obj
 0002:00038a70       ??$_Destroy@UTDevNameInfo@@@std@@YAXPAUTDevNameInfo@@@Z 1003aa70 f i audiointerfaceimp.obj
 0002:00038aa0       ?construct@?$allocator@UTDevNameInfo@@@std@@QAEXPAUTDevNameInfo@@$$QAU3@@Z 1003aaa0 f i audiointerfaceimp.obj
 0002:00038b70       ??$forward@UTDevNameInfo@@@std@@YA$$QAUTDevNameInfo@@AAU1@@Z 1003ab70 f i audiointerfaceimp.obj
 0002:00038ba0       ?SetPlayParam@CAudioPlayWasapi@@UAEHABUtagAudioPlayParam@@@Z 1003aba0 f   audioplaywasapi.obj
 0002:00038ed0       ?GetAudDevideName@@YAIPAUIMMDeviceCollection@@GQA_W1@Z 1003aed0 f   audioplaywasapi.obj
 0002:000391a0       ?GetNumAudDevice@@YAIEPAUIMMDeviceEnumerator@@@Z 1003b1a0 f   audioplaywasapi.obj
 0002:000393d0       ?GetNumPlayDevices@CAudioPlayWasapi@@UAEIXZ 1003b3d0 f   audioplaywasapi.obj
 0002:00039420       ?GetNamePlayDevices@CAudioPlayWasapi@@UAEIGQA_W0@Z 1003b420 f   audioplaywasapi.obj
 0002:000395c0       ?StartPlay@CAudioPlayWasapi@@UAEHH@Z 1003b5c0 f   audioplaywasapi.obj
 0002:00039800       ?GetPlayoutBufferDelay@CAudioPlayWasapi@@UAEHAAI0@Z 1003b800 f   audioplaywasapi.obj
 0002:00039830       ??0CAudioPlayWasapi@@QAE@XZ 1003b830 f   audioplaywasapi.obj
 0002:000399a0       ??0CAudioPlayCom@@QAE@XZ   1003b9a0 f i audioplaywasapi.obj
 0002:00039a40       ??1CAudioPlayCom@@UAE@XZ   1003ba40 f i audioplaywasapi.obj
 0002:00039a80       ??_ECAudioPlayCom@@UAEPAXI@Z 1003ba80 f i audioplaywasapi.obj
 0002:00039a80       ??_GCAudioPlayCom@@UAEPAXI@Z 1003ba80 f i audioplaywasapi.obj
 0002:00039ae0       ?SetPlayCallBack@CAudioPlayWasapi@@UAEXP6AXIEEIPAEPAX@Z1@Z 1003bae0 f i audioplaywasapi.obj
 0002:00039bd0       ??_ECAudioPlayWasapi@@UAEPAXI@Z 1003bbd0 f i audioplaywasapi.obj
 0002:00039bd0       ??_GCAudioPlayWasapi@@UAEPAXI@Z 1003bbd0 f i audioplaywasapi.obj
 0002:00039c30       ??1CAudioPlayWasapi@@UAE@XZ 1003bc30 f   audioplaywasapi.obj
 0002:00039e40       ?InitialPlayThread@CAudioPlayWasapi@@IAEGXZ 1003be40 f   audioplaywasapi.obj
 0002:00039f60       ?RealStartWork@CAudioPlayWasapi@@IAEGXZ 1003bf60 f   audioplaywasapi.obj
 0002:0003aa90       ?SetAudCapInst@CAudioPlayWasapi@@UAEXPAX@Z 1003ca90 f   audioplaywasapi.obj
 0002:0003aac0       ?RealTaskProcess@CAudioPlayWasapi@@UAEXI@Z 1003cac0 f   audioplaywasapi.obj
 0002:0003ade0       ?TestWasApiPly@@YAHXZ      1003cde0 f   audioplaywasapi.obj
 0002:0003afa0       ?CreateWasapiOutputDevice@@YAPAVCAudioPlayCom@@XZ 1003cfa0 f   audioplaywasapi.obj
 0002:0003b060       ??C?$CAutoComInterfacePtr@UIMMDeviceCollection@@@@QBEPAUIMMDeviceCollection@@XZ 1003d060 f i audioplaywasapi.obj
 0002:0003b090       ??0?$CAutoComInterfacePtr@UIMMDevice@@@@QAE@PAUIMMDevice@@@Z 1003d090 f i audioplaywasapi.obj
 0002:0003b0d0       ??1?$CAutoComInterfacePtr@UIMMDevice@@@@QAE@XZ 1003d0d0 f i audioplaywasapi.obj
 0002:0003b140       ??I?$CAutoComInterfacePtr@UIMMDevice@@@@QAEPAPAUIMMDevice@@XZ 1003d140 f i audioplaywasapi.obj
 0002:0003b170       ??C?$CAutoComInterfacePtr@UIMMDevice@@@@QBEPAUIMMDevice@@XZ 1003d170 f i audioplaywasapi.obj
 0002:0003b1a0       ??I?$CAutoComInterfacePtr@UIPropertyStore@@@@QAEPAPAUIPropertyStore@@XZ 1003d1a0 f i audioplaywasapi.obj
 0002:0003b1d0       ??_ECAudioPlayWasapi@@WCE@AEPAXI@Z 1003d1d0 f i audioplaywasapi.obj
 0002:0003b1e0       ?TraceWaveOutError@@YAXI@Z 1003d1e0 f   audioplaywav.obj
 0002:0003b2b0       ?SetPlayParam@CAudioPlayWav@@UAEHABUtagAudioPlayParam@@@Z 1003d2b0 f   audioplaywav.obj
 0002:0003b470       ?GetNumPlayDevices@CAudioPlayWav@@UAEIXZ 1003d470 f   audioplaywav.obj
 0002:0003b510       ?GetNamePlayDevices@CAudioPlayWav@@UAEIGQA_W0@Z 1003d510 f   audioplaywav.obj
 0002:0003b950       ?StartPlay@CAudioPlayWav@@UAEHH@Z 1003d950 f   audioplaywav.obj
 0002:0003c390       ?InitPlayThread@CAudioPlayWav@@QAEHXZ 1003e390 f   audioplaywav.obj
 0002:0003c4b0       ?RealTaskProcess@CAudioPlayWav@@UAEXI@Z 1003e4b0 f   audioplaywav.obj
 0002:0003c960       ??0CAudioPlayWav@@QAE@XZ   1003e960 f   audioplaywav.obj
 0002:0003cbb0       ?SetAudCapInst@CAudioPlayWav@@UAEXPAX@Z 1003ebb0 f i audioplaywav.obj
 0002:0003cc40       ?SetPlayCallBack@CAudioPlayWav@@UAEXP6AXIEEIPAEPAX@Z1@Z 1003ec40 f i audioplaywav.obj
 0002:0003cd30       ??_ECAudioPlayWav@@UAEPAXI@Z 1003ed30 f i audioplaywav.obj
 0002:0003cd30       ??_GCAudioPlayWav@@UAEPAXI@Z 1003ed30 f i audioplaywav.obj
 0002:0003cd90       ??1CAudioPlayWav@@UAE@XZ   1003ed90 f   audioplaywav.obj
 0002:0003cf80       ?PreparePlayBuffer@CAudioPlayWav@@IAEHXZ 1003ef80 f   audioplaywav.obj
 0002:0003d150       ?WriteToDriver@CAudioPlayWav@@IAEHPAEI@Z 1003f150 f   audioplaywav.obj
 0002:0003d390       ?GetPlayoutBufferDelay@CAudioPlayWav@@UAEHAAI0@Z 1003f390 f   audioplaywav.obj
 0002:0003db40       ?PlayProc@CAudioPlayWav@@QAEXAA_J@Z 1003fb40 f   audioplaywav.obj
 0002:0003df60       ?CreateWavOutDevice@@YAPAVCAudioPlayCom@@XZ 1003ff60 f   audioplaywav.obj
 0002:0003e050       ??_ECAudioPlayWav@@WCE@AEPAXI@Z 10040050 f i audioplaywav.obj
 0002:0003e060       ?PrintKdvProcErr@@YAXHPADPAX@Z 10040060 f   audioprocess.obj
 0002:0003e380       _UnInitKdvFunc             10040380 f   audioprocess.obj
 0002:0003e3e0       ??0CPcmFileSaver@@QAE@XZ   100403e0 f   audioprocess.obj
 0002:0003e480       ??_ECPcmFileSaver@@UAEPAXI@Z 10040480 f i audioprocess.obj
 0002:0003e480       ??_GCPcmFileSaver@@UAEPAXI@Z 10040480 f i audioprocess.obj
 0002:0003e4e0       ?SaveInPcm@CPcmFileSaver@@QAEXHIPAD@Z 100404e0 f   audioprocess.obj
 0002:0003e5a0       ?WritePcm@CPcmFileSaver@@QAEXHPBEI@Z 100405a0 f   audioprocess.obj
 0002:0003e610       ??1CPcmFileSaver@@UAE@XZ   10040610 f   audioprocess.obj
 0002:0003e6a0       ?SetParam@CKdvPcmResampler@@UAEGABUtagAudioPcmResampParam@@@Z 100406a0 f   audioprocess.obj
 0002:0003eba0       ?ProcessAudioPcm@CKdvPcmResampler@@UAEGPBEIPAEAAI@Z 10040ba0 f   audioprocess.obj
 0002:0003ee70       ??0CKdvPcmResampler@@QAE@XZ 10040e70 f   audioprocess.obj
 0002:0003ef60       ??0CAudioPcmResampler@@QAE@XZ 10040f60 f i audioprocess.obj
 0002:0003efc0       ??1CAudioPcmResampler@@UAE@XZ 10040fc0 f i audioprocess.obj
 0002:0003f000       ?GetParam@CAudioPcmResampler@@UAEGAAUtagAudioPcmResampParam@@@Z 10041000 f i audioprocess.obj
 0002:0003f040       ??_ECAudioPcmResampler@@UAEPAXI@Z 10041040 f i audioprocess.obj
 0002:0003f040       ??_GCAudioPcmResampler@@UAEPAXI@Z 10041040 f i audioprocess.obj
 0002:0003f200       ??_ECKdvPcmResampler@@UAEPAXI@Z 10041200 f i audioprocess.obj
 0002:0003f200       ??_GCKdvPcmResampler@@UAEPAXI@Z 10041200 f i audioprocess.obj
 0002:0003f260       ??1CKdvPcmResampler@@UAE@XZ 10041260 f   audioprocess.obj
 0002:0003f320       ?Destroy@CKdvPcmResampler@@UAEGXZ 10041320 f   audioprocess.obj
 0002:0003f3a0       ?SavePcm@CKdvPcmResampler@@UAEGII@Z 100413a0 f   audioprocess.obj
 0002:0003f520       ?CalAudioPower@CKdvPcmResampler@@UAEGPAEEEI@Z 10041520 f   audioprocess.obj
 0002:0003f700       ?SetVolume@CKdvPcmResampler@@UAEGE@Z 10041700 f   audioprocess.obj
 0002:0003f820       ?Create@CAudioPcmResampler@@SAPAV1@XZ 10041820 f   audioprocess.obj
 0002:0003f8e0       ??0CAudioAecCom@@QAE@XZ    100418e0 f i audioprocess.obj
 0002:0003f920       ??1CAudioAecCom@@UAE@XZ    10041920 f i audioprocess.obj
 0002:0003f9a0       ?GetParam@CAudioAecCom@@UAEGAAUtagAecComParam@@@Z 100419a0 f i audioprocess.obj
 0002:0003f9f0       ?GetControl@CAudioAecCom@@UAEGAAUtagAecComCtrl@@@Z 100419f0 f i audioprocess.obj
 0002:0003fa40       ?GetAecStatus@CAudioAecCom@@UAEGAAUtagAecComStatus@@@Z 10041a40 f i audioprocess.obj
 0002:0003fa80       ??_GCAudioAecCom@@UAEPAXI@Z 10041a80 f i audioprocess.obj
 0002:0003fa80       ??_ECAudioAecCom@@UAEPAXI@Z 10041a80 f i audioprocess.obj
 0002:0003fae0       ??0CWebRtcAecCom@@QAE@XZ   10041ae0 f   audioprocess.obj
 0002:0003fbd0       ??_ECWebRtcAecCom@@UAEPAXI@Z 10041bd0 f i audioprocess.obj
 0002:0003fbd0       ??_GCWebRtcAecCom@@UAEPAXI@Z 10041bd0 f i audioprocess.obj
 0002:0003fc30       ??1CWebRtcAecCom@@UAE@XZ   10041c30 f   audioprocess.obj
 0002:0003fce0       ?SetParam@CWebRtcAecCom@@UAEGABUtagAecComParam@@@Z 10041ce0 f   audioprocess.obj
 0002:00040330       ?SetControl@CWebRtcAecCom@@UAEGW4enAecCtrlID@@ABUtagAecComCtrl@@@Z 10042330 f   audioprocess.obj
 0002:00040640       ?ProcessAudioPcm@CWebRtcAecCom@@UAEGPAEI0I@Z 10042640 f   audioprocess.obj
 0002:00040a30       ?SetRefSig@CWebRtcAecCom@@UAEGPAEI@Z 10042a30 f   audioprocess.obj
 0002:00040bc0       ?SavePcm@CWebRtcAecCom@@UAEGII@Z 10042bc0 f   audioprocess.obj
 0002:00040d30       ?Destroy@CWebRtcAecCom@@UAEGXZ 10042d30 f   audioprocess.obj
 0002:00040e40       ??_GCAudioProcWrapper@@QAEPAXI@Z 10042e40 f i audioprocess.obj
 0002:00040eb0       ?Create@CAudioAecCom@@SAPAV1@XZ 10042eb0 f   audioprocess.obj
 0002:00040f70       ?Create@CMixer@@SAPAV1@XZ  10042f70 f   audioprocess.obj
 0002:00041030       ??0CAudioMixer@@QAE@XZ     10043030 f   audioprocess.obj
 0002:00041090       ??0CMixer@@QAE@XZ          10043090 f i audioprocess.obj
 0002:000410d0       ??_ECMixer@@UAEPAXI@Z      100430d0 f i audioprocess.obj
 0002:000410d0       ??_GCMixer@@UAEPAXI@Z      100430d0 f i audioprocess.obj
 0002:00041130       ??1CMixer@@UAE@XZ          10043130 f i audioprocess.obj
 0002:00041170       ??_ECAudioMixer@@UAEPAXI@Z 10043170 f i audioprocess.obj
 0002:00041170       ??_GCAudioMixer@@UAEPAXI@Z 10043170 f i audioprocess.obj
 0002:000411d0       ??1CAudioMixer@@UAE@XZ     100431d0 f   audioprocess.obj
 0002:00041220       ?SetVolume@CAudioMixer@@UAEHPA_WW4emMixerDeice@CMixer@@I@Z 10043220 f   audioprocess.obj
 0002:00041790       ?GetVolume@CAudioMixer@@UAEHPA_WW4emMixerDeice@CMixer@@AAI@Z 10043790 f   audioprocess.obj
 0002:00041cd0       ?GetVolumeControl@CAudioMixer@@AAEHPAUHMIXER__@@IIPAUtagMIXERCONTROLW@@@Z 10043cd0 f   audioprocess.obj
 0002:00041d90       ?SetVolumeValue@CAudioMixer@@AAEHPAUHMIXER__@@PAUtagMIXERCONTROLW@@I@Z 10043d90 f   audioprocess.obj
 0002:00041ea0       ?GetVolumeValue@CAudioMixer@@AAEHPAUHMIXER__@@PAUtagMIXERCONTROLW@@AAI@Z 10043ea0 f   audioprocess.obj
 0002:00041f80       ??_ECWebRtcAecCom@@WEI@AEPAXI@Z 10043f80 f i audioprocess.obj
 0002:00041f90       ??_ECKdvPcmResampler@@WCI@AEPAXI@Z 10043f90 f i audioprocess.obj
 0002:00041fa0       ??0CWaveLoopBuf@@QAE@XZ    10043fa0 f   drawpcm.obj
 0002:00042020       ??1CWaveLoopBuf@@QAE@XZ    10044020 f   drawpcm.obj
 0002:00042070       ?LoopBuf_init@CWaveLoopBuf@@QAEHPAEI@Z 10044070 f   drawpcm.obj
 0002:000420e0       ?LoopBuf_put@CWaveLoopBuf@@QAEIPAEI@Z 100440e0 f   drawpcm.obj
 0002:00042230       ?LoopBuf_MoveReadPrt@CWaveLoopBuf@@QAEII@Z 10044230 f   drawpcm.obj
 0002:000422f0       ?LoopBuf_GetCurReadPrt@CWaveLoopBuf@@QAEPAEAAI@Z 100442f0 f   drawpcm.obj
 0002:000423a0       ?LineSamples@@YAIPAFIIIIPAUHDC__@@II@Z 100443a0 f   drawpcm.obj
 0002:00042530       ?DrawPcm@@YAXEPAFI0I@Z     10044530 f   drawpcm.obj
 0002:00042790       _drawpcmhwnd               10044790 f   drawpcm.obj
 0002:00042970       _deletallpcmwnd            10044970 f   drawpcm.obj
 0002:00042b30       ??_GCWaveLoopBuf@@QAEPAXI@Z 10044b30 f i drawpcm.obj
 0002:00042b90       _pcmwave                   10044b90 f   drawpcm.obj
 0002:00042ce0       ?LoopBuf_len@CWaveLoopBuf@@QAEIXZ 10044ce0 f i drawpcm.obj
 0002:00042d50       ??0CKdvAsfRecordMan@@QAE@XZ 10044d50 f   kdvasfrecordman.obj
 0002:00042e60       ?StartRecorder@CKdvAsfRecordMan@@QAEGPA_WHH@Z 10044e60 f   kdvasfrecordman.obj
 0002:000435b0       ?AddOneStream@CKdvAsfRecordMan@@QAEGIIIE@Z 100455b0 f   kdvasfrecordman.obj
 0002:00043e50       ?StopRecorder@CKdvAsfRecordMan@@QAEGH@Z 10045e50 f   kdvasfrecordman.obj
 0002:00044030       ?PauseRecorder@CKdvAsfRecordMan@@QAEGXZ 10046030 f   kdvasfrecordman.obj
 0002:00044100       ?ResumeRecorder@CKdvAsfRecordMan@@QAEGXZ 10046100 f   kdvasfrecordman.obj
 0002:00044230       ?WriteData@CKdvAsfRecordMan@@QAEGEPAEIHI@Z 10046230 f   kdvasfrecordman.obj
 0002:00044370       ?GetRecorderFile@CKdvAsfRecordMan@@QAEHPA_WH@Z 10046370 f   kdvasfrecordman.obj
 0002:000444d0       ?MyGetDiskFreeSpaceEx@?A0x3e11341b@@YAHPB_WAA_J@Z 100464d0 f   mcdiskcheck.obj
 0002:00044660       ?DiskCheck_PollEvent@?A0x3e11341b@@YAXXZ 10046660 f   mcdiskcheck.obj
 0002:000448c0       ?DiskCheck_PollEventTimerProc@?A0x3e11341b@@YGXIIKKK@Z 100468c0 f   mcdiskcheck.obj
 0002:00044900       ?DiskCheck_StartPollEvent@?A0x3e11341b@@YAXXZ 10046900 f   mcdiskcheck.obj
 0002:000449d0       ?DiskCheck_StopPollEvent@?A0x3e11341b@@YAXXZ 100469d0 f   mcdiskcheck.obj
 0002:00044a90       ?GetDrive@@YAHPB_WAAY0BAA@_W@Z 10046a90 f   mcdiskcheck.obj
 0002:00044b40       ?DiskCheck_RegisterCallback@@YAXPB_WP6AX0_J@Z@Z 10046b40 f   mcdiskcheck.obj
 0002:00044df0       ??1?$set@P6AXPB_W_J@ZU?$less@P6AXPB_W_J@Z@std@@V?$allocator@P6AXPB_W_J@Z@2@@std@@QAE@XZ 10046df0 f i mcdiskcheck.obj
 0002:00044e30       ??1?$pair@V?$basic_string@_WU?$char_traits@_W@std@@V?$allocator@_W@2@@std@@V?$set@P6AXPB_W_J@ZU?$less@P6AXPB_W_J@Z@std@@V?$allocator@P6AXPB_W_J@Z@2@@2@@std@@QAE@XZ 10046e30 f i mcdiskcheck.obj
 0002:00044e70       ??1?$_Pair_base@V?$basic_string@_WU?$char_traits@_W@std@@V?$allocator@_W@2@@std@@V?$set@P6AXPB_W_J@ZU?$less@P6AXPB_W_J@Z@std@@V?$allocator@P6AXPB_W_J@Z@2@@2@@std@@QAE@XZ 10046e70 f i mcdiskcheck.obj
 0002:00044f00       ?DiskCheck_UnregisterCallback@@YAXP6AXPB_W_J@Z@Z 10046f00 f   mcdiskcheck.obj
 0002:000450f0       ??0?$basic_string@_WU?$char_traits@_W@std@@V?$allocator@_W@2@@std@@QAE@PB_W@Z 100470f0 f i mcdiskcheck.obj
 0002:000451a0       ?begin@?$_Tree@V?$_Tmap_traits@V?$basic_string@_WU?$char_traits@_W@std@@V?$allocator@_W@2@@std@@V?$set@P6AXPB_W_J@ZU?$less@P6AXPB_W_J@Z@std@@V?$allocator@P6AXPB_W_J@Z@2@@2@U?$less@V?$basic_string@_WU?$char_traits@_W@std@@V?$allocator@_W@2@@std@@@2@V?$allocator@U?$pair@$$CBV?$basic_string@_WU?$char_traits@_W@std@@V?$allocator@_W@2@@std@@V?$set@P6AXPB_W_J@ZU?$less@P6AXPB_W_J@Z@std@@V?$allocator@P6AXPB_W_J@Z@2@@2@@std@@@2@$0A@@std@@@std@@QAE?AV?$_Tree_iterator@V?$_Tree_val@V?$_Tmap_traits@V?$basic_string@_WU?$char_traits@_W@std@@V?$allocator@_W@2@@std@@V?$set@P6AXPB_W_J@ZU?$less@P6AXPB_W_J@Z@std@@V?$allocator@P6AXPB_W_J@Z@2@@2@U?$less@V?$basic_string@_WU?$char_traits@_W@std@@V?$allocator@_W@2@@std@@@2@V?$allocator@U?$pair@$$CBV?$basic_string@_WU?$char_traits@_W@std@@V?$allocator@_W@2@@std@@V?$set@P6AXPB_W_J@ZU?$less@P6AXPB_W_J@Z@std@@V?$allocator@P6AXPB_W_J@Z@2@@2@@std@@@2@$0A@@std@@@std@@@2@XZ 100471a0 f i mcdiskcheck.obj
 0002:00045200       ?end@?$_Tree@V?$_Tmap_traits@V?$basic_string@_WU?$char_traits@_W@std@@V?$allocator@_W@2@@std@@V?$set@P6AXPB_W_J@ZU?$less@P6AXPB_W_J@Z@std@@V?$allocator@P6AXPB_W_J@Z@2@@2@U?$less@V?$basic_string@_WU?$char_traits@_W@std@@V?$allocator@_W@2@@std@@@2@V?$allocator@U?$pair@$$CBV?$basic_string@_WU?$char_traits@_W@std@@V?$allocator@_W@2@@std@@V?$set@P6AXPB_W_J@ZU?$less@P6AXPB_W_J@Z@std@@V?$allocator@P6AXPB_W_J@Z@2@@2@@std@@@2@$0A@@std@@@std@@QAE?AV?$_Tree_iterator@V?$_Tree_val@V?$_Tmap_traits@V?$basic_string@_WU?$char_traits@_W@std@@V?$allocator@_W@2@@std@@V?$set@P6AXPB_W_J@ZU?$less@P6AXPB_W_J@Z@std@@V?$allocator@P6AXPB_W_J@Z@2@@2@U?$less@V?$basic_string@_WU?$char_traits@_W@std@@V?$allocator@_W@2@@std@@@2@V?$allocator@U?$pair@$$CBV?$basic_string@_WU?$char_traits@_W@std@@V?$allocator@_W@2@@std@@V?$set@P6AXPB_W_J@ZU?$less@P6AXPB_W_J@Z@std@@V?$allocator@P6AXPB_W_J@Z@2@@2@@std@@@2@$0A@@std@@@std@@@2@XZ 10047200 f i mcdiskcheck.obj
 0002:00045250       ?empty@?$_Tree@V?$_Tmap_traits@V?$basic_string@_WU?$char_traits@_W@std@@V?$allocator@_W@2@@std@@V?$set@P6AXPB_W_J@ZU?$less@P6AXPB_W_J@Z@std@@V?$allocator@P6AXPB_W_J@Z@2@@2@U?$less@V?$basic_string@_WU?$char_traits@_W@std@@V?$allocator@_W@2@@std@@@2@V?$allocator@U?$pair@$$CBV?$basic_string@_WU?$char_traits@_W@std@@V?$allocator@_W@2@@std@@V?$set@P6AXPB_W_J@ZU?$less@P6AXPB_W_J@Z@std@@V?$allocator@P6AXPB_W_J@Z@2@@2@@std@@@2@$0A@@std@@@std@@QBE_NXZ 10047250 f i mcdiskcheck.obj
 0002:000452a0       ?erase@?$_Tree@V?$_Tmap_traits@V?$basic_string@_WU?$char_traits@_W@std@@V?$allocator@_W@2@@std@@V?$set@P6AXPB_W_J@ZU?$less@P6AXPB_W_J@Z@std@@V?$allocator@P6AXPB_W_J@Z@2@@2@U?$less@V?$basic_string@_WU?$char_traits@_W@std@@V?$allocator@_W@2@@std@@@2@V?$allocator@U?$pair@$$CBV?$basic_string@_WU?$char_traits@_W@std@@V?$allocator@_W@2@@std@@V?$set@P6AXPB_W_J@ZU?$less@P6AXPB_W_J@Z@std@@V?$allocator@P6AXPB_W_J@Z@2@@2@@std@@@2@$0A@@std@@@std@@QAE?AV?$_Tree_iterator@V?$_Tree_val@V?$_Tmap_traits@V?$basic_string@_WU?$char_traits@_W@std@@V?$allocator@_W@2@@std@@V?$set@P6AXPB_W_J@ZU?$less@P6AXPB_W_J@Z@std@@V?$allocator@P6AXPB_W_J@Z@2@@2@U?$less@V?$basic_string@_WU?$char_traits@_W@std@@V?$allocator@_W@2@@std@@@2@V?$allocator@U?$pair@$$CBV?$basic_string@_WU?$char_traits@_W@std@@V?$allocator@_W@2@@std@@V?$set@P6AXPB_W_J@ZU?$less@P6AXPB_W_J@Z@std@@V?$allocator@P6AXPB_W_J@Z@2@@2@@std@@@2@$0A@@std@@@std@@@2@V?$_Tree_const_iterator@V?$_Tree_val@V?$_Tmap_traits@V?$basic_string@_WU?$char_traits@_W@std@@V?$allocator@_W@2@@std@@V?$set@P6AXPB_W_J@ZU?$less@P6AXPB_W_J@Z@std@@V?$allocator@P6AXPB_W_J@Z@2@@2@U?$less@V?$basic_string@_WU?$char_traits@_W@std@@V?$allocator@_W@2@@std@@@2@V?$allocator@U?$pair@$$CBV?$basic_string@_WU?$char_traits@_W@std@@V?$allocator@_W@2@@std@@V?$set@P6AXPB_W_J@ZU?$less@P6AXPB_W_J@Z@std@@V?$allocator@P6AXPB_W_J@Z@2@@2@@std@@@2@$0A@@std@@@std@@@2@@Z 100472a0 f i mcdiskcheck.obj
 0002:00045a70       ?find@?$_Tree@V?$_Tmap_traits@V?$basic_string@_WU?$char_traits@_W@std@@V?$allocator@_W@2@@std@@V?$set@P6AXPB_W_J@ZU?$less@P6AXPB_W_J@Z@std@@V?$allocator@P6AXPB_W_J@Z@2@@2@U?$less@V?$basic_string@_WU?$char_traits@_W@std@@V?$allocator@_W@2@@std@@@2@V?$allocator@U?$pair@$$CBV?$basic_string@_WU?$char_traits@_W@std@@V?$allocator@_W@2@@std@@V?$set@P6AXPB_W_J@ZU?$less@P6AXPB_W_J@Z@std@@V?$allocator@P6AXPB_W_J@Z@2@@2@@std@@@2@$0A@@std@@@std@@QAE?AV?$_Tree_iterator@V?$_Tree_val@V?$_Tmap_traits@V?$basic_string@_WU?$char_traits@_W@std@@V?$allocator@_W@2@@std@@V?$set@P6AXPB_W_J@ZU?$less@P6AXPB_W_J@Z@std@@V?$allocator@P6AXPB_W_J@Z@2@@2@U?$less@V?$basic_string@_WU?$char_traits@_W@std@@V?$allocator@_W@2@@std@@@2@V?$allocator@U?$pair@$$CBV?$basic_string@_WU?$char_traits@_W@std@@V?$allocator@_W@2@@std@@V?$set@P6AXPB_W_J@ZU?$less@P6AXPB_W_J@Z@std@@V?$allocator@P6AXPB_W_J@Z@2@@2@@std@@@2@$0A@@std@@@std@@@2@ABV?$basic_string@_WU?$char_traits@_W@std@@V?$allocator@_W@2@@2@@Z 10047a70 f i mcdiskcheck.obj
 0002:00045b70       ??0?$CAutoReleaseLockAcquisition@VCThreadSafeLock@@@@QAE@AAVCThreadSafeLock@@PBD1H@Z 10047b70 f i mcdiskcheck.obj
 0002:00045bd0       ??1?$CAutoReleaseLockAcquisition@VCThreadSafeLock@@@@QAE@XZ 10047bd0 f i mcdiskcheck.obj
 0002:00045c20       ??C?$_Tree_iterator@V?$_Tree_val@V?$_Tmap_traits@V?$basic_string@_WU?$char_traits@_W@std@@V?$allocator@_W@2@@std@@V?$set@P6AXPB_W_J@ZU?$less@P6AXPB_W_J@Z@std@@V?$allocator@P6AXPB_W_J@Z@2@@2@U?$less@V?$basic_string@_WU?$char_traits@_W@std@@V?$allocator@_W@2@@std@@@2@V?$allocator@U?$pair@$$CBV?$basic_string@_WU?$char_traits@_W@std@@V?$allocator@_W@2@@std@@V?$set@P6AXPB_W_J@ZU?$less@P6AXPB_W_J@Z@std@@V?$allocator@P6AXPB_W_J@Z@2@@2@@std@@@2@$0A@@std@@@std@@@std@@QBEPAU?$pair@$$CBV?$basic_string@_WU?$char_traits@_W@std@@V?$allocator@_W@2@@std@@V?$set@P6AXPB_W_J@ZU?$less@P6AXPB_W_J@Z@std@@V?$allocator@P6AXPB_W_J@Z@2@@2@@1@XZ 10047c20 f i mcdiskcheck.obj
 0002:00045c60       ??E?$_Tree_iterator@V?$_Tree_val@V?$_Tmap_traits@V?$basic_string@_WU?$char_traits@_W@std@@V?$allocator@_W@2@@std@@V?$set@P6AXPB_W_J@ZU?$less@P6AXPB_W_J@Z@std@@V?$allocator@P6AXPB_W_J@Z@2@@2@U?$less@V?$basic_string@_WU?$char_traits@_W@std@@V?$allocator@_W@2@@std@@@2@V?$allocator@U?$pair@$$CBV?$basic_string@_WU?$char_traits@_W@std@@V?$allocator@_W@2@@std@@V?$set@P6AXPB_W_J@ZU?$less@P6AXPB_W_J@Z@std@@V?$allocator@P6AXPB_W_J@Z@2@@2@@std@@@2@$0A@@std@@@std@@@std@@QAEAAV01@XZ 10047c60 f i mcdiskcheck.obj
 0002:00045cb0       ??8?$_Tree_const_iterator@V?$_Tree_val@V?$_Tmap_traits@V?$basic_string@_WU?$char_traits@_W@std@@V?$allocator@_W@2@@std@@V?$set@P6AXPB_W_J@ZU?$less@P6AXPB_W_J@Z@std@@V?$allocator@P6AXPB_W_J@Z@2@@2@U?$less@V?$basic_string@_WU?$char_traits@_W@std@@V?$allocator@_W@2@@std@@@2@V?$allocator@U?$pair@$$CBV?$basic_string@_WU?$char_traits@_W@std@@V?$allocator@_W@2@@std@@V?$set@P6AXPB_W_J@ZU?$less@P6AXPB_W_J@Z@std@@V?$allocator@P6AXPB_W_J@Z@2@@2@@std@@@2@$0A@@std@@@std@@@std@@QBE_NABV01@@Z 10047cb0 f i mcdiskcheck.obj
 0002:00045cf0       ??9?$_Tree_const_iterator@V?$_Tree_val@V?$_Tmap_traits@V?$basic_string@_WU?$char_traits@_W@std@@V?$allocator@_W@2@@std@@V?$set@P6AXPB_W_J@ZU?$less@P6AXPB_W_J@Z@std@@V?$allocator@P6AXPB_W_J@Z@2@@2@U?$less@V?$basic_string@_WU?$char_traits@_W@std@@V?$allocator@_W@2@@std@@@2@V?$allocator@U?$pair@$$CBV?$basic_string@_WU?$char_traits@_W@std@@V?$allocator@_W@2@@std@@V?$set@P6AXPB_W_J@ZU?$less@P6AXPB_W_J@Z@std@@V?$allocator@P6AXPB_W_J@Z@2@@2@@std@@@2@$0A@@std@@@std@@@std@@QBE_NABV01@@Z 10047cf0 f i mcdiskcheck.obj
 0002:00045d40       ??0?$set@P6AXPB_W_J@ZU?$less@P6AXPB_W_J@Z@std@@V?$allocator@P6AXPB_W_J@Z@2@@std@@QAE@XZ 10047d40 f i mcdiskcheck.obj
 0002:00045da0       ??1?$_Tree@V?$_Tset_traits@P6AXPB_W_J@ZU?$less@P6AXPB_W_J@Z@std@@V?$allocator@P6AXPB_W_J@Z@2@$0A@@std@@@std@@QAE@XZ 10047da0 f i mcdiskcheck.obj
 0002:00045e20       ?begin@?$_Tree@V?$_Tset_traits@P6AXPB_W_J@ZU?$less@P6AXPB_W_J@Z@std@@V?$allocator@P6AXPB_W_J@Z@2@$0A@@std@@@std@@QAE?AV?$_Tree_const_iterator@V?$_Tree_val@V?$_Tset_traits@P6AXPB_W_J@ZU?$less@P6AXPB_W_J@Z@std@@V?$allocator@P6AXPB_W_J@Z@2@$0A@@std@@@std@@@2@XZ 10047e20 f i mcdiskcheck.obj
 0002:00045e80       ?end@?$_Tree@V?$_Tset_traits@P6AXPB_W_J@ZU?$less@P6AXPB_W_J@Z@std@@V?$allocator@P6AXPB_W_J@Z@2@$0A@@std@@@std@@QAE?AV?$_Tree_const_iterator@V?$_Tree_val@V?$_Tset_traits@P6AXPB_W_J@ZU?$less@P6AXPB_W_J@Z@std@@V?$allocator@P6AXPB_W_J@Z@2@$0A@@std@@@std@@@2@XZ 10047e80 f i mcdiskcheck.obj
 0002:00045ed0       ?empty@?$_Tree@V?$_Tset_traits@P6AXPB_W_J@ZU?$less@P6AXPB_W_J@Z@std@@V?$allocator@P6AXPB_W_J@Z@2@$0A@@std@@@std@@QBE_NXZ 10047ed0 f i mcdiskcheck.obj
 0002:00045f20       ?erase@?$_Tree@V?$_Tset_traits@P6AXPB_W_J@ZU?$less@P6AXPB_W_J@Z@std@@V?$allocator@P6AXPB_W_J@Z@2@$0A@@std@@@std@@QAE?AV?$_Tree_const_iterator@V?$_Tree_val@V?$_Tset_traits@P6AXPB_W_J@ZU?$less@P6AXPB_W_J@Z@std@@V?$allocator@P6AXPB_W_J@Z@2@$0A@@std@@@std@@@2@V32@@Z 10047f20 f i mcdiskcheck.obj
 0002:000466f0       ?find@?$_Tree@V?$_Tset_traits@P6AXPB_W_J@ZU?$less@P6AXPB_W_J@Z@std@@V?$allocator@P6AXPB_W_J@Z@2@$0A@@std@@@std@@QAE?AV?$_Tree_const_iterator@V?$_Tree_val@V?$_Tset_traits@P6AXPB_W_J@ZU?$less@P6AXPB_W_J@Z@std@@V?$allocator@P6AXPB_W_J@Z@2@$0A@@std@@@std@@@2@ABQ6AXPB_W_J@Z@Z 100486f0 f i mcdiskcheck.obj
 0002:000467f0       ??D?$_Tree_const_iterator@V?$_Tree_val@V?$_Tset_traits@P6AXPB_W_J@ZU?$less@P6AXPB_W_J@Z@std@@V?$allocator@P6AXPB_W_J@Z@2@$0A@@std@@@std@@@std@@QBEABQ6AXPB_W_J@ZXZ 100487f0 f i mcdiskcheck.obj
 0002:00046840       ??E?$_Tree_const_iterator@V?$_Tree_val@V?$_Tset_traits@P6AXPB_W_J@ZU?$less@P6AXPB_W_J@Z@std@@V?$allocator@P6AXPB_W_J@Z@2@$0A@@std@@@std@@@std@@QAEAAV01@XZ 10048840 f i mcdiskcheck.obj
 0002:00046890       ??9?$_Tree_const_iterator@V?$_Tree_val@V?$_Tset_traits@P6AXPB_W_J@ZU?$less@P6AXPB_W_J@Z@std@@V?$allocator@P6AXPB_W_J@Z@2@$0A@@std@@@std@@@std@@QBE_NABV01@@Z 10048890 f i mcdiskcheck.obj
 0002:000468e0       ??0?$CAutoAcquireLockEscape@VCThreadSafeLock@@@@QAE@AAVCThreadSafeLock@@PBD1H@Z 100488e0 f i mcdiskcheck.obj
 0002:000469b0       ??1?$CAutoAcquireLockEscape@VCThreadSafeLock@@@@QAE@XZ 100489b0 f i mcdiskcheck.obj
 0002:00046a70       ?size@?$_Tree@V?$_Tmap_traits@V?$basic_string@_WU?$char_traits@_W@std@@V?$allocator@_W@2@@std@@V?$set@P6AXPB_W_J@ZU?$less@P6AXPB_W_J@Z@std@@V?$allocator@P6AXPB_W_J@Z@2@@2@U?$less@V?$basic_string@_WU?$char_traits@_W@std@@V?$allocator@_W@2@@std@@@2@V?$allocator@U?$pair@$$CBV?$basic_string@_WU?$char_traits@_W@std@@V?$allocator@_W@2@@std@@V?$set@P6AXPB_W_J@ZU?$less@P6AXPB_W_J@Z@std@@V?$allocator@P6AXPB_W_J@Z@2@@2@@std@@@2@$0A@@std@@@std@@QBEIXZ 10048a70 f i mcdiskcheck.obj
 0002:00046aa0       ?lower_bound@?$_Tree@V?$_Tmap_traits@V?$basic_string@_WU?$char_traits@_W@std@@V?$allocator@_W@2@@std@@V?$set@P6AXPB_W_J@ZU?$less@P6AXPB_W_J@Z@std@@V?$allocator@P6AXPB_W_J@Z@2@@2@U?$less@V?$basic_string@_WU?$char_traits@_W@std@@V?$allocator@_W@2@@std@@@2@V?$allocator@U?$pair@$$CBV?$basic_string@_WU?$char_traits@_W@std@@V?$allocator@_W@2@@std@@V?$set@P6AXPB_W_J@ZU?$less@P6AXPB_W_J@Z@std@@V?$allocator@P6AXPB_W_J@Z@2@@2@@std@@@2@$0A@@std@@@std@@QAE?AV?$_Tree_iterator@V?$_Tree_val@V?$_Tmap_traits@V?$basic_string@_WU?$char_traits@_W@std@@V?$allocator@_W@2@@std@@V?$set@P6AXPB_W_J@ZU?$less@P6AXPB_W_J@Z@std@@V?$allocator@P6AXPB_W_J@Z@2@@2@U?$less@V?$basic_string@_WU?$char_traits@_W@std@@V?$allocator@_W@2@@std@@@2@V?$allocator@U?$pair@$$CBV?$basic_string@_WU?$char_traits@_W@std@@V?$allocator@_W@2@@std@@V?$set@P6AXPB_W_J@ZU?$less@P6AXPB_W_J@Z@std@@V?$allocator@P6AXPB_W_J@Z@2@@2@@std@@@2@$0A@@std@@@std@@@2@ABV?$basic_string@_WU?$char_traits@_W@std@@V?$allocator@_W@2@@2@@Z 10048aa0 f i mcdiskcheck.obj
 0002:00046b00       ?_Lmost@?$_Tree@V?$_Tmap_traits@V?$basic_string@_WU?$char_traits@_W@std@@V?$allocator@_W@2@@std@@V?$set@P6AXPB_W_J@ZU?$less@P6AXPB_W_J@Z@std@@V?$allocator@P6AXPB_W_J@Z@2@@2@U?$less@V?$basic_string@_WU?$char_traits@_W@std@@V?$allocator@_W@2@@std@@@2@V?$allocator@U?$pair@$$CBV?$basic_string@_WU?$char_traits@_W@std@@V?$allocator@_W@2@@std@@V?$set@P6AXPB_W_J@ZU?$less@P6AXPB_W_J@Z@std@@V?$allocator@P6AXPB_W_J@Z@2@@2@@std@@@2@$0A@@std@@@std@@IBEAAPAU_Node@?$_Tree_nod@V?$_Tmap_traits@V?$basic_string@_WU?$char_traits@_W@std@@V?$allocator@_W@2@@std@@V?$set@P6AXPB_W_J@ZU?$less@P6AXPB_W_J@Z@std@@V?$allocator@P6AXPB_W_J@Z@2@@2@U?$less@V?$basic_string@_WU?$char_traits@_W@std@@V?$allocator@_W@2@@std@@@2@V?$allocator@U?$pair@$$CBV?$basic_string@_WU?$char_traits@_W@std@@V?$allocator@_W@2@@std@@V?$set@P6AXPB_W_J@ZU?$less@P6AXPB_W_J@Z@std@@V?$allocator@P6AXPB_W_J@Z@2@@2@@std@@@2@$0A@@std@@@2@XZ 10048b00 f i mcdiskcheck.obj
 0002:00046b50       ?_Lrotate@?$_Tree@V?$_Tmap_traits@V?$basic_string@_WU?$char_traits@_W@std@@V?$allocator@_W@2@@std@@V?$set@P6AXPB_W_J@ZU?$less@P6AXPB_W_J@Z@std@@V?$allocator@P6AXPB_W_J@Z@2@@2@U?$less@V?$basic_string@_WU?$char_traits@_W@std@@V?$allocator@_W@2@@std@@@2@V?$allocator@U?$pair@$$CBV?$basic_string@_WU?$char_traits@_W@std@@V?$allocator@_W@2@@std@@V?$set@P6AXPB_W_J@ZU?$less@P6AXPB_W_J@Z@std@@V?$allocator@P6AXPB_W_J@Z@2@@2@@std@@@2@$0A@@std@@@std@@IAEXPAU_Node@?$_Tree_nod@V?$_Tmap_traits@V?$basic_string@_WU?$char_traits@_W@std@@V?$allocator@_W@2@@std@@V?$set@P6AXPB_W_J@ZU?$less@P6AXPB_W_J@Z@std@@V?$allocator@P6AXPB_W_J@Z@2@@2@U?$less@V?$basic_string@_WU?$char_traits@_W@std@@V?$allocator@_W@2@@std@@@2@V?$allocator@U?$pair@$$CBV?$basic_string@_WU?$char_traits@_W@std@@V?$allocator@_W@2@@std@@V?$set@P6AXPB_W_J@ZU?$less@P6AXPB_W_J@Z@std@@V?$allocator@P6AXPB_W_J@Z@2@@2@@std@@@2@$0A@@std@@@2@@Z 10048b50 f i mcdiskcheck.obj
 0002:00046cb0       ?_Rmost@?$_Tree@V?$_Tmap_traits@V?$basic_string@_WU?$char_traits@_W@std@@V?$allocator@_W@2@@std@@V?$set@P6AXPB_W_J@ZU?$less@P6AXPB_W_J@Z@std@@V?$allocator@P6AXPB_W_J@Z@2@@2@U?$less@V?$basic_string@_WU?$char_traits@_W@std@@V?$allocator@_W@2@@std@@@2@V?$allocator@U?$pair@$$CBV?$basic_string@_WU?$char_traits@_W@std@@V?$allocator@_W@2@@std@@V?$set@P6AXPB_W_J@ZU?$less@P6AXPB_W_J@Z@std@@V?$allocator@P6AXPB_W_J@Z@2@@2@@std@@@2@$0A@@std@@@std@@IBEAAPAU_Node@?$_Tree_nod@V?$_Tmap_traits@V?$basic_string@_WU?$char_traits@_W@std@@V?$allocator@_W@2@@std@@V?$set@P6AXPB_W_J@ZU?$less@P6AXPB_W_J@Z@std@@V?$allocator@P6AXPB_W_J@Z@2@@2@U?$less@V?$basic_string@_WU?$char_traits@_W@std@@V?$allocator@_W@2@@std@@@2@V?$allocator@U?$pair@$$CBV?$basic_string@_WU?$char_traits@_W@std@@V?$allocator@_W@2@@std@@V?$set@P6AXPB_W_J@ZU?$less@P6AXPB_W_J@Z@std@@V?$allocator@P6AXPB_W_J@Z@2@@2@@std@@@2@$0A@@std@@@2@XZ 10048cb0 f i mcdiskcheck.obj
 0002:00046d00       ?_Root@?$_Tree@V?$_Tmap_traits@V?$basic_string@_WU?$char_traits@_W@std@@V?$allocator@_W@2@@std@@V?$set@P6AXPB_W_J@ZU?$less@P6AXPB_W_J@Z@std@@V?$allocator@P6AXPB_W_J@Z@2@@2@U?$less@V?$basic_string@_WU?$char_traits@_W@std@@V?$allocator@_W@2@@std@@@2@V?$allocator@U?$pair@$$CBV?$basic_string@_WU?$char_traits@_W@std@@V?$allocator@_W@2@@std@@V?$set@P6AXPB_W_J@ZU?$less@P6AXPB_W_J@Z@std@@V?$allocator@P6AXPB_W_J@Z@2@@2@@std@@@2@$0A@@std@@@std@@IBEAAPAU_Node@?$_Tree_nod@V?$_Tmap_traits@V?$basic_string@_WU?$char_traits@_W@std@@V?$allocator@_W@2@@std@@V?$set@P6AXPB_W_J@ZU?$less@P6AXPB_W_J@Z@std@@V?$allocator@P6AXPB_W_J@Z@2@@2@U?$less@V?$basic_string@_WU?$char_traits@_W@std@@V?$allocator@_W@2@@std@@@2@V?$allocator@U?$pair@$$CBV?$basic_string@_WU?$char_traits@_W@std@@V?$allocator@_W@2@@std@@V?$set@P6AXPB_W_J@ZU?$less@P6AXPB_W_J@Z@std@@V?$allocator@P6AXPB_W_J@Z@2@@2@@std@@@2@$0A@@std@@@2@XZ 10048d00 f i mcdiskcheck.obj
 0002:00046d50       ?_Rrotate@?$_Tree@V?$_Tmap_traits@V?$basic_string@_WU?$char_traits@_W@std@@V?$allocator@_W@2@@std@@V?$set@P6AXPB_W_J@ZU?$less@P6AXPB_W_J@Z@std@@V?$allocator@P6AXPB_W_J@Z@2@@2@U?$less@V?$basic_string@_WU?$char_traits@_W@std@@V?$allocator@_W@2@@std@@@2@V?$allocator@U?$pair@$$CBV?$basic_string@_WU?$char_traits@_W@std@@V?$allocator@_W@2@@std@@V?$set@P6AXPB_W_J@ZU?$less@P6AXPB_W_J@Z@std@@V?$allocator@P6AXPB_W_J@Z@2@@2@@std@@@2@$0A@@std@@@std@@IAEXPAU_Node@?$_Tree_nod@V?$_Tmap_traits@V?$basic_string@_WU?$char_traits@_W@std@@V?$allocator@_W@2@@std@@V?$set@P6AXPB_W_J@ZU?$less@P6AXPB_W_J@Z@std@@V?$allocator@P6AXPB_W_J@Z@2@@2@U?$less@V?$basic_string@_WU?$char_traits@_W@std@@V?$allocator@_W@2@@std@@@2@V?$allocator@U?$pair@$$CBV?$basic_string@_WU?$char_traits@_W@std@@V?$allocator@_W@2@@std@@V?$set@P6AXPB_W_J@ZU?$less@P6AXPB_W_J@Z@std@@V?$allocator@P6AXPB_W_J@Z@2@@2@@std@@@2@$0A@@std@@@2@@Z 10048d50 f i mcdiskcheck.obj
 0002:00046eb0       ?_Color@?$_Tree_val@V?$_Tmap_traits@V?$basic_string@_WU?$char_traits@_W@std@@V?$allocator@_W@2@@std@@V?$set@P6AXPB_W_J@ZU?$less@P6AXPB_W_J@Z@std@@V?$allocator@P6AXPB_W_J@Z@2@@2@U?$less@V?$basic_string@_WU?$char_traits@_W@std@@V?$allocator@_W@2@@std@@@2@V?$allocator@U?$pair@$$CBV?$basic_string@_WU?$char_traits@_W@std@@V?$allocator@_W@2@@std@@V?$set@P6AXPB_W_J@ZU?$less@P6AXPB_W_J@Z@std@@V?$allocator@P6AXPB_W_J@Z@2@@2@@std@@@2@$0A@@std@@@std@@SAAADPAU_Node@?$_Tree_nod@V?$_Tmap_traits@V?$basic_string@_WU?$char_traits@_W@std@@V?$allocator@_W@2@@std@@V?$set@P6AXPB_W_J@ZU?$less@P6AXPB_W_J@Z@std@@V?$allocator@P6AXPB_W_J@Z@2@@2@U?$less@V?$basic_string@_WU?$char_traits@_W@std@@V?$allocator@_W@2@@std@@@2@V?$allocator@U?$pair@$$CBV?$basic_string@_WU?$char_traits@_W@std@@V?$allocator@_W@2@@std@@V?$set@P6AXPB_W_J@ZU?$less@P6AXPB_W_J@Z@std@@V?$allocator@P6AXPB_W_J@Z@2@@2@@std@@@2@$0A@@std@@@2@@Z 10048eb0 f i mcdiskcheck.obj
 0002:00046ee0       ?_Isnil@?$_Tree_val@V?$_Tmap_traits@V?$basic_string@_WU?$char_traits@_W@std@@V?$allocator@_W@2@@std@@V?$set@P6AXPB_W_J@ZU?$less@P6AXPB_W_J@Z@std@@V?$allocator@P6AXPB_W_J@Z@2@@2@U?$less@V?$basic_string@_WU?$char_traits@_W@std@@V?$allocator@_W@2@@std@@@2@V?$allocator@U?$pair@$$CBV?$basic_string@_WU?$char_traits@_W@std@@V?$allocator@_W@2@@std@@V?$set@P6AXPB_W_J@ZU?$less@P6AXPB_W_J@Z@std@@V?$allocator@P6AXPB_W_J@Z@2@@2@@std@@@2@$0A@@std@@@std@@SAAADPAU_Node@?$_Tree_nod@V?$_Tmap_traits@V?$basic_string@_WU?$char_traits@_W@std@@V?$allocator@_W@2@@std@@V?$set@P6AXPB_W_J@ZU?$less@P6AXPB_W_J@Z@std@@V?$allocator@P6AXPB_W_J@Z@2@@2@U?$less@V?$basic_string@_WU?$char_traits@_W@std@@V?$allocator@_W@2@@std@@@2@V?$allocator@U?$pair@$$CBV?$basic_string@_WU?$char_traits@_W@std@@V?$allocator@_W@2@@std@@V?$set@P6AXPB_W_J@ZU?$less@P6AXPB_W_J@Z@std@@V?$allocator@P6AXPB_W_J@Z@2@@2@@std@@@2@$0A@@std@@@2@@Z 10048ee0 f i mcdiskcheck.obj
 0002:00046f10       ?_Key@?$_Tree_val@V?$_Tmap_traits@V?$basic_string@_WU?$char_traits@_W@std@@V?$allocator@_W@2@@std@@V?$set@P6AXPB_W_J@ZU?$less@P6AXPB_W_J@Z@std@@V?$allocator@P6AXPB_W_J@Z@2@@2@U?$less@V?$basic_string@_WU?$char_traits@_W@std@@V?$allocator@_W@2@@std@@@2@V?$allocator@U?$pair@$$CBV?$basic_string@_WU?$char_traits@_W@std@@V?$allocator@_W@2@@std@@V?$set@P6AXPB_W_J@ZU?$less@P6AXPB_W_J@Z@std@@V?$allocator@P6AXPB_W_J@Z@2@@2@@std@@@2@$0A@@std@@@std@@SAAAV?$basic_string@_WU?$char_traits@_W@std@@V?$allocator@_W@2@@2@PAU_Node@?$_Tree_nod@V?$_Tmap_traits@V?$basic_string@_WU?$char_traits@_W@std@@V?$allocator@_W@2@@std@@V?$set@P6AXPB_W_J@ZU?$less@P6AXPB_W_J@Z@std@@V?$allocator@P6AXPB_W_J@Z@2@@2@U?$less@V?$basic_string@_WU?$char_traits@_W@std@@V?$allocator@_W@2@@std@@@2@V?$allocator@U?$pair@$$CBV?$basic_string@_WU?$char_traits@_W@std@@V?$allocator@_W@2@@std@@V?$set@P6AXPB_W_J@ZU?$less@P6AXPB_W_J@Z@std@@V?$allocator@P6AXPB_W_J@Z@2@@2@@std@@@2@$0A@@std@@@2@@Z 10048f10 f i mcdiskcheck.obj
 0002:00046f60       ?_Left@?$_Tree_val@V?$_Tmap_traits@V?$basic_string@_WU?$char_traits@_W@std@@V?$allocator@_W@2@@std@@V?$set@P6AXPB_W_J@ZU?$less@P6AXPB_W_J@Z@std@@V?$allocator@P6AXPB_W_J@Z@2@@2@U?$less@V?$basic_string@_WU?$char_traits@_W@std@@V?$allocator@_W@2@@std@@@2@V?$allocator@U?$pair@$$CBV?$basic_string@_WU?$char_traits@_W@std@@V?$allocator@_W@2@@std@@V?$set@P6AXPB_W_J@ZU?$less@P6AXPB_W_J@Z@std@@V?$allocator@P6AXPB_W_J@Z@2@@2@@std@@@2@$0A@@std@@@std@@SAAAPAU_Node@?$_Tree_nod@V?$_Tmap_traits@V?$basic_string@_WU?$char_traits@_W@std@@V?$allocator@_W@2@@std@@V?$set@P6AXPB_W_J@ZU?$less@P6AXPB_W_J@Z@std@@V?$allocator@P6AXPB_W_J@Z@2@@2@U?$less@V?$basic_string@_WU?$char_traits@_W@std@@V?$allocator@_W@2@@std@@@2@V?$allocator@U?$pair@$$CBV?$basic_string@_WU?$char_traits@_W@std@@V?$allocator@_W@2@@std@@V?$set@P6AXPB_W_J@ZU?$less@P6AXPB_W_J@Z@std@@V?$allocator@P6AXPB_W_J@Z@2@@2@@std@@@2@$0A@@std@@@2@PAU342@@Z 10048f60 f i mcdiskcheck.obj
 0002:00046f90       ?_Parent@?$_Tree_val@V?$_Tmap_traits@V?$basic_string@_WU?$char_traits@_W@std@@V?$allocator@_W@2@@std@@V?$set@P6AXPB_W_J@ZU?$less@P6AXPB_W_J@Z@std@@V?$allocator@P6AXPB_W_J@Z@2@@2@U?$less@V?$basic_string@_WU?$char_traits@_W@std@@V?$allocator@_W@2@@std@@@2@V?$allocator@U?$pair@$$CBV?$basic_string@_WU?$char_traits@_W@std@@V?$allocator@_W@2@@std@@V?$set@P6AXPB_W_J@ZU?$less@P6AXPB_W_J@Z@std@@V?$allocator@P6AXPB_W_J@Z@2@@2@@std@@@2@$0A@@std@@@std@@SAAAPAU_Node@?$_Tree_nod@V?$_Tmap_traits@V?$basic_string@_WU?$char_traits@_W@std@@V?$allocator@_W@2@@std@@V?$set@P6AXPB_W_J@ZU?$less@P6AXPB_W_J@Z@std@@V?$allocator@P6AXPB_W_J@Z@2@@2@U?$less@V?$basic_string@_WU?$char_traits@_W@std@@V?$allocator@_W@2@@std@@@2@V?$allocator@U?$pair@$$CBV?$basic_string@_WU?$char_traits@_W@std@@V?$allocator@_W@2@@std@@V?$set@P6AXPB_W_J@ZU?$less@P6AXPB_W_J@Z@std@@V?$allocator@P6AXPB_W_J@Z@2@@2@@std@@@2@$0A@@std@@@2@PAU342@@Z 10048f90 f i mcdiskcheck.obj
 0002:00046fc0       ?_Right@?$_Tree_val@V?$_Tmap_traits@V?$basic_string@_WU?$char_traits@_W@std@@V?$allocator@_W@2@@std@@V?$set@P6AXPB_W_J@ZU?$less@P6AXPB_W_J@Z@std@@V?$allocator@P6AXPB_W_J@Z@2@@2@U?$less@V?$basic_string@_WU?$char_traits@_W@std@@V?$allocator@_W@2@@std@@@2@V?$allocator@U?$pair@$$CBV?$basic_string@_WU?$char_traits@_W@std@@V?$allocator@_W@2@@std@@V?$set@P6AXPB_W_J@ZU?$less@P6AXPB_W_J@Z@std@@V?$allocator@P6AXPB_W_J@Z@2@@2@@std@@@2@$0A@@std@@@std@@SAAAPAU_Node@?$_Tree_nod@V?$_Tmap_traits@V?$basic_string@_WU?$char_traits@_W@std@@V?$allocator@_W@2@@std@@V?$set@P6AXPB_W_J@ZU?$less@P6AXPB_W_J@Z@std@@V?$allocator@P6AXPB_W_J@Z@2@@2@U?$less@V?$basic_string@_WU?$char_traits@_W@std@@V?$allocator@_W@2@@std@@@2@V?$allocator@U?$pair@$$CBV?$basic_string@_WU?$char_traits@_W@std@@V?$allocator@_W@2@@std@@V?$set@P6AXPB_W_J@ZU?$less@P6AXPB_W_J@Z@std@@V?$allocator@P6AXPB_W_J@Z@2@@2@@std@@@2@$0A@@std@@@2@PAU342@@Z 10048fc0 f i mcdiskcheck.obj
 0002:00046ff0       ?_Myval@?$_Tree_val@V?$_Tmap_traits@V?$basic_string@_WU?$char_traits@_W@std@@V?$allocator@_W@2@@std@@V?$set@P6AXPB_W_J@ZU?$less@P6AXPB_W_J@Z@std@@V?$allocator@P6AXPB_W_J@Z@2@@2@U?$less@V?$basic_string@_WU?$char_traits@_W@std@@V?$allocator@_W@2@@std@@@2@V?$allocator@U?$pair@$$CBV?$basic_string@_WU?$char_traits@_W@std@@V?$allocator@_W@2@@std@@V?$set@P6AXPB_W_J@ZU?$less@P6AXPB_W_J@Z@std@@V?$allocator@P6AXPB_W_J@Z@2@@2@@std@@@2@$0A@@std@@@std@@SAAAU?$pair@$$CBV?$basic_string@_WU?$char_traits@_W@std@@V?$allocator@_W@2@@std@@V?$set@P6AXPB_W_J@ZU?$less@P6AXPB_W_J@Z@std@@V?$allocator@P6AXPB_W_J@Z@2@@2@@2@PAU_Node@?$_Tree_nod@V?$_Tmap_traits@V?$basic_string@_WU?$char_traits@_W@std@@V?$allocator@_W@2@@std@@V?$set@P6AXPB_W_J@ZU?$less@P6AXPB_W_J@Z@std@@V?$allocator@P6AXPB_W_J@Z@2@@2@U?$less@V?$basic_string@_WU?$char_traits@_W@std@@V?$allocator@_W@2@@std@@@2@V?$allocator@U?$pair@$$CBV?$basic_string@_WU?$char_traits@_W@std@@V?$allocator@_W@2@@std@@V?$set@P6AXPB_W_J@ZU?$less@P6AXPB_W_J@Z@std@@V?$allocator@P6AXPB_W_J@Z@2@@2@@std@@@2@$0A@@std@@@2@@Z 10048ff0 f i mcdiskcheck.obj
 0002:00047020       ?_Max@?$_Tree_val@V?$_Tmap_traits@V?$basic_string@_WU?$char_traits@_W@std@@V?$allocator@_W@2@@std@@V?$set@P6AXPB_W_J@ZU?$less@P6AXPB_W_J@Z@std@@V?$allocator@P6AXPB_W_J@Z@2@@2@U?$less@V?$basic_string@_WU?$char_traits@_W@std@@V?$allocator@_W@2@@std@@@2@V?$allocator@U?$pair@$$CBV?$basic_string@_WU?$char_traits@_W@std@@V?$allocator@_W@2@@std@@V?$set@P6AXPB_W_J@ZU?$less@P6AXPB_W_J@Z@std@@V?$allocator@P6AXPB_W_J@Z@2@@2@@std@@@2@$0A@@std@@@std@@SAPAU_Node@?$_Tree_nod@V?$_Tmap_traits@V?$basic_string@_WU?$char_traits@_W@std@@V?$allocator@_W@2@@std@@V?$set@P6AXPB_W_J@ZU?$less@P6AXPB_W_J@Z@std@@V?$allocator@P6AXPB_W_J@Z@2@@2@U?$less@V?$basic_string@_WU?$char_traits@_W@std@@V?$allocator@_W@2@@std@@@2@V?$allocator@U?$pair@$$CBV?$basic_string@_WU?$char_traits@_W@std@@V?$allocator@_W@2@@std@@V?$set@P6AXPB_W_J@ZU?$less@P6AXPB_W_J@Z@std@@V?$allocator@P6AXPB_W_J@Z@2@@2@@std@@@2@$0A@@std@@@2@PAU342@@Z 10049020 f i mcdiskcheck.obj
 0002:00047090       ?_Min@?$_Tree_val@V?$_Tmap_traits@V?$basic_string@_WU?$char_traits@_W@std@@V?$allocator@_W@2@@std@@V?$set@P6AXPB_W_J@ZU?$less@P6AXPB_W_J@Z@std@@V?$allocator@P6AXPB_W_J@Z@2@@2@U?$less@V?$basic_string@_WU?$char_traits@_W@std@@V?$allocator@_W@2@@std@@@2@V?$allocator@U?$pair@$$CBV?$basic_string@_WU?$char_traits@_W@std@@V?$allocator@_W@2@@std@@V?$set@P6AXPB_W_J@ZU?$less@P6AXPB_W_J@Z@std@@V?$allocator@P6AXPB_W_J@Z@2@@2@@std@@@2@$0A@@std@@@std@@SAPAU_Node@?$_Tree_nod@V?$_Tmap_traits@V?$basic_string@_WU?$char_traits@_W@std@@V?$allocator@_W@2@@std@@V?$set@P6AXPB_W_J@ZU?$less@P6AXPB_W_J@Z@std@@V?$allocator@P6AXPB_W_J@Z@2@@2@U?$less@V?$basic_string@_WU?$char_traits@_W@std@@V?$allocator@_W@2@@std@@@2@V?$allocator@U?$pair@$$CBV?$basic_string@_WU?$char_traits@_W@std@@V?$allocator@_W@2@@std@@V?$set@P6AXPB_W_J@ZU?$less@P6AXPB_W_J@Z@std@@V?$allocator@P6AXPB_W_J@Z@2@@2@@std@@@2@$0A@@std@@@2@PAU342@@Z 10049090 f i mcdiskcheck.obj
 0002:00047100       ??R?$less@V?$basic_string@_WU?$char_traits@_W@std@@V?$allocator@_W@2@@std@@@std@@QBE_NABV?$basic_string@_WU?$char_traits@_W@std@@V?$allocator@_W@2@@1@0@Z 10049100 f i mcdiskcheck.obj
 0002:00047150       ?deallocate@?$allocator@U_Node@?$_Tree_nod@V?$_Tmap_traits@V?$basic_string@_WU?$char_traits@_W@std@@V?$allocator@_W@2@@std@@V?$set@P6AXPB_W_J@ZU?$less@P6AXPB_W_J@Z@std@@V?$allocator@P6AXPB_W_J@Z@2@@2@U?$less@V?$basic_string@_WU?$char_traits@_W@std@@V?$allocator@_W@2@@std@@@2@V?$allocator@U?$pair@$$CBV?$basic_string@_WU?$char_traits@_W@std@@V?$allocator@_W@2@@std@@V?$set@P6AXPB_W_J@ZU?$less@P6AXPB_W_J@Z@std@@V?$allocator@P6AXPB_W_J@Z@2@@2@@std@@@2@$0A@@std@@@std@@@std@@QAEXPAU_Node@?$_Tree_nod@V?$_Tmap_traits@V?$basic_string@_WU?$char_traits@_W@std@@V?$allocator@_W@2@@std@@V?$set@P6AXPB_W_J@ZU?$less@P6AXPB_W_J@Z@std@@V?$allocator@P6AXPB_W_J@Z@2@@2@U?$less@V?$basic_string@_WU?$char_traits@_W@std@@V?$allocator@_W@2@@std@@@2@V?$allocator@U?$pair@$$CBV?$basic_string@_WU?$char_traits@_W@std@@V?$allocator@_W@2@@std@@V?$set@P6AXPB_W_J@ZU?$less@P6AXPB_W_J@Z@std@@V?$allocator@P6AXPB_W_J@Z@2@@2@@std@@@2@$0A@@std@@@2@I@Z 10049150 f i mcdiskcheck.obj
 0002:000471a0       ??0?$_Tree_iterator@V?$_Tree_val@V?$_Tmap_traits@V?$basic_string@_WU?$char_traits@_W@std@@V?$allocator@_W@2@@std@@V?$set@P6AXPB_W_J@ZU?$less@P6AXPB_W_J@Z@std@@V?$allocator@P6AXPB_W_J@Z@2@@2@U?$less@V?$basic_string@_WU?$char_traits@_W@std@@V?$allocator@_W@2@@std@@@2@V?$allocator@U?$pair@$$CBV?$basic_string@_WU?$char_traits@_W@std@@V?$allocator@_W@2@@std@@V?$set@P6AXPB_W_J@ZU?$less@P6AXPB_W_J@Z@std@@V?$allocator@P6AXPB_W_J@Z@2@@2@@std@@@2@$0A@@std@@@std@@@std@@QAE@PAU_Node@?$_Tree_nod@V?$_Tmap_traits@V?$basic_string@_WU?$char_traits@_W@std@@V?$allocator@_W@2@@std@@V?$set@P6AXPB_W_J@ZU?$less@P6AXPB_W_J@Z@std@@V?$allocator@P6AXPB_W_J@Z@2@@2@U?$less@V?$basic_string@_WU?$char_traits@_W@std@@V?$allocator@_W@2@@std@@@2@V?$allocator@U?$pair@$$CBV?$basic_string@_WU?$char_traits@_W@std@@V?$allocator@_W@2@@std@@V?$set@P6AXPB_W_J@ZU?$less@P6AXPB_W_J@Z@std@@V?$allocator@P6AXPB_W_J@Z@2@@2@@std@@@2@$0A@@std@@@1@PBV?$_Tree_val@V?$_Tmap_traits@V?$basic_string@_WU?$char_traits@_W@std@@V?$allocator@_W@2@@std@@V?$set@P6AXPB_W_J@ZU?$less@P6AXPB_W_J@Z@std@@V?$allocator@P6AXPB_W_J@Z@2@@2@U?$less@V?$basic_string@_WU?$char_traits@_W@std@@V?$allocator@_W@2@@std@@@2@V?$allocator@U?$pair@$$CBV?$basic_string@_WU?$char_traits@_W@std@@V?$allocator@_W@2@@std@@V?$set@P6AXPB_W_J@ZU?$less@P6AXPB_W_J@Z@std@@V?$allocator@P6AXPB_W_J@Z@2@@2@@std@@@2@$0A@@std@@@1@@Z 100491a0 f i mcdiskcheck.obj
 0002:000471f0       ??D?$_Tree_iterator@V?$_Tree_val@V?$_Tmap_traits@V?$basic_string@_WU?$char_traits@_W@std@@V?$allocator@_W@2@@std@@V?$set@P6AXPB_W_J@ZU?$less@P6AXPB_W_J@Z@std@@V?$allocator@P6AXPB_W_J@Z@2@@2@U?$less@V?$basic_string@_WU?$char_traits@_W@std@@V?$allocator@_W@2@@std@@@2@V?$allocator@U?$pair@$$CBV?$basic_string@_WU?$char_traits@_W@std@@V?$allocator@_W@2@@std@@V?$set@P6AXPB_W_J@ZU?$less@P6AXPB_W_J@Z@std@@V?$allocator@P6AXPB_W_J@Z@2@@2@@std@@@2@$0A@@std@@@std@@@std@@QBEAAU?$pair@$$CBV?$basic_string@_WU?$char_traits@_W@std@@V?$allocator@_W@2@@std@@V?$set@P6AXPB_W_J@ZU?$less@P6AXPB_W_J@Z@std@@V?$allocator@P6AXPB_W_J@Z@2@@2@@1@XZ 100491f0 f i mcdiskcheck.obj
 0002:00047230       ??E?$_Tree_const_iterator@V?$_Tree_val@V?$_Tmap_traits@V?$basic_string@_WU?$char_traits@_W@std@@V?$allocator@_W@2@@std@@V?$set@P6AXPB_W_J@ZU?$less@P6AXPB_W_J@Z@std@@V?$allocator@P6AXPB_W_J@Z@2@@2@U?$less@V?$basic_string@_WU?$char_traits@_W@std@@V?$allocator@_W@2@@std@@@2@V?$allocator@U?$pair@$$CBV?$basic_string@_WU?$char_traits@_W@std@@V?$allocator@_W@2@@std@@V?$set@P6AXPB_W_J@ZU?$less@P6AXPB_W_J@Z@std@@V?$allocator@P6AXPB_W_J@Z@2@@2@@std@@@2@$0A@@std@@@std@@@std@@QAEAAV01@XZ 10049230 f i mcdiskcheck.obj
 0002:00047280       ?_Mynode@?$_Tree_unchecked_const_iterator@V?$_Tree_val@V?$_Tmap_traits@V?$basic_string@_WU?$char_traits@_W@std@@V?$allocator@_W@2@@std@@V?$set@P6AXPB_W_J@ZU?$less@P6AXPB_W_J@Z@std@@V?$allocator@P6AXPB_W_J@Z@2@@2@U?$less@V?$basic_string@_WU?$char_traits@_W@std@@V?$allocator@_W@2@@std@@@2@V?$allocator@U?$pair@$$CBV?$basic_string@_WU?$char_traits@_W@std@@V?$allocator@_W@2@@std@@V?$set@P6AXPB_W_J@ZU?$less@P6AXPB_W_J@Z@std@@V?$allocator@P6AXPB_W_J@Z@2@@2@@std@@@2@$0A@@std@@@std@@U_Iterator_base0@2@@std@@QBEPAU_Node@?$_Tree_nod@V?$_Tmap_traits@V?$basic_string@_WU?$char_traits@_W@std@@V?$allocator@_W@2@@std@@V?$set@P6AXPB_W_J@ZU?$less@P6AXPB_W_J@Z@std@@V?$allocator@P6AXPB_W_J@Z@2@@2@U?$less@V?$basic_string@_WU?$char_traits@_W@std@@V?$allocator@_W@2@@std@@@2@V?$allocator@U?$pair@$$CBV?$basic_string@_WU?$char_traits@_W@std@@V?$allocator@_W@2@@std@@V?$set@P6AXPB_W_J@ZU?$less@P6AXPB_W_J@Z@std@@V?$allocator@P6AXPB_W_J@Z@2@@2@@std@@@2@$0A@@std@@@2@XZ 10049280 f i mcdiskcheck.obj
 0002:000472b0       ??0?$_Tree@V?$_Tset_traits@P6AXPB_W_J@ZU?$less@P6AXPB_W_J@Z@std@@V?$allocator@P6AXPB_W_J@Z@2@$0A@@std@@@std@@QAE@ABU?$less@P6AXPB_W_J@Z@1@ABV?$allocator@P6AXPB_W_J@Z@1@@Z 100492b0 f i mcdiskcheck.obj
 0002:00047310       ?size@?$_Tree@V?$_Tset_traits@P6AXPB_W_J@ZU?$less@P6AXPB_W_J@Z@std@@V?$allocator@P6AXPB_W_J@Z@2@$0A@@std@@@std@@QBEIXZ 10049310 f i mcdiskcheck.obj
 0002:00047340       ?lower_bound@?$_Tree@V?$_Tset_traits@P6AXPB_W_J@ZU?$less@P6AXPB_W_J@Z@std@@V?$allocator@P6AXPB_W_J@Z@2@$0A@@std@@@std@@QAE?AV?$_Tree_const_iterator@V?$_Tree_val@V?$_Tset_traits@P6AXPB_W_J@ZU?$less@P6AXPB_W_J@Z@std@@V?$allocator@P6AXPB_W_J@Z@2@$0A@@std@@@std@@@2@ABQ6AXPB_W_J@Z@Z 10049340 f i mcdiskcheck.obj
 0002:000473a0       ?_Lmost@?$_Tree@V?$_Tset_traits@P6AXPB_W_J@ZU?$less@P6AXPB_W_J@Z@std@@V?$allocator@P6AXPB_W_J@Z@2@$0A@@std@@@std@@IBEAAPAU_Node@?$_Tree_nod@V?$_Tset_traits@P6AXPB_W_J@ZU?$less@P6AXPB_W_J@Z@std@@V?$allocator@P6AXPB_W_J@Z@2@$0A@@std@@@2@XZ 100493a0 f i mcdiskcheck.obj
 0002:000473f0       ?_Lrotate@?$_Tree@V?$_Tset_traits@P6AXPB_W_J@ZU?$less@P6AXPB_W_J@Z@std@@V?$allocator@P6AXPB_W_J@Z@2@$0A@@std@@@std@@IAEXPAU_Node@?$_Tree_nod@V?$_Tset_traits@P6AXPB_W_J@ZU?$less@P6AXPB_W_J@Z@std@@V?$allocator@P6AXPB_W_J@Z@2@$0A@@std@@@2@@Z 100493f0 f i mcdiskcheck.obj
 0002:00047550       ?_Rmost@?$_Tree@V?$_Tset_traits@P6AXPB_W_J@ZU?$less@P6AXPB_W_J@Z@std@@V?$allocator@P6AXPB_W_J@Z@2@$0A@@std@@@std@@IBEAAPAU_Node@?$_Tree_nod@V?$_Tset_traits@P6AXPB_W_J@ZU?$less@P6AXPB_W_J@Z@std@@V?$allocator@P6AXPB_W_J@Z@2@$0A@@std@@@2@XZ 10049550 f i mcdiskcheck.obj
 0002:000475a0       ?_Root@?$_Tree@V?$_Tset_traits@P6AXPB_W_J@ZU?$less@P6AXPB_W_J@Z@std@@V?$allocator@P6AXPB_W_J@Z@2@$0A@@std@@@std@@IBEAAPAU_Node@?$_Tree_nod@V?$_Tset_traits@P6AXPB_W_J@ZU?$less@P6AXPB_W_J@Z@std@@V?$allocator@P6AXPB_W_J@Z@2@$0A@@std@@@2@XZ 100495a0 f i mcdiskcheck.obj
 0002:000475f0       ?_Rrotate@?$_Tree@V?$_Tset_traits@P6AXPB_W_J@ZU?$less@P6AXPB_W_J@Z@std@@V?$allocator@P6AXPB_W_J@Z@2@$0A@@std@@@std@@IAEXPAU_Node@?$_Tree_nod@V?$_Tset_traits@P6AXPB_W_J@ZU?$less@P6AXPB_W_J@Z@std@@V?$allocator@P6AXPB_W_J@Z@2@$0A@@std@@@2@@Z 100495f0 f i mcdiskcheck.obj
 0002:00047750       ?_Tidy@?$_Tree@V?$_Tset_traits@P6AXPB_W_J@ZU?$less@P6AXPB_W_J@Z@std@@V?$allocator@P6AXPB_W_J@Z@2@$0A@@std@@@std@@IAEXXZ 10049750 f i mcdiskcheck.obj
 0002:000477c0       ??1?$_Tree_val@V?$_Tset_traits@P6AXPB_W_J@ZU?$less@P6AXPB_W_J@Z@std@@V?$allocator@P6AXPB_W_J@Z@2@$0A@@std@@@std@@QAE@XZ 100497c0 f i mcdiskcheck.obj
 0002:00047810       ?_Color@?$_Tree_val@V?$_Tset_traits@P6AXPB_W_J@ZU?$less@P6AXPB_W_J@Z@std@@V?$allocator@P6AXPB_W_J@Z@2@$0A@@std@@@std@@SAAADPAU_Node@?$_Tree_nod@V?$_Tset_traits@P6AXPB_W_J@ZU?$less@P6AXPB_W_J@Z@std@@V?$allocator@P6AXPB_W_J@Z@2@$0A@@std@@@2@@Z 10049810 f i mcdiskcheck.obj
 0002:00047840       ?_Isnil@?$_Tree_val@V?$_Tset_traits@P6AXPB_W_J@ZU?$less@P6AXPB_W_J@Z@std@@V?$allocator@P6AXPB_W_J@Z@2@$0A@@std@@@std@@SAAADPAU_Node@?$_Tree_nod@V?$_Tset_traits@P6AXPB_W_J@ZU?$less@P6AXPB_W_J@Z@std@@V?$allocator@P6AXPB_W_J@Z@2@$0A@@std@@@2@@Z 10049840 f i mcdiskcheck.obj
 0002:00047870       ?_Key@?$_Tree_val@V?$_Tset_traits@P6AXPB_W_J@ZU?$less@P6AXPB_W_J@Z@std@@V?$allocator@P6AXPB_W_J@Z@2@$0A@@std@@@std@@SAAAP6AXPB_W_J@ZPAU_Node@?$_Tree_nod@V?$_Tset_traits@P6AXPB_W_J@ZU?$less@P6AXPB_W_J@Z@std@@V?$allocator@P6AXPB_W_J@Z@2@$0A@@std@@@2@@Z 10049870 f i mcdiskcheck.obj
 0002:000478c0       ?_Left@?$_Tree_val@V?$_Tset_traits@P6AXPB_W_J@ZU?$less@P6AXPB_W_J@Z@std@@V?$allocator@P6AXPB_W_J@Z@2@$0A@@std@@@std@@SAAAPAU_Node@?$_Tree_nod@V?$_Tset_traits@P6AXPB_W_J@ZU?$less@P6AXPB_W_J@Z@std@@V?$allocator@P6AXPB_W_J@Z@2@$0A@@std@@@2@PAU342@@Z 100498c0 f i mcdiskcheck.obj
 0002:000478f0       ?_Parent@?$_Tree_val@V?$_Tset_traits@P6AXPB_W_J@ZU?$less@P6AXPB_W_J@Z@std@@V?$allocator@P6AXPB_W_J@Z@2@$0A@@std@@@std@@SAAAPAU_Node@?$_Tree_nod@V?$_Tset_traits@P6AXPB_W_J@ZU?$less@P6AXPB_W_J@Z@std@@V?$allocator@P6AXPB_W_J@Z@2@$0A@@std@@@2@PAU342@@Z 100498f0 f i mcdiskcheck.obj
 0002:00047920       ?_Right@?$_Tree_val@V?$_Tset_traits@P6AXPB_W_J@ZU?$less@P6AXPB_W_J@Z@std@@V?$allocator@P6AXPB_W_J@Z@2@$0A@@std@@@std@@SAAAPAU_Node@?$_Tree_nod@V?$_Tset_traits@P6AXPB_W_J@ZU?$less@P6AXPB_W_J@Z@std@@V?$allocator@P6AXPB_W_J@Z@2@$0A@@std@@@2@PAU342@@Z 10049920 f i mcdiskcheck.obj
 0002:00047950       ?_Myval@?$_Tree_val@V?$_Tset_traits@P6AXPB_W_J@ZU?$less@P6AXPB_W_J@Z@std@@V?$allocator@P6AXPB_W_J@Z@2@$0A@@std@@@std@@SAAAP6AXPB_W_J@ZPAU_Node@?$_Tree_nod@V?$_Tset_traits@P6AXPB_W_J@ZU?$less@P6AXPB_W_J@Z@std@@V?$allocator@P6AXPB_W_J@Z@2@$0A@@std@@@2@@Z 10049950 f i mcdiskcheck.obj
 0002:00047980       ?_Max@?$_Tree_val@V?$_Tset_traits@P6AXPB_W_J@ZU?$less@P6AXPB_W_J@Z@std@@V?$allocator@P6AXPB_W_J@Z@2@$0A@@std@@@std@@SAPAU_Node@?$_Tree_nod@V?$_Tset_traits@P6AXPB_W_J@ZU?$less@P6AXPB_W_J@Z@std@@V?$allocator@P6AXPB_W_J@Z@2@$0A@@std@@@2@PAU342@@Z 10049980 f i mcdiskcheck.obj
 0002:000479f0       ?_Min@?$_Tree_val@V?$_Tset_traits@P6AXPB_W_J@ZU?$less@P6AXPB_W_J@Z@std@@V?$allocator@P6AXPB_W_J@Z@2@$0A@@std@@@std@@SAPAU_Node@?$_Tree_nod@V?$_Tset_traits@P6AXPB_W_J@ZU?$less@P6AXPB_W_J@Z@std@@V?$allocator@P6AXPB_W_J@Z@2@$0A@@std@@@2@PAU342@@Z 100499f0 f i mcdiskcheck.obj
 0002:00047a60       ??0?$allocator@P6AXPB_W_J@Z@std@@QAE@XZ 10049a60 f i mcdiskcheck.obj
 0002:00047a90       ??R?$less@P6AXPB_W_J@Z@std@@QBE_NABQ6AXPB_W_J@Z2@Z 10049a90 f i mcdiskcheck.obj
 0002:00047ad0       ?deallocate@?$allocator@U_Node@?$_Tree_nod@V?$_Tset_traits@P6AXPB_W_J@ZU?$less@P6AXPB_W_J@Z@std@@V?$allocator@P6AXPB_W_J@Z@2@$0A@@std@@@std@@@std@@QAEXPAU_Node@?$_Tree_nod@V?$_Tset_traits@P6AXPB_W_J@ZU?$less@P6AXPB_W_J@Z@std@@V?$allocator@P6AXPB_W_J@Z@2@$0A@@std@@@2@I@Z 10049ad0 f i mcdiskcheck.obj
 0002:00047b20       ??0?$_Tree_const_iterator@V?$_Tree_val@V?$_Tset_traits@P6AXPB_W_J@ZU?$less@P6AXPB_W_J@Z@std@@V?$allocator@P6AXPB_W_J@Z@2@$0A@@std@@@std@@@std@@QAE@PAU_Node@?$_Tree_nod@V?$_Tset_traits@P6AXPB_W_J@ZU?$less@P6AXPB_W_J@Z@std@@V?$allocator@P6AXPB_W_J@Z@2@$0A@@std@@@1@PBV?$_Tree_val@V?$_Tset_traits@P6AXPB_W_J@ZU?$less@P6AXPB_W_J@Z@std@@V?$allocator@P6AXPB_W_J@Z@2@$0A@@std@@@1@@Z 10049b20 f i mcdiskcheck.obj
 0002:00047b70       ??8?$_Tree_const_iterator@V?$_Tree_val@V?$_Tset_traits@P6AXPB_W_J@ZU?$less@P6AXPB_W_J@Z@std@@V?$allocator@P6AXPB_W_J@Z@2@$0A@@std@@@std@@@std@@QBE_NABV01@@Z 10049b70 f i mcdiskcheck.obj
 0002:00047bb0       ??E?$_Tree_unchecked_const_iterator@V?$_Tree_val@V?$_Tset_traits@P6AXPB_W_J@ZU?$less@P6AXPB_W_J@Z@std@@V?$allocator@P6AXPB_W_J@Z@2@$0A@@std@@@std@@U_Iterator_base0@2@@std@@QAEAAV01@XZ 10049bb0 f i mcdiskcheck.obj
 0002:00047ca0       ?_Mynode@?$_Tree_unchecked_const_iterator@V?$_Tree_val@V?$_Tset_traits@P6AXPB_W_J@ZU?$less@P6AXPB_W_J@Z@std@@V?$allocator@P6AXPB_W_J@Z@2@$0A@@std@@@std@@U_Iterator_base0@2@@std@@QBEPAU_Node@?$_Tree_nod@V?$_Tset_traits@P6AXPB_W_J@ZU?$less@P6AXPB_W_J@Z@std@@V?$allocator@P6AXPB_W_J@Z@2@$0A@@std@@@2@XZ 10049ca0 f i mcdiskcheck.obj
 0002:00047cd0       ?_Lbound@?$_Tree@V?$_Tmap_traits@V?$basic_string@_WU?$char_traits@_W@std@@V?$allocator@_W@2@@std@@V?$set@P6AXPB_W_J@ZU?$less@P6AXPB_W_J@Z@std@@V?$allocator@P6AXPB_W_J@Z@2@@2@U?$less@V?$basic_string@_WU?$char_traits@_W@std@@V?$allocator@_W@2@@std@@@2@V?$allocator@U?$pair@$$CBV?$basic_string@_WU?$char_traits@_W@std@@V?$allocator@_W@2@@std@@V?$set@P6AXPB_W_J@ZU?$less@P6AXPB_W_J@Z@std@@V?$allocator@P6AXPB_W_J@Z@2@@2@@std@@@2@$0A@@std@@@std@@IAEPAU_Node@?$_Tree_nod@V?$_Tmap_traits@V?$basic_string@_WU?$char_traits@_W@std@@V?$allocator@_W@2@@std@@V?$set@P6AXPB_W_J@ZU?$less@P6AXPB_W_J@Z@std@@V?$allocator@P6AXPB_W_J@Z@2@@2@U?$less@V?$basic_string@_WU?$char_traits@_W@std@@V?$allocator@_W@2@@std@@@2@V?$allocator@U?$pair@$$CBV?$basic_string@_WU?$char_traits@_W@std@@V?$allocator@_W@2@@std@@V?$set@P6AXPB_W_J@ZU?$less@P6AXPB_W_J@Z@std@@V?$allocator@P6AXPB_W_J@Z@2@@2@@std@@@2@$0A@@std@@@2@ABV?$basic_string@_WU?$char_traits@_W@std@@V?$allocator@_W@2@@2@@Z 10049cd0 f i mcdiskcheck.obj
 0002:00047d90       ??0?$_Tree_const_iterator@V?$_Tree_val@V?$_Tmap_traits@V?$basic_string@_WU?$char_traits@_W@std@@V?$allocator@_W@2@@std@@V?$set@P6AXPB_W_J@ZU?$less@P6AXPB_W_J@Z@std@@V?$allocator@P6AXPB_W_J@Z@2@@2@U?$less@V?$basic_string@_WU?$char_traits@_W@std@@V?$allocator@_W@2@@std@@@2@V?$allocator@U?$pair@$$CBV?$basic_string@_WU?$char_traits@_W@std@@V?$allocator@_W@2@@std@@V?$set@P6AXPB_W_J@ZU?$less@P6AXPB_W_J@Z@std@@V?$allocator@P6AXPB_W_J@Z@2@@2@@std@@@2@$0A@@std@@@std@@@std@@QAE@PAU_Node@?$_Tree_nod@V?$_Tmap_traits@V?$basic_string@_WU?$char_traits@_W@std@@V?$allocator@_W@2@@std@@V?$set@P6AXPB_W_J@ZU?$less@P6AXPB_W_J@Z@std@@V?$allocator@P6AXPB_W_J@Z@2@@2@U?$less@V?$basic_string@_WU?$char_traits@_W@std@@V?$allocator@_W@2@@std@@@2@V?$allocator@U?$pair@$$CBV?$basic_string@_WU?$char_traits@_W@std@@V?$allocator@_W@2@@std@@V?$set@P6AXPB_W_J@ZU?$less@P6AXPB_W_J@Z@std@@V?$allocator@P6AXPB_W_J@Z@2@@2@@std@@@2@$0A@@std@@@1@PBV?$_Tree_val@V?$_Tmap_traits@V?$basic_string@_WU?$char_traits@_W@std@@V?$allocator@_W@2@@std@@V?$set@P6AXPB_W_J@ZU?$less@P6AXPB_W_J@Z@std@@V?$allocator@P6AXPB_W_J@Z@2@@2@U?$less@V?$basic_string@_WU?$char_traits@_W@std@@V?$allocator@_W@2@@std@@@2@V?$allocator@U?$pair@$$CBV?$basic_string@_WU?$char_traits@_W@std@@V?$allocator@_W@2@@std@@V?$set@P6AXPB_W_J@ZU?$less@P6AXPB_W_J@Z@std@@V?$allocator@P6AXPB_W_J@Z@2@@2@@std@@@2@$0A@@std@@@1@@Z 10049d90 f i mcdiskcheck.obj
 0002:00047de0       ??D?$_Tree_const_iterator@V?$_Tree_val@V?$_Tmap_traits@V?$basic_string@_WU?$char_traits@_W@std@@V?$allocator@_W@2@@std@@V?$set@P6AXPB_W_J@ZU?$less@P6AXPB_W_J@Z@std@@V?$allocator@P6AXPB_W_J@Z@2@@2@U?$less@V?$basic_string@_WU?$char_traits@_W@std@@V?$allocator@_W@2@@std@@@2@V?$allocator@U?$pair@$$CBV?$basic_string@_WU?$char_traits@_W@std@@V?$allocator@_W@2@@std@@V?$set@P6AXPB_W_J@ZU?$less@P6AXPB_W_J@Z@std@@V?$allocator@P6AXPB_W_J@Z@2@@2@@std@@@2@$0A@@std@@@std@@@std@@QBEABU?$pair@$$CBV?$basic_string@_WU?$char_traits@_W@std@@V?$allocator@_W@2@@std@@V?$set@P6AXPB_W_J@ZU?$less@P6AXPB_W_J@Z@std@@V?$allocator@P6AXPB_W_J@Z@2@@2@@1@XZ 10049de0 f i mcdiskcheck.obj
 0002:00047e30       ??E?$_Tree_unchecked_const_iterator@V?$_Tree_val@V?$_Tmap_traits@V?$basic_string@_WU?$char_traits@_W@std@@V?$allocator@_W@2@@std@@V?$set@P6AXPB_W_J@ZU?$less@P6AXPB_W_J@Z@std@@V?$allocator@P6AXPB_W_J@Z@2@@2@U?$less@V?$basic_string@_WU?$char_traits@_W@std@@V?$allocator@_W@2@@std@@@2@V?$allocator@U?$pair@$$CBV?$basic_string@_WU?$char_traits@_W@std@@V?$allocator@_W@2@@std@@V?$set@P6AXPB_W_J@ZU?$less@P6AXPB_W_J@Z@std@@V?$allocator@P6AXPB_W_J@Z@2@@2@@std@@@2@$0A@@std@@@std@@U_Iterator_base0@2@@std@@QAEAAV01@XZ 10049e30 f i mcdiskcheck.obj
 0002:00047f20       ?erase@?$_Tree@V?$_Tset_traits@P6AXPB_W_J@ZU?$less@P6AXPB_W_J@Z@std@@V?$allocator@P6AXPB_W_J@Z@2@$0A@@std@@@std@@QAE?AV?$_Tree_const_iterator@V?$_Tree_val@V?$_Tset_traits@P6AXPB_W_J@ZU?$less@P6AXPB_W_J@Z@std@@V?$allocator@P6AXPB_W_J@Z@2@$0A@@std@@@std@@@2@V32@0@Z 10049f20 f i mcdiskcheck.obj
 0002:00048000       ?_Lbound@?$_Tree@V?$_Tset_traits@P6AXPB_W_J@ZU?$less@P6AXPB_W_J@Z@std@@V?$allocator@P6AXPB_W_J@Z@2@$0A@@std@@@std@@IAEPAU_Node@?$_Tree_nod@V?$_Tset_traits@P6AXPB_W_J@ZU?$less@P6AXPB_W_J@Z@std@@V?$allocator@P6AXPB_W_J@Z@2@$0A@@std@@@2@ABQ6AXPB_W_J@Z@Z 1004a000 f i mcdiskcheck.obj
 0002:000480c0       ??0?$_Tree_val@V?$_Tset_traits@P6AXPB_W_J@ZU?$less@P6AXPB_W_J@Z@std@@V?$allocator@P6AXPB_W_J@Z@2@$0A@@std@@@std@@QAE@ABU?$less@P6AXPB_W_J@Z@1@V?$allocator@P6AXPB_W_J@Z@1@@Z 1004a0c0 f i mcdiskcheck.obj
 0002:000481a0       ?_Kfn@?$_Tset_traits@P6AXPB_W_J@ZU?$less@P6AXPB_W_J@Z@std@@V?$allocator@P6AXPB_W_J@Z@2@$0A@@std@@SAABQ6AXPB_W_J@ZABQ6AX01@Z@Z 1004a1a0 f i mcdiskcheck.obj
 0002:000481d0       ??0?$allocator@P6AXPB_W_J@Z@std@@QAE@ABV01@@Z 1004a1d0 f i mcdiskcheck.obj
 0002:00048200       ??0?$_Tree_unchecked_const_iterator@V?$_Tree_val@V?$_Tset_traits@P6AXPB_W_J@ZU?$less@P6AXPB_W_J@Z@std@@V?$allocator@P6AXPB_W_J@Z@2@$0A@@std@@@std@@U_Iterator_base0@2@@std@@QAE@PAU_Node@?$_Tree_nod@V?$_Tset_traits@P6AXPB_W_J@ZU?$less@P6AXPB_W_J@Z@std@@V?$allocator@P6AXPB_W_J@Z@2@$0A@@std@@@1@PBV?$_Tree_val@V?$_Tset_traits@P6AXPB_W_J@ZU?$less@P6AXPB_W_J@Z@std@@V?$allocator@P6AXPB_W_J@Z@2@$0A@@std@@@1@@Z 1004a200 f i mcdiskcheck.obj
 0002:00048250       ??0?$_Tree_unchecked_const_iterator@V?$_Tree_val@V?$_Tmap_traits@V?$basic_string@_WU?$char_traits@_W@std@@V?$allocator@_W@2@@std@@V?$set@P6AXPB_W_J@ZU?$less@P6AXPB_W_J@Z@std@@V?$allocator@P6AXPB_W_J@Z@2@@2@U?$less@V?$basic_string@_WU?$char_traits@_W@std@@V?$allocator@_W@2@@std@@@2@V?$allocator@U?$pair@$$CBV?$basic_string@_WU?$char_traits@_W@std@@V?$allocator@_W@2@@std@@V?$set@P6AXPB_W_J@ZU?$less@P6AXPB_W_J@Z@std@@V?$allocator@P6AXPB_W_J@Z@2@@2@@std@@@2@$0A@@std@@@std@@U_Iterator_base0@2@@std@@QAE@PAU_Node@?$_Tree_nod@V?$_Tmap_traits@V?$basic_string@_WU?$char_traits@_W@std@@V?$allocator@_W@2@@std@@V?$set@P6AXPB_W_J@ZU?$less@P6AXPB_W_J@Z@std@@V?$allocator@P6AXPB_W_J@Z@2@@2@U?$less@V?$basic_string@_WU?$char_traits@_W@std@@V?$allocator@_W@2@@std@@@2@V?$allocator@U?$pair@$$CBV?$basic_string@_WU?$char_traits@_W@std@@V?$allocator@_W@2@@std@@V?$set@P6AXPB_W_J@ZU?$less@P6AXPB_W_J@Z@std@@V?$allocator@P6AXPB_W_J@Z@2@@2@@std@@@2@$0A@@std@@@1@PBV?$_Tree_val@V?$_Tmap_traits@V?$basic_string@_WU?$char_traits@_W@std@@V?$allocator@_W@2@@std@@V?$set@P6AXPB_W_J@ZU?$less@P6AXPB_W_J@Z@std@@V?$allocator@P6AXPB_W_J@Z@2@@2@U?$less@V?$basic_string@_WU?$char_traits@_W@std@@V?$allocator@_W@2@@std@@@2@V?$allocator@U?$pair@$$CBV?$basic_string@_WU?$char_traits@_W@std@@V?$allocator@_W@2@@std@@V?$set@P6AXPB_W_J@ZU?$less@P6AXPB_W_J@Z@std@@V?$allocator@P6AXPB_W_J@Z@2@@2@@std@@@2@$0A@@std@@@1@@Z 1004a250 f i mcdiskcheck.obj
 0002:000482a0       ?clear@?$_Tree@V?$_Tset_traits@P6AXPB_W_J@ZU?$less@P6AXPB_W_J@Z@std@@V?$allocator@P6AXPB_W_J@Z@2@$0A@@std@@@std@@QAEXXZ 1004a2a0 f i mcdiskcheck.obj
 0002:00048330       ??0?$_Tree_nod@V?$_Tset_traits@P6AXPB_W_J@ZU?$less@P6AXPB_W_J@Z@std@@V?$allocator@P6AXPB_W_J@Z@2@$0A@@std@@@std@@QAE@ABU?$less@P6AXPB_W_J@Z@1@V?$allocator@P6AXPB_W_J@Z@1@@Z 1004a330 f i mcdiskcheck.obj
 0002:000483a0       ?allocate@?$allocator@U_Node@?$_Tree_nod@V?$_Tset_traits@P6AXPB_W_J@ZU?$less@P6AXPB_W_J@Z@std@@V?$allocator@P6AXPB_W_J@Z@2@$0A@@std@@@std@@@std@@QAEPAU_Node@?$_Tree_nod@V?$_Tset_traits@P6AXPB_W_J@ZU?$less@P6AXPB_W_J@Z@std@@V?$allocator@P6AXPB_W_J@Z@2@$0A@@std@@@2@I@Z 1004a3a0 f i mcdiskcheck.obj
 0002:000483f0       ??E?$_Tree_const_iterator@V?$_Tree_val@V?$_Tset_traits@P6AXPB_W_J@ZU?$less@P6AXPB_W_J@Z@std@@V?$allocator@P6AXPB_W_J@Z@2@$0A@@std@@@std@@@std@@QAE?AV01@H@Z 1004a3f0 f i mcdiskcheck.obj
 0002:00048480       ?_Erase@?$_Tree@V?$_Tset_traits@P6AXPB_W_J@ZU?$less@P6AXPB_W_J@Z@std@@V?$allocator@P6AXPB_W_J@Z@2@$0A@@std@@@std@@IAEXPAU_Node@?$_Tree_nod@V?$_Tset_traits@P6AXPB_W_J@ZU?$less@P6AXPB_W_J@Z@std@@V?$allocator@P6AXPB_W_J@Z@2@$0A@@std@@@2@@Z 1004a480 f i mcdiskcheck.obj
 0002:00048540       ??0?$_Tset_traits@P6AXPB_W_J@ZU?$less@P6AXPB_W_J@Z@std@@V?$allocator@P6AXPB_W_J@Z@2@$0A@@std@@QAE@U?$less@P6AXPB_W_J@Z@1@@Z 1004a540 f i mcdiskcheck.obj
 0002:00048570       ??$insert@AAP6AXPB_W_J@Z@?$_Tree@V?$_Tset_traits@P6AXPB_W_J@ZU?$less@P6AXPB_W_J@Z@std@@V?$allocator@P6AXPB_W_J@Z@2@$0A@@std@@@std@@QAE?AU?$pair@V?$_Tree_const_iterator@V?$_Tree_val@V?$_Tset_traits@P6AXPB_W_J@ZU?$less@P6AXPB_W_J@Z@std@@V?$allocator@P6AXPB_W_J@Z@2@$0A@@std@@@std@@@std@@_N@1@AAP6AXPB_W_J@Z@Z 1004a570 f i mcdiskcheck.obj
 0002:000485d0       ??$make_pair@V?$basic_string@_WU?$char_traits@_W@std@@V?$allocator@_W@2@@std@@AAV?$set@P6AXPB_W_J@ZU?$less@P6AXPB_W_J@Z@std@@V?$allocator@P6AXPB_W_J@Z@2@@2@@std@@YA?AU?$pair@V?$basic_string@_WU?$char_traits@_W@std@@V?$allocator@_W@2@@std@@V?$set@P6AXPB_W_J@ZU?$less@P6AXPB_W_J@Z@std@@V?$allocator@P6AXPB_W_J@Z@2@@2@@0@$$QAV?$basic_string@_WU?$char_traits@_W@std@@V?$allocator@_W@2@@0@AAV?$set@P6AXPB_W_J@ZU?$less@P6AXPB_W_J@Z@std@@V?$allocator@P6AXPB_W_J@Z@2@@0@@Z 1004a5d0 f i mcdiskcheck.obj
 0002:00048640       ??$insert@U?$pair@V?$basic_string@_WU?$char_traits@_W@std@@V?$allocator@_W@2@@std@@V?$set@P6AXPB_W_J@ZU?$less@P6AXPB_W_J@Z@std@@V?$allocator@P6AXPB_W_J@Z@2@@2@@std@@@?$_Tree@V?$_Tmap_traits@V?$basic_string@_WU?$char_traits@_W@std@@V?$allocator@_W@2@@std@@V?$set@P6AXPB_W_J@ZU?$less@P6AXPB_W_J@Z@std@@V?$allocator@P6AXPB_W_J@Z@2@@2@U?$less@V?$basic_string@_WU?$char_traits@_W@std@@V?$allocator@_W@2@@std@@@2@V?$allocator@U?$pair@$$CBV?$basic_string@_WU?$char_traits@_W@std@@V?$allocator@_W@2@@std@@V?$set@P6AXPB_W_J@ZU?$less@P6AXPB_W_J@Z@std@@V?$allocator@P6AXPB_W_J@Z@2@@2@@std@@@2@$0A@@std@@@std@@QAE?AU?$pair@V?$_Tree_iterator@V?$_Tree_val@V?$_Tmap_traits@V?$basic_string@_WU?$char_traits@_W@std@@V?$allocator@_W@2@@std@@V?$set@P6AXPB_W_J@ZU?$less@P6AXPB_W_J@Z@std@@V?$allocator@P6AXPB_W_J@Z@2@@2@U?$less@V?$basic_string@_WU?$char_traits@_W@std@@V?$allocator@_W@2@@std@@@2@V?$allocator@U?$pair@$$CBV?$basic_string@_WU?$char_traits@_W@std@@V?$allocator@_W@2@@std@@V?$set@P6AXPB_W_J@ZU?$less@P6AXPB_W_J@Z@std@@V?$allocator@P6AXPB_W_J@Z@2@@2@@std@@@2@$0A@@std@@@std@@@std@@_N@1@$$QAU?$pair@V?$basic_string@_WU?$char_traits@_W@std@@V?$allocator@_W@2@@std@@V?$set@P6AXPB_W_J@ZU?$less@P6AXPB_W_J@Z@std@@V?$allocator@P6AXPB_W_J@Z@2@@2@@1@@Z 1004a640 f i mcdiskcheck.obj
 0002:000486a0       ??$swap@D@std@@YAXAAD0@Z   1004a6a0 f i mcdiskcheck.obj
 0002:00048740       ??$addressof@U?$pair@$$CBV?$basic_string@_WU?$char_traits@_W@std@@V?$allocator@_W@2@@std@@V?$set@P6AXPB_W_J@ZU?$less@P6AXPB_W_J@Z@std@@V?$allocator@P6AXPB_W_J@Z@2@@2@@std@@@std@@YAPAU?$pair@$$CBV?$basic_string@_WU?$char_traits@_W@std@@V?$allocator@_W@2@@std@@V?$set@P6AXPB_W_J@ZU?$less@P6AXPB_W_J@Z@std@@V?$allocator@P6AXPB_W_J@Z@2@@2@@0@AAU10@@Z 1004a740 f i mcdiskcheck.obj
 0002:00048770       ??$_Dest_val@V?$allocator@U?$pair@$$CBV?$basic_string@_WU?$char_traits@_W@std@@V?$allocator@_W@2@@std@@V?$set@P6AXPB_W_J@ZU?$less@P6AXPB_W_J@Z@std@@V?$allocator@P6AXPB_W_J@Z@2@@2@@std@@@std@@U?$pair@$$CBV?$basic_string@_WU?$char_traits@_W@std@@V?$allocator@_W@2@@std@@V?$set@P6AXPB_W_J@ZU?$less@P6AXPB_W_J@Z@std@@V?$allocator@P6AXPB_W_J@Z@2@@2@@2@@std@@YAXAAV?$allocator@U?$pair@$$CBV?$basic_string@_WU?$char_traits@_W@std@@V?$allocator@_W@2@@std@@V?$set@P6AXPB_W_J@ZU?$less@P6AXPB_W_J@Z@std@@V?$allocator@P6AXPB_W_J@Z@2@@2@@std@@@0@PAU?$pair@$$CBV?$basic_string@_WU?$char_traits@_W@std@@V?$allocator@_W@2@@std@@V?$set@P6AXPB_W_J@ZU?$less@P6AXPB_W_J@Z@std@@V?$allocator@P6AXPB_W_J@Z@2@@2@@0@@Z 1004a770 f i mcdiskcheck.obj
 0002:000487b0       ??$addressof@P6AXPB_W_J@Z@std@@YAPAP6AXPB_W_J@ZAAP6AX01@Z@Z 1004a7b0 f i mcdiskcheck.obj
 0002:000487e0       ??$_Dest_val@V?$allocator@P6AXPB_W_J@Z@std@@P6AXPB_W_J@Z@std@@YAXAAV?$allocator@P6AXPB_W_J@Z@0@PAP6AXPB_W_J@Z@Z 1004a7e0 f i mcdiskcheck.obj
 0002:00048820       ??$_Kfn@$$CBV?$basic_string@_WU?$char_traits@_W@std@@V?$allocator@_W@2@@std@@V?$set@P6AXPB_W_J@ZU?$less@P6AXPB_W_J@Z@std@@V?$allocator@P6AXPB_W_J@Z@2@@2@@?$_Tmap_traits@V?$basic_string@_WU?$char_traits@_W@std@@V?$allocator@_W@2@@std@@V?$set@P6AXPB_W_J@ZU?$less@P6AXPB_W_J@Z@std@@V?$allocator@P6AXPB_W_J@Z@2@@2@U?$less@V?$basic_string@_WU?$char_traits@_W@std@@V?$allocator@_W@2@@std@@@2@V?$allocator@U?$pair@$$CBV?$basic_string@_WU?$char_traits@_W@std@@V?$allocator@_W@2@@std@@V?$set@P6AXPB_W_J@ZU?$less@P6AXPB_W_J@Z@std@@V?$allocator@P6AXPB_W_J@Z@2@@2@@std@@@2@$0A@@std@@SAABV?$basic_string@_WU?$char_traits@_W@std@@V?$allocator@_W@2@@1@ABU?$pair@$$CBV?$basic_string@_WU?$char_traits@_W@std@@V?$allocator@_W@2@@std@@V?$set@P6AXPB_W_J@ZU?$less@P6AXPB_W_J@Z@std@@V?$allocator@P6AXPB_W_J@Z@2@@2@@1@@Z 1004a820 f i mcdiskcheck.obj
 0002:00048850       ??$?M_WU?$char_traits@_W@std@@V?$allocator@_W@1@@std@@YA_NABV?$basic_string@_WU?$char_traits@_W@std@@V?$allocator@_W@2@@0@0@Z 1004a850 f i mcdiskcheck.obj
 0002:000488a0       ??$?0P6AXPB_W_J@Z@?$allocator@U_Node@?$_Tree_nod@V?$_Tset_traits@P6AXPB_W_J@ZU?$less@P6AXPB_W_J@Z@std@@V?$allocator@P6AXPB_W_J@Z@2@$0A@@std@@@std@@@std@@QAE@ABV?$allocator@P6AXPB_W_J@Z@1@@Z 1004a8a0 f i mcdiskcheck.obj
 0002:000488d0       ??$_Allocate@U_Node@?$_Tree_nod@V?$_Tset_traits@P6AXPB_W_J@ZU?$less@P6AXPB_W_J@Z@std@@V?$allocator@P6AXPB_W_J@Z@2@$0A@@std@@@std@@@std@@YAPAU_Node@?$_Tree_nod@V?$_Tset_traits@P6AXPB_W_J@ZU?$less@P6AXPB_W_J@Z@std@@V?$allocator@P6AXPB_W_J@Z@2@$0A@@std@@@0@IPAU120@@Z 1004a8d0 f i mcdiskcheck.obj
 0002:00048960       ?_Linsert@?$_Tree@V?$_Tmap_traits@V?$basic_string@_WU?$char_traits@_W@std@@V?$allocator@_W@2@@std@@V?$set@P6AXPB_W_J@ZU?$less@P6AXPB_W_J@Z@std@@V?$allocator@P6AXPB_W_J@Z@2@@2@U?$less@V?$basic_string@_WU?$char_traits@_W@std@@V?$allocator@_W@2@@std@@@2@V?$allocator@U?$pair@$$CBV?$basic_string@_WU?$char_traits@_W@std@@V?$allocator@_W@2@@std@@V?$set@P6AXPB_W_J@ZU?$less@P6AXPB_W_J@Z@std@@V?$allocator@P6AXPB_W_J@Z@2@@2@@std@@@2@$0A@@std@@@std@@QAE?AU?$pair@V?$_Tree_iterator@V?$_Tree_val@V?$_Tmap_traits@V?$basic_string@_WU?$char_traits@_W@std@@V?$allocator@_W@2@@std@@V?$set@P6AXPB_W_J@ZU?$less@P6AXPB_W_J@Z@std@@V?$allocator@P6AXPB_W_J@Z@2@@2@U?$less@V?$basic_string@_WU?$char_traits@_W@std@@V?$allocator@_W@2@@std@@@2@V?$allocator@U?$pair@$$CBV?$basic_string@_WU?$char_traits@_W@std@@V?$allocator@_W@2@@std@@V?$set@P6AXPB_W_J@ZU?$less@P6AXPB_W_J@Z@std@@V?$allocator@P6AXPB_W_J@Z@2@@2@@std@@@2@$0A@@std@@@std@@@std@@_N@2@PAU_Node@?$_Tree_nod@V?$_Tmap_traits@V?$basic_string@_WU?$char_traits@_W@std@@V?$allocator@_W@2@@std@@V?$set@P6AXPB_W_J@ZU?$less@P6AXPB_W_J@Z@std@@V?$allocator@P6AXPB_W_J@Z@2@@2@U?$less@V?$basic_string@_WU?$char_traits@_W@std@@V?$allocator@_W@2@@std@@@2@V?$allocator@U?$pair@$$CBV?$basic_string@_WU?$char_traits@_W@std@@V?$allocator@_W@2@@std@@V?$set@P6AXPB_W_J@ZU?$less@P6AXPB_W_J@Z@std@@V?$allocator@P6AXPB_W_J@Z@2@@2@@std@@@2@$0A@@std@@@2@_N@Z 1004a960 f i mcdiskcheck.obj
 0002:00048c30       ?destroy@?$allocator@U?$pair@$$CBV?$basic_string@_WU?$char_traits@_W@std@@V?$allocator@_W@2@@std@@V?$set@P6AXPB_W_J@ZU?$less@P6AXPB_W_J@Z@std@@V?$allocator@P6AXPB_W_J@Z@2@@2@@std@@@std@@QAEXPAU?$pair@$$CBV?$basic_string@_WU?$char_traits@_W@std@@V?$allocator@_W@2@@std@@V?$set@P6AXPB_W_J@ZU?$less@P6AXPB_W_J@Z@std@@V?$allocator@P6AXPB_W_J@Z@2@@2@@2@@Z 1004ac30 f i mcdiskcheck.obj
 0002:00048c80       ?_Linsert@?$_Tree@V?$_Tset_traits@P6AXPB_W_J@ZU?$less@P6AXPB_W_J@Z@std@@V?$allocator@P6AXPB_W_J@Z@2@$0A@@std@@@std@@QAE?AU?$pair@V?$_Tree_const_iterator@V?$_Tree_val@V?$_Tset_traits@P6AXPB_W_J@ZU?$less@P6AXPB_W_J@Z@std@@V?$allocator@P6AXPB_W_J@Z@2@$0A@@std@@@std@@@std@@_N@2@PAU_Node@?$_Tree_nod@V?$_Tset_traits@P6AXPB_W_J@ZU?$less@P6AXPB_W_J@Z@std@@V?$allocator@P6AXPB_W_J@Z@2@$0A@@std@@@2@_N@Z 1004ac80 f i mcdiskcheck.obj
 0002:00048f50       ?destroy@?$allocator@P6AXPB_W_J@Z@std@@QAEXPAP6AXPB_W_J@Z@Z 1004af50 f i mcdiskcheck.obj
 0002:00048fa0       ?_Insert@?$_Tree@V?$_Tmap_traits@V?$basic_string@_WU?$char_traits@_W@std@@V?$allocator@_W@2@@std@@V?$set@P6AXPB_W_J@ZU?$less@P6AXPB_W_J@Z@std@@V?$allocator@P6AXPB_W_J@Z@2@@2@U?$less@V?$basic_string@_WU?$char_traits@_W@std@@V?$allocator@_W@2@@std@@@2@V?$allocator@U?$pair@$$CBV?$basic_string@_WU?$char_traits@_W@std@@V?$allocator@_W@2@@std@@V?$set@P6AXPB_W_J@ZU?$less@P6AXPB_W_J@Z@std@@V?$allocator@P6AXPB_W_J@Z@2@@2@@std@@@2@$0A@@std@@@std@@IAE?AV?$_Tree_iterator@V?$_Tree_val@V?$_Tmap_traits@V?$basic_string@_WU?$char_traits@_W@std@@V?$allocator@_W@2@@std@@V?$set@P6AXPB_W_J@ZU?$less@P6AXPB_W_J@Z@std@@V?$allocator@P6AXPB_W_J@Z@2@@2@U?$less@V?$basic_string@_WU?$char_traits@_W@std@@V?$allocator@_W@2@@std@@@2@V?$allocator@U?$pair@$$CBV?$basic_string@_WU?$char_traits@_W@std@@V?$allocator@_W@2@@std@@V?$set@P6AXPB_W_J@ZU?$less@P6AXPB_W_J@Z@std@@V?$allocator@P6AXPB_W_J@Z@2@@2@@std@@@2@$0A@@std@@@std@@@2@_NPAU_Node@?$_Tree_nod@V?$_Tmap_traits@V?$basic_string@_WU?$char_traits@_W@std@@V?$allocator@_W@2@@std@@V?$set@P6AXPB_W_J@ZU?$less@P6AXPB_W_J@Z@std@@V?$allocator@P6AXPB_W_J@Z@2@@2@U?$less@V?$basic_string@_WU?$char_traits@_W@std@@V?$allocator@_W@2@@std@@@2@V?$allocator@U?$pair@$$CBV?$basic_string@_WU?$char_traits@_W@std@@V?$allocator@_W@2@@std@@V?$set@P6AXPB_W_J@ZU?$less@P6AXPB_W_J@Z@std@@V?$allocator@P6AXPB_W_J@Z@2@@2@@std@@@2@$0A@@std@@@2@1@Z 1004afa0 f i mcdiskcheck.obj
 0002:00049410       ??F?$_Tree_iterator@V?$_Tree_val@V?$_Tmap_traits@V?$basic_string@_WU?$char_traits@_W@std@@V?$allocator@_W@2@@std@@V?$set@P6AXPB_W_J@ZU?$less@P6AXPB_W_J@Z@std@@V?$allocator@P6AXPB_W_J@Z@2@@2@U?$less@V?$basic_string@_WU?$char_traits@_W@std@@V?$allocator@_W@2@@std@@@2@V?$allocator@U?$pair@$$CBV?$basic_string@_WU?$char_traits@_W@std@@V?$allocator@_W@2@@std@@V?$set@P6AXPB_W_J@ZU?$less@P6AXPB_W_J@Z@std@@V?$allocator@P6AXPB_W_J@Z@2@@2@@std@@@2@$0A@@std@@@std@@@std@@QAEAAV01@XZ 1004b410 f i mcdiskcheck.obj
 0002:00049460       ?_Insert@?$_Tree@V?$_Tset_traits@P6AXPB_W_J@ZU?$less@P6AXPB_W_J@Z@std@@V?$allocator@P6AXPB_W_J@Z@2@$0A@@std@@@std@@IAE?AV?$_Tree_const_iterator@V?$_Tree_val@V?$_Tset_traits@P6AXPB_W_J@ZU?$less@P6AXPB_W_J@Z@std@@V?$allocator@P6AXPB_W_J@Z@2@$0A@@std@@@std@@@2@_NPAU_Node@?$_Tree_nod@V?$_Tset_traits@P6AXPB_W_J@ZU?$less@P6AXPB_W_J@Z@std@@V?$allocator@P6AXPB_W_J@Z@2@$0A@@std@@@2@1@Z 1004b460 f i mcdiskcheck.obj
 0002:000498d0       ??F?$_Tree_const_iterator@V?$_Tree_val@V?$_Tset_traits@P6AXPB_W_J@ZU?$less@P6AXPB_W_J@Z@std@@V?$allocator@P6AXPB_W_J@Z@2@$0A@@std@@@std@@@std@@QAEAAV01@XZ 1004b8d0 f i mcdiskcheck.obj
 0002:00049920       ??0?$pair@V?$_Tree_const_iterator@V?$_Tree_val@V?$_Tset_traits@P6AXPB_W_J@ZU?$less@P6AXPB_W_J@Z@std@@V?$allocator@P6AXPB_W_J@Z@2@$0A@@std@@@std@@@std@@_N@std@@QAE@$$QAV?$_Tree_const_iterator@V?$_Tree_val@V?$_Tset_traits@P6AXPB_W_J@ZU?$less@P6AXPB_W_J@Z@std@@V?$allocator@P6AXPB_W_J@Z@2@$0A@@std@@@std@@@1@$$QA_N@Z 1004b920 f i mcdiskcheck.obj
 0002:00049980       ??0?$pair@V?$_Tree_iterator@V?$_Tree_val@V?$_Tmap_traits@V?$basic_string@_WU?$char_traits@_W@std@@V?$allocator@_W@2@@std@@V?$set@P6AXPB_W_J@ZU?$less@P6AXPB_W_J@Z@std@@V?$allocator@P6AXPB_W_J@Z@2@@2@U?$less@V?$basic_string@_WU?$char_traits@_W@std@@V?$allocator@_W@2@@std@@@2@V?$allocator@U?$pair@$$CBV?$basic_string@_WU?$char_traits@_W@std@@V?$allocator@_W@2@@std@@V?$set@P6AXPB_W_J@ZU?$less@P6AXPB_W_J@Z@std@@V?$allocator@P6AXPB_W_J@Z@2@@2@@std@@@2@$0A@@std@@@std@@@std@@_N@std@@QAE@$$QAV?$_Tree_iterator@V?$_Tree_val@V?$_Tmap_traits@V?$basic_string@_WU?$char_traits@_W@std@@V?$allocator@_W@2@@std@@V?$set@P6AXPB_W_J@ZU?$less@P6AXPB_W_J@Z@std@@V?$allocator@P6AXPB_W_J@Z@2@@2@U?$less@V?$basic_string@_WU?$char_traits@_W@std@@V?$allocator@_W@2@@std@@@2@V?$allocator@U?$pair@$$CBV?$basic_string@_WU?$char_traits@_W@std@@V?$allocator@_W@2@@std@@V?$set@P6AXPB_W_J@ZU?$less@P6AXPB_W_J@Z@std@@V?$allocator@P6AXPB_W_J@Z@2@@2@@std@@@2@$0A@@std@@@std@@@1@$$QA_N@Z 1004b980 f i mcdiskcheck.obj
 0002:000499e0       ?max_size@?$_Tree@V?$_Tmap_traits@V?$basic_string@_WU?$char_traits@_W@std@@V?$allocator@_W@2@@std@@V?$set@P6AXPB_W_J@ZU?$less@P6AXPB_W_J@Z@std@@V?$allocator@P6AXPB_W_J@Z@2@@2@U?$less@V?$basic_string@_WU?$char_traits@_W@std@@V?$allocator@_W@2@@std@@@2@V?$allocator@U?$pair@$$CBV?$basic_string@_WU?$char_traits@_W@std@@V?$allocator@_W@2@@std@@V?$set@P6AXPB_W_J@ZU?$less@P6AXPB_W_J@Z@std@@V?$allocator@P6AXPB_W_J@Z@2@@2@@std@@@2@$0A@@std@@@std@@QBEIXZ 1004b9e0 f i mcdiskcheck.obj
 0002:00049a30       ??F?$_Tree_const_iterator@V?$_Tree_val@V?$_Tmap_traits@V?$basic_string@_WU?$char_traits@_W@std@@V?$allocator@_W@2@@std@@V?$set@P6AXPB_W_J@ZU?$less@P6AXPB_W_J@Z@std@@V?$allocator@P6AXPB_W_J@Z@2@@2@U?$less@V?$basic_string@_WU?$char_traits@_W@std@@V?$allocator@_W@2@@std@@@2@V?$allocator@U?$pair@$$CBV?$basic_string@_WU?$char_traits@_W@std@@V?$allocator@_W@2@@std@@V?$set@P6AXPB_W_J@ZU?$less@P6AXPB_W_J@Z@std@@V?$allocator@P6AXPB_W_J@Z@2@@2@@std@@@2@$0A@@std@@@std@@@std@@QAEAAV01@XZ 1004ba30 f i mcdiskcheck.obj
 0002:00049a80       ?max_size@?$_Tree@V?$_Tset_traits@P6AXPB_W_J@ZU?$less@P6AXPB_W_J@Z@std@@V?$allocator@P6AXPB_W_J@Z@2@$0A@@std@@@std@@QBEIXZ 1004ba80 f i mcdiskcheck.obj
 0002:00049ad0       ??F?$_Tree_unchecked_const_iterator@V?$_Tree_val@V?$_Tset_traits@P6AXPB_W_J@ZU?$less@P6AXPB_W_J@Z@std@@V?$allocator@P6AXPB_W_J@Z@2@$0A@@std@@@std@@U_Iterator_base0@2@@std@@QAEAAV01@XZ 1004bad0 f i mcdiskcheck.obj
 0002:00049be0       ??0?$_Pair_base@V?$_Tree_const_iterator@V?$_Tree_val@V?$_Tset_traits@P6AXPB_W_J@ZU?$less@P6AXPB_W_J@Z@std@@V?$allocator@P6AXPB_W_J@Z@2@$0A@@std@@@std@@@std@@_N@std@@QAE@$$QAV?$_Tree_const_iterator@V?$_Tree_val@V?$_Tset_traits@P6AXPB_W_J@ZU?$less@P6AXPB_W_J@Z@std@@V?$allocator@P6AXPB_W_J@Z@2@$0A@@std@@@std@@@1@$$QA_N@Z 1004bbe0 f i mcdiskcheck.obj
 0002:00049c50       ??0?$_Pair_base@V?$_Tree_iterator@V?$_Tree_val@V?$_Tmap_traits@V?$basic_string@_WU?$char_traits@_W@std@@V?$allocator@_W@2@@std@@V?$set@P6AXPB_W_J@ZU?$less@P6AXPB_W_J@Z@std@@V?$allocator@P6AXPB_W_J@Z@2@@2@U?$less@V?$basic_string@_WU?$char_traits@_W@std@@V?$allocator@_W@2@@std@@@2@V?$allocator@U?$pair@$$CBV?$basic_string@_WU?$char_traits@_W@std@@V?$allocator@_W@2@@std@@V?$set@P6AXPB_W_J@ZU?$less@P6AXPB_W_J@Z@std@@V?$allocator@P6AXPB_W_J@Z@2@@2@@std@@@2@$0A@@std@@@std@@@std@@_N@std@@QAE@$$QAV?$_Tree_iterator@V?$_Tree_val@V?$_Tmap_traits@V?$basic_string@_WU?$char_traits@_W@std@@V?$allocator@_W@2@@std@@V?$set@P6AXPB_W_J@ZU?$less@P6AXPB_W_J@Z@std@@V?$allocator@P6AXPB_W_J@Z@2@@2@U?$less@V?$basic_string@_WU?$char_traits@_W@std@@V?$allocator@_W@2@@std@@@2@V?$allocator@U?$pair@$$CBV?$basic_string@_WU?$char_traits@_W@std@@V?$allocator@_W@2@@std@@V?$set@P6AXPB_W_J@ZU?$less@P6AXPB_W_J@Z@std@@V?$allocator@P6AXPB_W_J@Z@2@@2@@std@@@2@$0A@@std@@@std@@@1@$$QA_N@Z 1004bc50 f i mcdiskcheck.obj
 0002:00049cc0       ?max_size@?$allocator@U?$pair@$$CBV?$basic_string@_WU?$char_traits@_W@std@@V?$allocator@_W@2@@std@@V?$set@P6AXPB_W_J@ZU?$less@P6AXPB_W_J@Z@std@@V?$allocator@P6AXPB_W_J@Z@2@@2@@std@@@std@@QBEIXZ 1004bcc0 f i mcdiskcheck.obj
 0002:00049d20       ??F?$_Tree_unchecked_const_iterator@V?$_Tree_val@V?$_Tmap_traits@V?$basic_string@_WU?$char_traits@_W@std@@V?$allocator@_W@2@@std@@V?$set@P6AXPB_W_J@ZU?$less@P6AXPB_W_J@Z@std@@V?$allocator@P6AXPB_W_J@Z@2@@2@U?$less@V?$basic_string@_WU?$char_traits@_W@std@@V?$allocator@_W@2@@std@@@2@V?$allocator@U?$pair@$$CBV?$basic_string@_WU?$char_traits@_W@std@@V?$allocator@_W@2@@std@@V?$set@P6AXPB_W_J@ZU?$less@P6AXPB_W_J@Z@std@@V?$allocator@P6AXPB_W_J@Z@2@@2@@std@@@2@$0A@@std@@@std@@U_Iterator_base0@2@@std@@QAEAAV01@XZ 1004bd20 f i mcdiskcheck.obj
 0002:00049e30       ?max_size@?$allocator@P6AXPB_W_J@Z@std@@QBEIXZ 1004be30 f i mcdiskcheck.obj
 0002:00049e90       ??$forward@AAP6AXPB_W_J@Z@std@@YAAAP6AXPB_W_J@ZAAP6AX01@Z@Z 1004be90 f i mcdiskcheck.obj
 0002:00049ec0       ??$_Buynode@AAP6AXPB_W_J@Z@?$_Tree_val@V?$_Tset_traits@P6AXPB_W_J@ZU?$less@P6AXPB_W_J@Z@std@@V?$allocator@P6AXPB_W_J@Z@2@$0A@@std@@@std@@QAEPAU_Node@?$_Tree_nod@V?$_Tset_traits@P6AXPB_W_J@ZU?$less@P6AXPB_W_J@Z@std@@V?$allocator@P6AXPB_W_J@Z@2@$0A@@std@@@1@AAP6AXPB_W_J@Z@Z 1004bec0 f i mcdiskcheck.obj
 0002:00049fd0       ??$forward@V?$basic_string@_WU?$char_traits@_W@std@@V?$allocator@_W@2@@std@@@std@@YA$$QAV?$basic_string@_WU?$char_traits@_W@std@@V?$allocator@_W@2@@0@AAV10@@Z 1004bfd0 f i mcdiskcheck.obj
 0002:0004a000       ??$forward@AAV?$set@P6AXPB_W_J@ZU?$less@P6AXPB_W_J@Z@std@@V?$allocator@P6AXPB_W_J@Z@2@@std@@@std@@YAAAV?$set@P6AXPB_W_J@ZU?$less@P6AXPB_W_J@Z@std@@V?$allocator@P6AXPB_W_J@Z@2@@0@AAV10@@Z 1004c000 f i mcdiskcheck.obj
 0002:0004a030       ??$?0V?$basic_string@_WU?$char_traits@_W@std@@V?$allocator@_W@2@@std@@AAV?$set@P6AXPB_W_J@ZU?$less@P6AXPB_W_J@Z@std@@V?$allocator@P6AXPB_W_J@Z@2@@1@@?$pair@V?$basic_string@_WU?$char_traits@_W@std@@V?$allocator@_W@2@@std@@V?$set@P6AXPB_W_J@ZU?$less@P6AXPB_W_J@Z@std@@V?$allocator@P6AXPB_W_J@Z@2@@2@@std@@QAE@$$QAV?$basic_string@_WU?$char_traits@_W@std@@V?$allocator@_W@2@@1@AAV?$set@P6AXPB_W_J@ZU?$less@P6AXPB_W_J@Z@std@@V?$allocator@P6AXPB_W_J@Z@2@@1@@Z 1004c030 f i mcdiskcheck.obj
 0002:0004a090       ??$forward@U?$pair@V?$basic_string@_WU?$char_traits@_W@std@@V?$allocator@_W@2@@std@@V?$set@P6AXPB_W_J@ZU?$less@P6AXPB_W_J@Z@std@@V?$allocator@P6AXPB_W_J@Z@2@@2@@std@@@std@@YA$$QAU?$pair@V?$basic_string@_WU?$char_traits@_W@std@@V?$allocator@_W@2@@std@@V?$set@P6AXPB_W_J@ZU?$less@P6AXPB_W_J@Z@std@@V?$allocator@P6AXPB_W_J@Z@2@@2@@0@AAU10@@Z 1004c090 f i mcdiskcheck.obj
 0002:0004a0c0       ??$_Buynode@U?$pair@V?$basic_string@_WU?$char_traits@_W@std@@V?$allocator@_W@2@@std@@V?$set@P6AXPB_W_J@ZU?$less@P6AXPB_W_J@Z@std@@V?$allocator@P6AXPB_W_J@Z@2@@2@@std@@@?$_Tree_val@V?$_Tmap_traits@V?$basic_string@_WU?$char_traits@_W@std@@V?$allocator@_W@2@@std@@V?$set@P6AXPB_W_J@ZU?$less@P6AXPB_W_J@Z@std@@V?$allocator@P6AXPB_W_J@Z@2@@2@U?$less@V?$basic_string@_WU?$char_traits@_W@std@@V?$allocator@_W@2@@std@@@2@V?$allocator@U?$pair@$$CBV?$basic_string@_WU?$char_traits@_W@std@@V?$allocator@_W@2@@std@@V?$set@P6AXPB_W_J@ZU?$less@P6AXPB_W_J@Z@std@@V?$allocator@P6AXPB_W_J@Z@2@@2@@std@@@2@$0A@@std@@@std@@QAEPAU_Node@?$_Tree_nod@V?$_Tmap_traits@V?$basic_string@_WU?$char_traits@_W@std@@V?$allocator@_W@2@@std@@V?$set@P6AXPB_W_J@ZU?$less@P6AXPB_W_J@Z@std@@V?$allocator@P6AXPB_W_J@Z@2@@2@U?$less@V?$basic_string@_WU?$char_traits@_W@std@@V?$allocator@_W@2@@std@@@2@V?$allocator@U?$pair@$$CBV?$basic_string@_WU?$char_traits@_W@std@@V?$allocator@_W@2@@std@@V?$set@P6AXPB_W_J@ZU?$less@P6AXPB_W_J@Z@std@@V?$allocator@P6AXPB_W_J@Z@2@@2@@std@@@2@$0A@@std@@@1@$$QAU?$pair@V?$basic_string@_WU?$char_traits@_W@std@@V?$allocator@_W@2@@std@@V?$set@P6AXPB_W_J@ZU?$less@P6AXPB_W_J@Z@std@@V?$allocator@P6AXPB_W_J@Z@2@@2@@1@@Z 1004c0c0 f i mcdiskcheck.obj
 0002:0004a1d0       ??$_Move@AAD@std@@YA$$QADAAD@Z 1004c1d0 f i mcdiskcheck.obj
 0002:0004a200       ??$?0AAV?$_Tree_iterator@V?$_Tree_val@V?$_Tmap_traits@V?$basic_string@_WU?$char_traits@_W@std@@V?$allocator@_W@2@@std@@V?$set@P6AXPB_W_J@ZU?$less@P6AXPB_W_J@Z@std@@V?$allocator@P6AXPB_W_J@Z@2@@2@U?$less@V?$basic_string@_WU?$char_traits@_W@std@@V?$allocator@_W@2@@std@@@2@V?$allocator@U?$pair@$$CBV?$basic_string@_WU?$char_traits@_W@std@@V?$allocator@_W@2@@std@@V?$set@P6AXPB_W_J@ZU?$less@P6AXPB_W_J@Z@std@@V?$allocator@P6AXPB_W_J@Z@2@@2@@std@@@2@$0A@@std@@@std@@@std@@_N@?$pair@V?$_Tree_iterator@V?$_Tree_val@V?$_Tmap_traits@V?$basic_string@_WU?$char_traits@_W@std@@V?$allocator@_W@2@@std@@V?$set@P6AXPB_W_J@ZU?$less@P6AXPB_W_J@Z@std@@V?$allocator@P6AXPB_W_J@Z@2@@2@U?$less@V?$basic_string@_WU?$char_traits@_W@std@@V?$allocator@_W@2@@std@@@2@V?$allocator@U?$pair@$$CBV?$basic_string@_WU?$char_traits@_W@std@@V?$allocator@_W@2@@std@@V?$set@P6AXPB_W_J@ZU?$less@P6AXPB_W_J@Z@std@@V?$allocator@P6AXPB_W_J@Z@2@@2@@std@@@2@$0A@@std@@@std@@@std@@_N@std@@QAE@AAV?$_Tree_iterator@V?$_Tree_val@V?$_Tmap_traits@V?$basic_string@_WU?$char_traits@_W@std@@V?$allocator@_W@2@@std@@V?$set@P6AXPB_W_J@ZU?$less@P6AXPB_W_J@Z@std@@V?$allocator@P6AXPB_W_J@Z@2@@2@U?$less@V?$basic_string@_WU?$char_traits@_W@std@@V?$allocator@_W@2@@std@@@2@V?$allocator@U?$pair@$$CBV?$basic_string@_WU?$char_traits@_W@std@@V?$allocator@_W@2@@std@@V?$set@P6AXPB_W_J@ZU?$less@P6AXPB_W_J@Z@std@@V?$allocator@P6AXPB_W_J@Z@2@@2@@std@@@2@$0A@@std@@@std@@@1@$$QA_N@Z 1004c200 f i mcdiskcheck.obj
 0002:0004a260       ??$_Destroy@U?$pair@$$CBV?$basic_string@_WU?$char_traits@_W@std@@V?$allocator@_W@2@@std@@V?$set@P6AXPB_W_J@ZU?$less@P6AXPB_W_J@Z@std@@V?$allocator@P6AXPB_W_J@Z@2@@2@@std@@@std@@YAXPAU?$pair@$$CBV?$basic_string@_WU?$char_traits@_W@std@@V?$allocator@_W@2@@std@@V?$set@P6AXPB_W_J@ZU?$less@P6AXPB_W_J@Z@std@@V?$allocator@P6AXPB_W_J@Z@2@@2@@0@@Z 1004c260 f i mcdiskcheck.obj
 0002:0004a2a0       ??$?0AAV?$_Tree_const_iterator@V?$_Tree_val@V?$_Tset_traits@P6AXPB_W_J@ZU?$less@P6AXPB_W_J@Z@std@@V?$allocator@P6AXPB_W_J@Z@2@$0A@@std@@@std@@@std@@_N@?$pair@V?$_Tree_const_iterator@V?$_Tree_val@V?$_Tset_traits@P6AXPB_W_J@ZU?$less@P6AXPB_W_J@Z@std@@V?$allocator@P6AXPB_W_J@Z@2@$0A@@std@@@std@@@std@@_N@std@@QAE@AAV?$_Tree_const_iterator@V?$_Tree_val@V?$_Tset_traits@P6AXPB_W_J@ZU?$less@P6AXPB_W_J@Z@std@@V?$allocator@P6AXPB_W_J@Z@2@$0A@@std@@@std@@@1@$$QA_N@Z 1004c2a0 f i mcdiskcheck.obj
 0002:0004a300       ??$_Destroy@P6AXPB_W_J@Z@std@@YAXPAP6AXPB_W_J@Z@Z 1004c300 f i mcdiskcheck.obj
 0002:0004a330       ??$move@AAV?$_Tree_const_iterator@V?$_Tree_val@V?$_Tset_traits@P6AXPB_W_J@ZU?$less@P6AXPB_W_J@Z@std@@V?$allocator@P6AXPB_W_J@Z@2@$0A@@std@@@std@@@std@@@std@@YA$$QAV?$_Tree_const_iterator@V?$_Tree_val@V?$_Tset_traits@P6AXPB_W_J@ZU?$less@P6AXPB_W_J@Z@std@@V?$allocator@P6AXPB_W_J@Z@2@$0A@@std@@@std@@@0@AAV10@@Z 1004c330 f i mcdiskcheck.obj
 0002:0004a360       ??$move@AA_N@std@@YA$$QA_NAA_N@Z 1004c360 f i mcdiskcheck.obj
 0002:0004a390       ??$move@AAV?$_Tree_iterator@V?$_Tree_val@V?$_Tmap_traits@V?$basic_string@_WU?$char_traits@_W@std@@V?$allocator@_W@2@@std@@V?$set@P6AXPB_W_J@ZU?$less@P6AXPB_W_J@Z@std@@V?$allocator@P6AXPB_W_J@Z@2@@2@U?$less@V?$basic_string@_WU?$char_traits@_W@std@@V?$allocator@_W@2@@std@@@2@V?$allocator@U?$pair@$$CBV?$basic_string@_WU?$char_traits@_W@std@@V?$allocator@_W@2@@std@@V?$set@P6AXPB_W_J@ZU?$less@P6AXPB_W_J@Z@std@@V?$allocator@P6AXPB_W_J@Z@2@@2@@std@@@2@$0A@@std@@@std@@@std@@@std@@YA$$QAV?$_Tree_iterator@V?$_Tree_val@V?$_Tmap_traits@V?$basic_string@_WU?$char_traits@_W@std@@V?$allocator@_W@2@@std@@V?$set@P6AXPB_W_J@ZU?$less@P6AXPB_W_J@Z@std@@V?$allocator@P6AXPB_W_J@Z@2@@2@U?$less@V?$basic_string@_WU?$char_traits@_W@std@@V?$allocator@_W@2@@std@@@2@V?$allocator@U?$pair@$$CBV?$basic_string@_WU?$char_traits@_W@std@@V?$allocator@_W@2@@std@@V?$set@P6AXPB_W_J@ZU?$less@P6AXPB_W_J@Z@std@@V?$allocator@P6AXPB_W_J@Z@2@@2@@std@@@2@$0A@@std@@@std@@@0@AAV10@@Z 1004c390 f i mcdiskcheck.obj
 0002:0004a3c0       ??_G?$pair@$$CBV?$basic_string@_WU?$char_traits@_W@std@@V?$allocator@_W@2@@std@@V?$set@P6AXPB_W_J@ZU?$less@P6AXPB_W_J@Z@std@@V?$allocator@P6AXPB_W_J@Z@2@@2@@std@@QAEPAXI@Z 1004c3c0 f i mcdiskcheck.obj
 0002:0004a420       ??1?$pair@$$CBV?$basic_string@_WU?$char_traits@_W@std@@V?$allocator@_W@2@@std@@V?$set@P6AXPB_W_J@ZU?$less@P6AXPB_W_J@Z@std@@V?$allocator@P6AXPB_W_J@Z@2@@2@@std@@QAE@XZ 1004c420 f i mcdiskcheck.obj
 0002:0004a460       ??1?$_Pair_base@$$CBV?$basic_string@_WU?$char_traits@_W@std@@V?$allocator@_W@2@@std@@V?$set@P6AXPB_W_J@ZU?$less@P6AXPB_W_J@Z@std@@V?$allocator@P6AXPB_W_J@Z@2@@2@@std@@QAE@XZ 1004c460 f i mcdiskcheck.obj
 0002:0004a4f0       ?_Buynode@?$_Tree_val@V?$_Tmap_traits@V?$basic_string@_WU?$char_traits@_W@std@@V?$allocator@_W@2@@std@@V?$set@P6AXPB_W_J@ZU?$less@P6AXPB_W_J@Z@std@@V?$allocator@P6AXPB_W_J@Z@2@@2@U?$less@V?$basic_string@_WU?$char_traits@_W@std@@V?$allocator@_W@2@@std@@@2@V?$allocator@U?$pair@$$CBV?$basic_string@_WU?$char_traits@_W@std@@V?$allocator@_W@2@@std@@V?$set@P6AXPB_W_J@ZU?$less@P6AXPB_W_J@Z@std@@V?$allocator@P6AXPB_W_J@Z@2@@2@@std@@@2@$0A@@std@@@std@@QAEPAU_Node@?$_Tree_nod@V?$_Tmap_traits@V?$basic_string@_WU?$char_traits@_W@std@@V?$allocator@_W@2@@std@@V?$set@P6AXPB_W_J@ZU?$less@P6AXPB_W_J@Z@std@@V?$allocator@P6AXPB_W_J@Z@2@@2@U?$less@V?$basic_string@_WU?$char_traits@_W@std@@V?$allocator@_W@2@@std@@@2@V?$allocator@U?$pair@$$CBV?$basic_string@_WU?$char_traits@_W@std@@V?$allocator@_W@2@@std@@V?$set@P6AXPB_W_J@ZU?$less@P6AXPB_W_J@Z@std@@V?$allocator@P6AXPB_W_J@Z@2@@2@@std@@@2@$0A@@std@@@2@XZ 1004c4f0 f i mcdiskcheck.obj
 0002:0004a5a0       ?allocate@?$allocator@U_Node@?$_Tree_nod@V?$_Tmap_traits@V?$basic_string@_WU?$char_traits@_W@std@@V?$allocator@_W@2@@std@@V?$set@P6AXPB_W_J@ZU?$less@P6AXPB_W_J@Z@std@@V?$allocator@P6AXPB_W_J@Z@2@@2@U?$less@V?$basic_string@_WU?$char_traits@_W@std@@V?$allocator@_W@2@@std@@@2@V?$allocator@U?$pair@$$CBV?$basic_string@_WU?$char_traits@_W@std@@V?$allocator@_W@2@@std@@V?$set@P6AXPB_W_J@ZU?$less@P6AXPB_W_J@Z@std@@V?$allocator@P6AXPB_W_J@Z@2@@2@@std@@@2@$0A@@std@@@std@@@std@@QAEPAU_Node@?$_Tree_nod@V?$_Tmap_traits@V?$basic_string@_WU?$char_traits@_W@std@@V?$allocator@_W@2@@std@@V?$set@P6AXPB_W_J@ZU?$less@P6AXPB_W_J@Z@std@@V?$allocator@P6AXPB_W_J@Z@2@@2@U?$less@V?$basic_string@_WU?$char_traits@_W@std@@V?$allocator@_W@2@@std@@@2@V?$allocator@U?$pair@$$CBV?$basic_string@_WU?$char_traits@_W@std@@V?$allocator@_W@2@@std@@V?$set@P6AXPB_W_J@ZU?$less@P6AXPB_W_J@Z@std@@V?$allocator@P6AXPB_W_J@Z@2@@2@@std@@@2@$0A@@std@@@2@I@Z 1004c5a0 f i mcdiskcheck.obj
 0002:0004a5f0       ??$_Allocate@U_Node@?$_Tree_nod@V?$_Tmap_traits@V?$basic_string@_WU?$char_traits@_W@std@@V?$allocator@_W@2@@std@@V?$set@P6AXPB_W_J@ZU?$less@P6AXPB_W_J@Z@std@@V?$allocator@P6AXPB_W_J@Z@2@@2@U?$less@V?$basic_string@_WU?$char_traits@_W@std@@V?$allocator@_W@2@@std@@@2@V?$allocator@U?$pair@$$CBV?$basic_string@_WU?$char_traits@_W@std@@V?$allocator@_W@2@@std@@V?$set@P6AXPB_W_J@ZU?$less@P6AXPB_W_J@Z@std@@V?$allocator@P6AXPB_W_J@Z@2@@2@@std@@@2@$0A@@std@@@std@@@std@@YAPAU_Node@?$_Tree_nod@V?$_Tmap_traits@V?$basic_string@_WU?$char_traits@_W@std@@V?$allocator@_W@2@@std@@V?$set@P6AXPB_W_J@ZU?$less@P6AXPB_W_J@Z@std@@V?$allocator@P6AXPB_W_J@Z@2@@2@U?$less@V?$basic_string@_WU?$char_traits@_W@std@@V?$allocator@_W@2@@std@@@2@V?$allocator@U?$pair@$$CBV?$basic_string@_WU?$char_traits@_W@std@@V?$allocator@_W@2@@std@@V?$set@P6AXPB_W_J@ZU?$less@P6AXPB_W_J@Z@std@@V?$allocator@P6AXPB_W_J@Z@2@@2@@std@@@2@$0A@@std@@@0@IPAU120@@Z 1004c5f0 f i mcdiskcheck.obj
 0002:0004a680       ?_Buynode@?$_Tree_val@V?$_Tset_traits@P6AXPB_W_J@ZU?$less@P6AXPB_W_J@Z@std@@V?$allocator@P6AXPB_W_J@Z@2@$0A@@std@@@std@@QAEPAU_Node@?$_Tree_nod@V?$_Tset_traits@P6AXPB_W_J@ZU?$less@P6AXPB_W_J@Z@std@@V?$allocator@P6AXPB_W_J@Z@2@$0A@@std@@@2@XZ 1004c680 f i mcdiskcheck.obj
 0002:0004a730       ??$_Cons_val@V?$allocator@P6AXPB_W_J@Z@std@@P6AXPB_W_J@ZAAP6AX01@Z@std@@YAXAAV?$allocator@P6AXPB_W_J@Z@0@PAP6AXPB_W_J@ZAAP6AX12@Z@Z 1004c730 f i mcdiskcheck.obj
 0002:0004a780       ??$?0V?$basic_string@_WU?$char_traits@_W@std@@V?$allocator@_W@2@@std@@AAV?$set@P6AXPB_W_J@ZU?$less@P6AXPB_W_J@Z@std@@V?$allocator@P6AXPB_W_J@Z@2@@1@@?$_Pair_base@V?$basic_string@_WU?$char_traits@_W@std@@V?$allocator@_W@2@@std@@V?$set@P6AXPB_W_J@ZU?$less@P6AXPB_W_J@Z@std@@V?$allocator@P6AXPB_W_J@Z@2@@2@@std@@QAE@$$QAV?$basic_string@_WU?$char_traits@_W@std@@V?$allocator@_W@2@@1@AAV?$set@P6AXPB_W_J@ZU?$less@P6AXPB_W_J@Z@std@@V?$allocator@P6AXPB_W_J@Z@2@@1@@Z 1004c780 f i mcdiskcheck.obj
 0002:0004a830       ??$_Cons_val@V?$allocator@U?$pair@$$CBV?$basic_string@_WU?$char_traits@_W@std@@V?$allocator@_W@2@@std@@V?$set@P6AXPB_W_J@ZU?$less@P6AXPB_W_J@Z@std@@V?$allocator@P6AXPB_W_J@Z@2@@2@@std@@@std@@U?$pair@$$CBV?$basic_string@_WU?$char_traits@_W@std@@V?$allocator@_W@2@@std@@V?$set@P6AXPB_W_J@ZU?$less@P6AXPB_W_J@Z@std@@V?$allocator@P6AXPB_W_J@Z@2@@2@@2@U?$pair@V?$basic_string@_WU?$char_traits@_W@std@@V?$allocator@_W@2@@std@@V?$set@P6AXPB_W_J@ZU?$less@P6AXPB_W_J@Z@std@@V?$allocator@P6AXPB_W_J@Z@2@@2@@2@@std@@YAXAAV?$allocator@U?$pair@$$CBV?$basic_string@_WU?$char_traits@_W@std@@V?$allocator@_W@2@@std@@V?$set@P6AXPB_W_J@ZU?$less@P6AXPB_W_J@Z@std@@V?$allocator@P6AXPB_W_J@Z@2@@2@@std@@@0@PAU?$pair@$$CBV?$basic_string@_WU?$char_traits@_W@std@@V?$allocator@_W@2@@std@@V?$set@P6AXPB_W_J@ZU?$less@P6AXPB_W_J@Z@std@@V?$allocator@P6AXPB_W_J@Z@2@@2@@0@$$QAU?$pair@V?$basic_string@_WU?$char_traits@_W@std@@V?$allocator@_W@2@@std@@V?$set@P6AXPB_W_J@ZU?$less@P6AXPB_W_J@Z@std@@V?$allocator@P6AXPB_W_J@Z@2@@2@@0@@Z 1004c830 f i mcdiskcheck.obj
 0002:0004a880       ??$forward@AAV?$_Tree_iterator@V?$_Tree_val@V?$_Tmap_traits@V?$basic_string@_WU?$char_traits@_W@std@@V?$allocator@_W@2@@std@@V?$set@P6AXPB_W_J@ZU?$less@P6AXPB_W_J@Z@std@@V?$allocator@P6AXPB_W_J@Z@2@@2@U?$less@V?$basic_string@_WU?$char_traits@_W@std@@V?$allocator@_W@2@@std@@@2@V?$allocator@U?$pair@$$CBV?$basic_string@_WU?$char_traits@_W@std@@V?$allocator@_W@2@@std@@V?$set@P6AXPB_W_J@ZU?$less@P6AXPB_W_J@Z@std@@V?$allocator@P6AXPB_W_J@Z@2@@2@@std@@@2@$0A@@std@@@std@@@std@@@std@@YAAAV?$_Tree_iterator@V?$_Tree_val@V?$_Tmap_traits@V?$basic_string@_WU?$char_traits@_W@std@@V?$allocator@_W@2@@std@@V?$set@P6AXPB_W_J@ZU?$less@P6AXPB_W_J@Z@std@@V?$allocator@P6AXPB_W_J@Z@2@@2@U?$less@V?$basic_string@_WU?$char_traits@_W@std@@V?$allocator@_W@2@@std@@@2@V?$allocator@U?$pair@$$CBV?$basic_string@_WU?$char_traits@_W@std@@V?$allocator@_W@2@@std@@V?$set@P6AXPB_W_J@ZU?$less@P6AXPB_W_J@Z@std@@V?$allocator@P6AXPB_W_J@Z@2@@2@@std@@@2@$0A@@std@@@std@@@0@AAV10@@Z 1004c880 f i mcdiskcheck.obj
 0002:0004a8b0       ??$forward@_N@std@@YA$$QA_NAA_N@Z 1004c8b0 f i mcdiskcheck.obj
 0002:0004a8e0       ??$?0AAV?$_Tree_iterator@V?$_Tree_val@V?$_Tmap_traits@V?$basic_string@_WU?$char_traits@_W@std@@V?$allocator@_W@2@@std@@V?$set@P6AXPB_W_J@ZU?$less@P6AXPB_W_J@Z@std@@V?$allocator@P6AXPB_W_J@Z@2@@2@U?$less@V?$basic_string@_WU?$char_traits@_W@std@@V?$allocator@_W@2@@std@@@2@V?$allocator@U?$pair@$$CBV?$basic_string@_WU?$char_traits@_W@std@@V?$allocator@_W@2@@std@@V?$set@P6AXPB_W_J@ZU?$less@P6AXPB_W_J@Z@std@@V?$allocator@P6AXPB_W_J@Z@2@@2@@std@@@2@$0A@@std@@@std@@@std@@_N@?$_Pair_base@V?$_Tree_iterator@V?$_Tree_val@V?$_Tmap_traits@V?$basic_string@_WU?$char_traits@_W@std@@V?$allocator@_W@2@@std@@V?$set@P6AXPB_W_J@ZU?$less@P6AXPB_W_J@Z@std@@V?$allocator@P6AXPB_W_J@Z@2@@2@U?$less@V?$basic_string@_WU?$char_traits@_W@std@@V?$allocator@_W@2@@std@@@2@V?$allocator@U?$pair@$$CBV?$basic_string@_WU?$char_traits@_W@std@@V?$allocator@_W@2@@std@@V?$set@P6AXPB_W_J@ZU?$less@P6AXPB_W_J@Z@std@@V?$allocator@P6AXPB_W_J@Z@2@@2@@std@@@2@$0A@@std@@@std@@@std@@_N@std@@QAE@AAV?$_Tree_iterator@V?$_Tree_val@V?$_Tmap_traits@V?$basic_string@_WU?$char_traits@_W@std@@V?$allocator@_W@2@@std@@V?$set@P6AXPB_W_J@ZU?$less@P6AXPB_W_J@Z@std@@V?$allocator@P6AXPB_W_J@Z@2@@2@U?$less@V?$basic_string@_WU?$char_traits@_W@std@@V?$allocator@_W@2@@std@@@2@V?$allocator@U?$pair@$$CBV?$basic_string@_WU?$char_traits@_W@std@@V?$allocator@_W@2@@std@@V?$set@P6AXPB_W_J@ZU?$less@P6AXPB_W_J@Z@std@@V?$allocator@P6AXPB_W_J@Z@2@@2@@std@@@2@$0A@@std@@@std@@@1@$$QA_N@Z 1004c8e0 f i mcdiskcheck.obj
 0002:0004a950       ??$forward@AAV?$_Tree_const_iterator@V?$_Tree_val@V?$_Tset_traits@P6AXPB_W_J@ZU?$less@P6AXPB_W_J@Z@std@@V?$allocator@P6AXPB_W_J@Z@2@$0A@@std@@@std@@@std@@@std@@YAAAV?$_Tree_const_iterator@V?$_Tree_val@V?$_Tset_traits@P6AXPB_W_J@ZU?$less@P6AXPB_W_J@Z@std@@V?$allocator@P6AXPB_W_J@Z@2@$0A@@std@@@std@@@0@AAV10@@Z 1004c950 f i mcdiskcheck.obj
 0002:0004a980       ??$?0AAV?$_Tree_const_iterator@V?$_Tree_val@V?$_Tset_traits@P6AXPB_W_J@ZU?$less@P6AXPB_W_J@Z@std@@V?$allocator@P6AXPB_W_J@Z@2@$0A@@std@@@std@@@std@@_N@?$_Pair_base@V?$_Tree_const_iterator@V?$_Tree_val@V?$_Tset_traits@P6AXPB_W_J@ZU?$less@P6AXPB_W_J@Z@std@@V?$allocator@P6AXPB_W_J@Z@2@$0A@@std@@@std@@@std@@_N@std@@QAE@AAV?$_Tree_const_iterator@V?$_Tree_val@V?$_Tset_traits@P6AXPB_W_J@ZU?$less@P6AXPB_W_J@Z@std@@V?$allocator@P6AXPB_W_J@Z@2@$0A@@std@@@std@@@1@$$QA_N@Z 1004c980 f i mcdiskcheck.obj
 0002:0004a9f0       ??0?$basic_string@_WU?$char_traits@_W@std@@V?$allocator@_W@2@@std@@QAE@$$QAV01@@Z 1004c9f0 f i mcdiskcheck.obj
 0002:0004aab0       ?assign@?$basic_string@_WU?$char_traits@_W@std@@V?$allocator@_W@2@@std@@QAEAAV12@$$QAV12@@Z 1004cab0 f i mcdiskcheck.obj
 0002:0004abb0       ?get_allocator@?$basic_string@_WU?$char_traits@_W@std@@V?$allocator@_W@2@@std@@QBE?AV?$allocator@_W@2@XZ 1004cbb0 f i mcdiskcheck.obj
 0002:0004ac00       ??$?9_W_W@std@@YA_NABV?$allocator@_W@0@0@Z 1004cc00 f i mcdiskcheck.obj
 0002:0004ac50       ??$?8_W_W@std@@YA_NABV?$allocator@_W@0@0@Z 1004cc50 f i mcdiskcheck.obj
 0002:0004ac80       ??0?$set@P6AXPB_W_J@ZU?$less@P6AXPB_W_J@Z@std@@V?$allocator@P6AXPB_W_J@Z@2@@std@@QAE@ABV01@@Z 1004cc80 f i mcdiskcheck.obj
 0002:0004acd0       ??0?$_Tree@V?$_Tset_traits@P6AXPB_W_J@ZU?$less@P6AXPB_W_J@Z@std@@V?$allocator@P6AXPB_W_J@Z@2@$0A@@std@@@std@@QAE@ABV01@@Z 1004ccd0 f i mcdiskcheck.obj
 0002:0004adb0       ?key_comp@?$_Tree@V?$_Tset_traits@P6AXPB_W_J@ZU?$less@P6AXPB_W_J@Z@std@@V?$allocator@P6AXPB_W_J@Z@2@$0A@@std@@@std@@QBE?AU?$less@P6AXPB_W_J@Z@2@XZ 1004cdb0 f i mcdiskcheck.obj
 0002:0004ade0       ?_Copy@?$_Tree@V?$_Tset_traits@P6AXPB_W_J@ZU?$less@P6AXPB_W_J@Z@std@@V?$allocator@P6AXPB_W_J@Z@2@$0A@@std@@@std@@IAEXABV12@@Z 1004cde0 f i mcdiskcheck.obj
 0002:0004aed0       ?_Copy@?$_Tree@V?$_Tset_traits@P6AXPB_W_J@ZU?$less@P6AXPB_W_J@Z@std@@V?$allocator@P6AXPB_W_J@Z@2@$0A@@std@@@std@@IAEPAU_Node@?$_Tree_nod@V?$_Tset_traits@P6AXPB_W_J@ZU?$less@P6AXPB_W_J@Z@std@@V?$allocator@P6AXPB_W_J@Z@2@$0A@@std@@@2@PAU342@0@Z 1004ced0 f i mcdiskcheck.obj
 0002:0004b080       ??$construct@AAP6AXPB_W_J@Z@?$allocator@P6AXPB_W_J@Z@std@@QAEXPAP6AXPB_W_J@ZAAP6AX01@Z@Z 1004d080 f i mcdiskcheck.obj
 0002:0004b150       ??$construct@U?$pair@V?$basic_string@_WU?$char_traits@_W@std@@V?$allocator@_W@2@@std@@V?$set@P6AXPB_W_J@ZU?$less@P6AXPB_W_J@Z@std@@V?$allocator@P6AXPB_W_J@Z@2@@2@@std@@@?$allocator@U?$pair@$$CBV?$basic_string@_WU?$char_traits@_W@std@@V?$allocator@_W@2@@std@@V?$set@P6AXPB_W_J@ZU?$less@P6AXPB_W_J@Z@std@@V?$allocator@P6AXPB_W_J@Z@2@@2@@std@@@std@@QAEXPAU?$pair@$$CBV?$basic_string@_WU?$char_traits@_W@std@@V?$allocator@_W@2@@std@@V?$set@P6AXPB_W_J@ZU?$less@P6AXPB_W_J@Z@std@@V?$allocator@P6AXPB_W_J@Z@2@@2@@1@$$QAU?$pair@V?$basic_string@_WU?$char_traits@_W@std@@V?$allocator@_W@2@@std@@V?$set@P6AXPB_W_J@ZU?$less@P6AXPB_W_J@Z@std@@V?$allocator@P6AXPB_W_J@Z@2@@2@@1@@Z 1004d150 f i mcdiskcheck.obj
 0002:0004b220       ??$forward@V?$allocator@_W@std@@@std@@YA$$QAV?$allocator@_W@0@AAV10@@Z 1004d220 f i mcdiskcheck.obj
 0002:0004b250       ??$?0V?$basic_string@_WU?$char_traits@_W@std@@V?$allocator@_W@2@@std@@V?$set@P6AXPB_W_J@ZU?$less@P6AXPB_W_J@Z@std@@V?$allocator@P6AXPB_W_J@Z@2@@1@@?$pair@$$CBV?$basic_string@_WU?$char_traits@_W@std@@V?$allocator@_W@2@@std@@V?$set@P6AXPB_W_J@ZU?$less@P6AXPB_W_J@Z@std@@V?$allocator@P6AXPB_W_J@Z@2@@2@@std@@QAE@$$QAU?$pair@V?$basic_string@_WU?$char_traits@_W@std@@V?$allocator@_W@2@@std@@V?$set@P6AXPB_W_J@ZU?$less@P6AXPB_W_J@Z@std@@V?$allocator@P6AXPB_W_J@Z@2@@2@@1@@Z 1004d250 f i mcdiskcheck.obj
 0002:0004b2c0       ??$forward@V?$set@P6AXPB_W_J@ZU?$less@P6AXPB_W_J@Z@std@@V?$allocator@P6AXPB_W_J@Z@2@@std@@@std@@YA$$QAV?$set@P6AXPB_W_J@ZU?$less@P6AXPB_W_J@Z@std@@V?$allocator@P6AXPB_W_J@Z@2@@0@AAV10@@Z 1004d2c0 f i mcdiskcheck.obj
 0002:0004b2f0       ??$?0V?$basic_string@_WU?$char_traits@_W@std@@V?$allocator@_W@2@@std@@V?$set@P6AXPB_W_J@ZU?$less@P6AXPB_W_J@Z@std@@V?$allocator@P6AXPB_W_J@Z@2@@1@@?$_Pair_base@$$CBV?$basic_string@_WU?$char_traits@_W@std@@V?$allocator@_W@2@@std@@V?$set@P6AXPB_W_J@ZU?$less@P6AXPB_W_J@Z@std@@V?$allocator@P6AXPB_W_J@Z@2@@2@@std@@QAE@$$QAV?$basic_string@_WU?$char_traits@_W@std@@V?$allocator@_W@2@@1@$$QAV?$set@P6AXPB_W_J@ZU?$less@P6AXPB_W_J@Z@std@@V?$allocator@P6AXPB_W_J@Z@2@@1@@Z 1004d2f0 f i mcdiskcheck.obj
 0002:0004b3a0       ??0?$set@P6AXPB_W_J@ZU?$less@P6AXPB_W_J@Z@std@@V?$allocator@P6AXPB_W_J@Z@2@@std@@QAE@$$QAV01@@Z 1004d3a0 f i mcdiskcheck.obj
 0002:0004b400       ??0?$_Tree@V?$_Tset_traits@P6AXPB_W_J@ZU?$less@P6AXPB_W_J@Z@std@@V?$allocator@P6AXPB_W_J@Z@2@$0A@@std@@@std@@QAE@$$QAV01@@Z 1004d400 f i mcdiskcheck.obj
 0002:0004b4c0       ?_Assign_rv@?$_Tree@V?$_Tset_traits@P6AXPB_W_J@ZU?$less@P6AXPB_W_J@Z@std@@V?$allocator@P6AXPB_W_J@Z@2@$0A@@std@@@std@@QAEX$$QAV12@@Z 1004d4c0 f i mcdiskcheck.obj
 0002:0004b5b0       ?get_allocator@?$_Tree@V?$_Tset_traits@P6AXPB_W_J@ZU?$less@P6AXPB_W_J@Z@std@@V?$allocator@P6AXPB_W_J@Z@2@$0A@@std@@@std@@QBE?AV?$allocator@P6AXPB_W_J@Z@2@XZ 1004d5b0 f i mcdiskcheck.obj
 0002:0004b600       ??$move@AAV?$set@P6AXPB_W_J@ZU?$less@P6AXPB_W_J@Z@std@@V?$allocator@P6AXPB_W_J@Z@2@@std@@@std@@YA$$QAV?$set@P6AXPB_W_J@ZU?$less@P6AXPB_W_J@Z@std@@V?$allocator@P6AXPB_W_J@Z@2@@0@AAV10@@Z 1004d600 f i mcdiskcheck.obj
 0002:0004b630       ??$forward@V?$_Tree@V?$_Tset_traits@P6AXPB_W_J@ZU?$less@P6AXPB_W_J@Z@std@@V?$allocator@P6AXPB_W_J@Z@2@$0A@@std@@@std@@@std@@YA$$QAV?$_Tree@V?$_Tset_traits@P6AXPB_W_J@ZU?$less@P6AXPB_W_J@Z@std@@V?$allocator@P6AXPB_W_J@Z@2@$0A@@std@@@0@AAV10@@Z 1004d630 f i mcdiskcheck.obj
 0002:0004b660       ??$?9P6AXPB_W_J@ZP6AX01@Z@std@@YA_NABV?$allocator@P6AXPB_W_J@Z@0@0@Z 1004d660 f i mcdiskcheck.obj
 0002:0004b6b0       ??$_Swap_adl@U?$less@P6AXPB_W_J@Z@std@@@std@@YAXAAU?$less@P6AXPB_W_J@Z@0@0@Z 1004d6b0 f i mcdiskcheck.obj
 0002:0004b700       ??$swap@PAU_Node@?$_Tree_nod@V?$_Tset_traits@P6AXPB_W_J@ZU?$less@P6AXPB_W_J@Z@std@@V?$allocator@P6AXPB_W_J@Z@2@$0A@@std@@@std@@@std@@YAXAAPAU_Node@?$_Tree_nod@V?$_Tset_traits@P6AXPB_W_J@ZU?$less@P6AXPB_W_J@Z@std@@V?$allocator@P6AXPB_W_J@Z@2@$0A@@std@@@0@0@Z 1004d700 f i mcdiskcheck.obj
 0002:0004b7a0       ??$swap@I@std@@YAXAAI0@Z   1004d7a0 f i mcdiskcheck.obj
 0002:0004b840       ??$?8P6AXPB_W_J@ZP6AX01@Z@std@@YA_NABV?$allocator@P6AXPB_W_J@Z@0@0@Z 1004d840 f i mcdiskcheck.obj
 0002:0004b870       ??$swap@U?$less@P6AXPB_W_J@Z@std@@@std@@YAXAAU?$less@P6AXPB_W_J@Z@0@0@Z 1004d870 f i mcdiskcheck.obj
 0002:0004b900       ??$_Move@AAPAU_Node@?$_Tree_nod@V?$_Tset_traits@P6AXPB_W_J@ZU?$less@P6AXPB_W_J@Z@std@@V?$allocator@P6AXPB_W_J@Z@2@$0A@@std@@@std@@@std@@YA$$QAPAU_Node@?$_Tree_nod@V?$_Tset_traits@P6AXPB_W_J@ZU?$less@P6AXPB_W_J@Z@std@@V?$allocator@P6AXPB_W_J@Z@2@$0A@@std@@@0@AAPAU120@@Z 1004d900 f i mcdiskcheck.obj
 0002:0004b930       ??$_Move@AAI@std@@YA$$QAIAAI@Z 1004d930 f i mcdiskcheck.obj
 0002:0004b960       ??$_Move@AAU?$less@P6AXPB_W_J@Z@std@@@std@@YA$$QAU?$less@P6AXPB_W_J@Z@0@AAU10@@Z 1004d960 f i mcdiskcheck.obj
 0002:0004b990       ??0?$map@V?$basic_string@_WU?$char_traits@_W@std@@V?$allocator@_W@2@@std@@V?$set@P6AXPB_W_J@ZU?$less@P6AXPB_W_J@Z@std@@V?$allocator@P6AXPB_W_J@Z@2@@2@U?$less@V?$basic_string@_WU?$char_traits@_W@std@@V?$allocator@_W@2@@std@@@2@V?$allocator@U?$pair@$$CBV?$basic_string@_WU?$char_traits@_W@std@@V?$allocator@_W@2@@std@@V?$set@P6AXPB_W_J@ZU?$less@P6AXPB_W_J@Z@std@@V?$allocator@P6AXPB_W_J@Z@2@@2@@std@@@2@@std@@QAE@XZ 1004d990 f i mcdiskcheck.obj
 0002:0004b9f0       ??0?$_Tree@V?$_Tmap_traits@V?$basic_string@_WU?$char_traits@_W@std@@V?$allocator@_W@2@@std@@V?$set@P6AXPB_W_J@ZU?$less@P6AXPB_W_J@Z@std@@V?$allocator@P6AXPB_W_J@Z@2@@2@U?$less@V?$basic_string@_WU?$char_traits@_W@std@@V?$allocator@_W@2@@std@@@2@V?$allocator@U?$pair@$$CBV?$basic_string@_WU?$char_traits@_W@std@@V?$allocator@_W@2@@std@@V?$set@P6AXPB_W_J@ZU?$less@P6AXPB_W_J@Z@std@@V?$allocator@P6AXPB_W_J@Z@2@@2@@std@@@2@$0A@@std@@@std@@QAE@ABU?$less@V?$basic_string@_WU?$char_traits@_W@std@@V?$allocator@_W@2@@std@@@1@ABV?$allocator@U?$pair@$$CBV?$basic_string@_WU?$char_traits@_W@std@@V?$allocator@_W@2@@std@@V?$set@P6AXPB_W_J@ZU?$less@P6AXPB_W_J@Z@std@@V?$allocator@P6AXPB_W_J@Z@2@@2@@std@@@1@@Z 1004d9f0 f i mcdiskcheck.obj
 0002:0004ba50       ??0?$allocator@U?$pair@$$CBV?$basic_string@_WU?$char_traits@_W@std@@V?$allocator@_W@2@@std@@V?$set@P6AXPB_W_J@ZU?$less@P6AXPB_W_J@Z@std@@V?$allocator@P6AXPB_W_J@Z@2@@2@@std@@@std@@QAE@XZ 1004da50 f i mcdiskcheck.obj
 0002:0004ba80       ??0?$_Tree_val@V?$_Tmap_traits@V?$basic_string@_WU?$char_traits@_W@std@@V?$allocator@_W@2@@std@@V?$set@P6AXPB_W_J@ZU?$less@P6AXPB_W_J@Z@std@@V?$allocator@P6AXPB_W_J@Z@2@@2@U?$less@V?$basic_string@_WU?$char_traits@_W@std@@V?$allocator@_W@2@@std@@@2@V?$allocator@U?$pair@$$CBV?$basic_string@_WU?$char_traits@_W@std@@V?$allocator@_W@2@@std@@V?$set@P6AXPB_W_J@ZU?$less@P6AXPB_W_J@Z@std@@V?$allocator@P6AXPB_W_J@Z@2@@2@@std@@@2@$0A@@std@@@std@@QAE@ABU?$less@V?$basic_string@_WU?$char_traits@_W@std@@V?$allocator@_W@2@@std@@@1@V?$allocator@U?$pair@$$CBV?$basic_string@_WU?$char_traits@_W@std@@V?$allocator@_W@2@@std@@V?$set@P6AXPB_W_J@ZU?$less@P6AXPB_W_J@Z@std@@V?$allocator@P6AXPB_W_J@Z@2@@2@@std@@@1@@Z 1004da80 f i mcdiskcheck.obj
 0002:0004bb60       ??0?$allocator@U?$pair@$$CBV?$basic_string@_WU?$char_traits@_W@std@@V?$allocator@_W@2@@std@@V?$set@P6AXPB_W_J@ZU?$less@P6AXPB_W_J@Z@std@@V?$allocator@P6AXPB_W_J@Z@2@@2@@std@@@std@@QAE@ABV01@@Z 1004db60 f i mcdiskcheck.obj
 0002:0004bb90       ??0?$_Tree_nod@V?$_Tmap_traits@V?$basic_string@_WU?$char_traits@_W@std@@V?$allocator@_W@2@@std@@V?$set@P6AXPB_W_J@ZU?$less@P6AXPB_W_J@Z@std@@V?$allocator@P6AXPB_W_J@Z@2@@2@U?$less@V?$basic_string@_WU?$char_traits@_W@std@@V?$allocator@_W@2@@std@@@2@V?$allocator@U?$pair@$$CBV?$basic_string@_WU?$char_traits@_W@std@@V?$allocator@_W@2@@std@@V?$set@P6AXPB_W_J@ZU?$less@P6AXPB_W_J@Z@std@@V?$allocator@P6AXPB_W_J@Z@2@@2@@std@@@2@$0A@@std@@@std@@QAE@ABU?$less@V?$basic_string@_WU?$char_traits@_W@std@@V?$allocator@_W@2@@std@@@1@V?$allocator@U?$pair@$$CBV?$basic_string@_WU?$char_traits@_W@std@@V?$allocator@_W@2@@std@@V?$set@P6AXPB_W_J@ZU?$less@P6AXPB_W_J@Z@std@@V?$allocator@P6AXPB_W_J@Z@2@@2@@std@@@1@@Z 1004db90 f i mcdiskcheck.obj
 0002:0004bc00       ??0?$_Tmap_traits@V?$basic_string@_WU?$char_traits@_W@std@@V?$allocator@_W@2@@std@@V?$set@P6AXPB_W_J@ZU?$less@P6AXPB_W_J@Z@std@@V?$allocator@P6AXPB_W_J@Z@2@@2@U?$less@V?$basic_string@_WU?$char_traits@_W@std@@V?$allocator@_W@2@@std@@@2@V?$allocator@U?$pair@$$CBV?$basic_string@_WU?$char_traits@_W@std@@V?$allocator@_W@2@@std@@V?$set@P6AXPB_W_J@ZU?$less@P6AXPB_W_J@Z@std@@V?$allocator@P6AXPB_W_J@Z@2@@2@@std@@@2@$0A@@std@@QAE@U?$less@V?$basic_string@_WU?$char_traits@_W@std@@V?$allocator@_W@2@@std@@@1@@Z 1004dc00 f i mcdiskcheck.obj
 0002:0004bc30       ??$?0U?$pair@$$CBV?$basic_string@_WU?$char_traits@_W@std@@V?$allocator@_W@2@@std@@V?$set@P6AXPB_W_J@ZU?$less@P6AXPB_W_J@Z@std@@V?$allocator@P6AXPB_W_J@Z@2@@2@@std@@@?$allocator@U_Node@?$_Tree_nod@V?$_Tmap_traits@V?$basic_string@_WU?$char_traits@_W@std@@V?$allocator@_W@2@@std@@V?$set@P6AXPB_W_J@ZU?$less@P6AXPB_W_J@Z@std@@V?$allocator@P6AXPB_W_J@Z@2@@2@U?$less@V?$basic_string@_WU?$char_traits@_W@std@@V?$allocator@_W@2@@std@@@2@V?$allocator@U?$pair@$$CBV?$basic_string@_WU?$char_traits@_W@std@@V?$allocator@_W@2@@std@@V?$set@P6AXPB_W_J@ZU?$less@P6AXPB_W_J@Z@std@@V?$allocator@P6AXPB_W_J@Z@2@@2@@std@@@2@$0A@@std@@@std@@@std@@QAE@ABV?$allocator@U?$pair@$$CBV?$basic_string@_WU?$char_traits@_W@std@@V?$allocator@_W@2@@std@@V?$set@P6AXPB_W_J@ZU?$less@P6AXPB_W_J@Z@std@@V?$allocator@P6AXPB_W_J@Z@2@@2@@std@@@1@@Z 1004dc30 f i mcdiskcheck.obj
 0002:0004bc60       ??1?$map@V?$basic_string@_WU?$char_traits@_W@std@@V?$allocator@_W@2@@std@@V?$set@P6AXPB_W_J@ZU?$less@P6AXPB_W_J@Z@std@@V?$allocator@P6AXPB_W_J@Z@2@@2@U?$less@V?$basic_string@_WU?$char_traits@_W@std@@V?$allocator@_W@2@@std@@@2@V?$allocator@U?$pair@$$CBV?$basic_string@_WU?$char_traits@_W@std@@V?$allocator@_W@2@@std@@V?$set@P6AXPB_W_J@ZU?$less@P6AXPB_W_J@Z@std@@V?$allocator@P6AXPB_W_J@Z@2@@2@@std@@@2@@std@@QAE@XZ 1004dc60 f i mcdiskcheck.obj
 0002:0004bca0       ??1?$_Tree@V?$_Tmap_traits@V?$basic_string@_WU?$char_traits@_W@std@@V?$allocator@_W@2@@std@@V?$set@P6AXPB_W_J@ZU?$less@P6AXPB_W_J@Z@std@@V?$allocator@P6AXPB_W_J@Z@2@@2@U?$less@V?$basic_string@_WU?$char_traits@_W@std@@V?$allocator@_W@2@@std@@@2@V?$allocator@U?$pair@$$CBV?$basic_string@_WU?$char_traits@_W@std@@V?$allocator@_W@2@@std@@V?$set@P6AXPB_W_J@ZU?$less@P6AXPB_W_J@Z@std@@V?$allocator@P6AXPB_W_J@Z@2@@2@@std@@@2@$0A@@std@@@std@@QAE@XZ 1004dca0 f i mcdiskcheck.obj
 0002:0004bd20       ?_Tidy@?$_Tree@V?$_Tmap_traits@V?$basic_string@_WU?$char_traits@_W@std@@V?$allocator@_W@2@@std@@V?$set@P6AXPB_W_J@ZU?$less@P6AXPB_W_J@Z@std@@V?$allocator@P6AXPB_W_J@Z@2@@2@U?$less@V?$basic_string@_WU?$char_traits@_W@std@@V?$allocator@_W@2@@std@@@2@V?$allocator@U?$pair@$$CBV?$basic_string@_WU?$char_traits@_W@std@@V?$allocator@_W@2@@std@@V?$set@P6AXPB_W_J@ZU?$less@P6AXPB_W_J@Z@std@@V?$allocator@P6AXPB_W_J@Z@2@@2@@std@@@2@$0A@@std@@@std@@IAEXXZ 1004dd20 f i mcdiskcheck.obj
 0002:0004bdb0       ??1?$_Tree_val@V?$_Tmap_traits@V?$basic_string@_WU?$char_traits@_W@std@@V?$allocator@_W@2@@std@@V?$set@P6AXPB_W_J@ZU?$less@P6AXPB_W_J@Z@std@@V?$allocator@P6AXPB_W_J@Z@2@@2@U?$less@V?$basic_string@_WU?$char_traits@_W@std@@V?$allocator@_W@2@@std@@@2@V?$allocator@U?$pair@$$CBV?$basic_string@_WU?$char_traits@_W@std@@V?$allocator@_W@2@@std@@V?$set@P6AXPB_W_J@ZU?$less@P6AXPB_W_J@Z@std@@V?$allocator@P6AXPB_W_J@Z@2@@2@@std@@@2@$0A@@std@@@std@@QAE@XZ 1004ddb0 f i mcdiskcheck.obj
 0002:0004be00       ?erase@?$_Tree@V?$_Tmap_traits@V?$basic_string@_WU?$char_traits@_W@std@@V?$allocator@_W@2@@std@@V?$set@P6AXPB_W_J@ZU?$less@P6AXPB_W_J@Z@std@@V?$allocator@P6AXPB_W_J@Z@2@@2@U?$less@V?$basic_string@_WU?$char_traits@_W@std@@V?$allocator@_W@2@@std@@@2@V?$allocator@U?$pair@$$CBV?$basic_string@_WU?$char_traits@_W@std@@V?$allocator@_W@2@@std@@V?$set@P6AXPB_W_J@ZU?$less@P6AXPB_W_J@Z@std@@V?$allocator@P6AXPB_W_J@Z@2@@2@@std@@@2@$0A@@std@@@std@@QAE?AV?$_Tree_iterator@V?$_Tree_val@V?$_Tmap_traits@V?$basic_string@_WU?$char_traits@_W@std@@V?$allocator@_W@2@@std@@V?$set@P6AXPB_W_J@ZU?$less@P6AXPB_W_J@Z@std@@V?$allocator@P6AXPB_W_J@Z@2@@2@U?$less@V?$basic_string@_WU?$char_traits@_W@std@@V?$allocator@_W@2@@std@@@2@V?$allocator@U?$pair@$$CBV?$basic_string@_WU?$char_traits@_W@std@@V?$allocator@_W@2@@std@@V?$set@P6AXPB_W_J@ZU?$less@P6AXPB_W_J@Z@std@@V?$allocator@P6AXPB_W_J@Z@2@@2@@std@@@2@$0A@@std@@@std@@@2@V?$_Tree_const_iterator@V?$_Tree_val@V?$_Tmap_traits@V?$basic_string@_WU?$char_traits@_W@std@@V?$allocator@_W@2@@std@@V?$set@P6AXPB_W_J@ZU?$less@P6AXPB_W_J@Z@std@@V?$allocator@P6AXPB_W_J@Z@2@@2@U?$less@V?$basic_string@_WU?$char_traits@_W@std@@V?$allocator@_W@2@@std@@@2@V?$allocator@U?$pair@$$CBV?$basic_string@_WU?$char_traits@_W@std@@V?$allocator@_W@2@@std@@V?$set@P6AXPB_W_J@ZU?$less@P6AXPB_W_J@Z@std@@V?$allocator@P6AXPB_W_J@Z@2@@2@@std@@@2@$0A@@std@@@std@@@2@0@Z 1004de00 f i mcdiskcheck.obj
 0002:0004bee0       ?clear@?$_Tree@V?$_Tmap_traits@V?$basic_string@_WU?$char_traits@_W@std@@V?$allocator@_W@2@@std@@V?$set@P6AXPB_W_J@ZU?$less@P6AXPB_W_J@Z@std@@V?$allocator@P6AXPB_W_J@Z@2@@2@U?$less@V?$basic_string@_WU?$char_traits@_W@std@@V?$allocator@_W@2@@std@@@2@V?$allocator@U?$pair@$$CBV?$basic_string@_WU?$char_traits@_W@std@@V?$allocator@_W@2@@std@@V?$set@P6AXPB_W_J@ZU?$less@P6AXPB_W_J@Z@std@@V?$allocator@P6AXPB_W_J@Z@2@@2@@std@@@2@$0A@@std@@@std@@QAEXXZ 1004dee0 f i mcdiskcheck.obj
 0002:0004bf70       ??E?$_Tree_const_iterator@V?$_Tree_val@V?$_Tmap_traits@V?$basic_string@_WU?$char_traits@_W@std@@V?$allocator@_W@2@@std@@V?$set@P6AXPB_W_J@ZU?$less@P6AXPB_W_J@Z@std@@V?$allocator@P6AXPB_W_J@Z@2@@2@U?$less@V?$basic_string@_WU?$char_traits@_W@std@@V?$allocator@_W@2@@std@@@2@V?$allocator@U?$pair@$$CBV?$basic_string@_WU?$char_traits@_W@std@@V?$allocator@_W@2@@std@@V?$set@P6AXPB_W_J@ZU?$less@P6AXPB_W_J@Z@std@@V?$allocator@P6AXPB_W_J@Z@2@@2@@std@@@2@$0A@@std@@@std@@@std@@QAE?AV01@H@Z 1004df70 f i mcdiskcheck.obj
 0002:0004c000       ?_Erase@?$_Tree@V?$_Tmap_traits@V?$basic_string@_WU?$char_traits@_W@std@@V?$allocator@_W@2@@std@@V?$set@P6AXPB_W_J@ZU?$less@P6AXPB_W_J@Z@std@@V?$allocator@P6AXPB_W_J@Z@2@@2@U?$less@V?$basic_string@_WU?$char_traits@_W@std@@V?$allocator@_W@2@@std@@@2@V?$allocator@U?$pair@$$CBV?$basic_string@_WU?$char_traits@_W@std@@V?$allocator@_W@2@@std@@V?$set@P6AXPB_W_J@ZU?$less@P6AXPB_W_J@Z@std@@V?$allocator@P6AXPB_W_J@Z@2@@2@@std@@@2@$0A@@std@@@std@@IAEXPAU_Node@?$_Tree_nod@V?$_Tmap_traits@V?$basic_string@_WU?$char_traits@_W@std@@V?$allocator@_W@2@@std@@V?$set@P6AXPB_W_J@ZU?$less@P6AXPB_W_J@Z@std@@V?$allocator@P6AXPB_W_J@Z@2@@2@U?$less@V?$basic_string@_WU?$char_traits@_W@std@@V?$allocator@_W@2@@std@@@2@V?$allocator@U?$pair@$$CBV?$basic_string@_WU?$char_traits@_W@std@@V?$allocator@_W@2@@std@@V?$set@P6AXPB_W_J@ZU?$less@P6AXPB_W_J@Z@std@@V?$allocator@P6AXPB_W_J@Z@2@@2@@std@@@2@$0A@@std@@@2@@Z 1004e000 f i mcdiskcheck.obj
 0002:0004c0c0       ??0CThreadSafeLock@@QAE@XZ 1004e0c0 f   mcsafelock.obj
 0002:0004c140       ??1CThreadSafeLock@@QAE@XZ 1004e140 f   mcsafelock.obj
 0002:0004c190       ?Acquire@CThreadSafeLock@@QAEXPBD0H@Z 1004e190 f   mcsafelock.obj
 0002:0004c3e0       ?Release@CThreadSafeLock@@QAEXXZ 1004e3e0 f   mcsafelock.obj
 0002:0004c480       ??$sprintf_s@$0BAA@@@YAHAAY0BAA@DPBDZZ 1004e480 f i mcsafelock.obj
 0002:0004c4e0       ??$strcat_s@$0EAA@@@YAHAAY0EAA@DPBD@Z 1004e4e0 f i mcsafelock.obj
 0002:0004c540       _createrecorder            1004e540 f   recordercommand.obj
 0002:0004c670       _pause                     1004e670 f   recordercommand.obj
 0002:0004c6c0       _resume                    1004e6c0 f   recordercommand.obj
 0002:0004c710       _closerecorder             1004e710 f   recordercommand.obj
 0002:0004c760       _getfilepath               1004e760 f   recordercommand.obj
 0002:0004c8c0       _setalarmconfig            1004e8c0 f   recordercommand.obj
 0002:0004c910       _setdiskcheckcb            1004e910 f   recordercommand.obj
 0002:0004c960       ?GetDriveSpaceAlarmConfig@?A0xd2540de2@@YAXPB_WAAI1@Z 1004e960 f   recorderinterface.obj
 0002:0004cad0       ?SetDriveSpaceAlarmConfig@?A0xd2540de2@@YAXPB_WII@Z 1004ead0 f   recorderinterface.obj
 0002:0004ccd0       ??1?$pair@V?$basic_string@_WU?$char_traits@_W@std@@V?$allocator@_W@2@@std@@U?$pair@II@2@@std@@QAE@XZ 1004ecd0 f i recorderinterface.obj
 0002:0004cd10       ??1?$_Pair_base@V?$basic_string@_WU?$char_traits@_W@std@@V?$allocator@_W@2@@std@@U?$pair@II@2@@std@@QAE@XZ 1004ed10 f i recorderinterface.obj
 0002:0004cd50       ?DiskSpaceAlarmCallback@?A0xd2540de2@@YAXPB_W_J@Z 1004ed50 f   recorderinterface.obj
 0002:0004cf80       ?CreateRecorder@@YAPAXABUtagRecoderParam@@@Z 1004ef80 f   recorderinterface.obj
 0002:0004d0b0       ?CloseRecorder@@YAGPAX@Z   1004f0b0 f   recorderinterface.obj
 0002:0004d160       ?PauseRecoder@@YAGPAX@Z    1004f160 f   recorderinterface.obj
 0002:0004d1e0       ?ResumRecoder@@YAGPAX@Z    1004f1e0 f   recorderinterface.obj
 0002:0004d260       ?GetRecorderFilePath@@YAGPAXPA_WH@Z 1004f260 f   recorderinterface.obj
 0002:0004d2f0       ?SetRecoderDiskCheckCB@@YAGP6AXEI@ZI@Z 1004f2f0 f   recorderinterface.obj
 0002:0004d330       ?SetRecoderDiskCheckPartitionAlarm@@YAGPB_WII@Z 1004f330 f   recorderinterface.obj
 0002:0004d400       ??0CAsfRecoder@@QAE@H@Z    1004f400 f   recorderinterface.obj
 0002:0004d4f0       ??_ECAsfRecoder@@UAEPAXI@Z 1004f4f0 f i recorderinterface.obj
 0002:0004d4f0       ??_GCAsfRecoder@@UAEPAXI@Z 1004f4f0 f i recorderinterface.obj
 0002:0004d550       ??1CAsfRecoder@@UAE@XZ     1004f550 f   recorderinterface.obj
 0002:0004d5f0       ?CreateRecFile@CAsfRecoder@@QAEGPA_WHHI@Z 1004f5f0 f   recorderinterface.obj
 0002:0004d790       ?PauseRec@CAsfRecoder@@QAEGH@Z 1004f790 f   recorderinterface.obj
 0002:0004d910       ?ReStartRec@CAsfRecoder@@QAEGHH@Z 1004f910 f   recorderinterface.obj
 0002:0004da50       ?WriteVideo@CAsfRecoder@@QAEGPAUtagFrameHdr@@I@Z 1004fa50 f   recorderinterface.obj
 0002:0004de50       ?WriteAudio@CAsfRecoder@@QAEGPAUtagFrameHdr@@I@Z 1004fe50 f   recorderinterface.obj
 0002:0004e080       ?StopRecAndRemoveFile@CAsfRecoder@@QAEGH@Z 10050080 f   recorderinterface.obj
 0002:0004e1c0       ?GetRecorderFilePath@CAsfRecoder@@QAEGPA_WH@Z 100501c0 f   recorderinterface.obj
 0002:0004e2c0       ?end@?$_Tree@V?$_Tmap_traits@V?$basic_string@_WU?$char_traits@_W@std@@V?$allocator@_W@2@@std@@U?$pair@II@2@U?$less@V?$basic_string@_WU?$char_traits@_W@std@@V?$allocator@_W@2@@std@@@2@V?$allocator@U?$pair@$$CBV?$basic_string@_WU?$char_traits@_W@std@@V?$allocator@_W@2@@std@@U?$pair@II@2@@std@@@2@$0A@@std@@@std@@QAE?AV?$_Tree_iterator@V?$_Tree_val@V?$_Tmap_traits@V?$basic_string@_WU?$char_traits@_W@std@@V?$allocator@_W@2@@std@@U?$pair@II@2@U?$less@V?$basic_string@_WU?$char_traits@_W@std@@V?$allocator@_W@2@@std@@@2@V?$allocator@U?$pair@$$CBV?$basic_string@_WU?$char_traits@_W@std@@V?$allocator@_W@2@@std@@U?$pair@II@2@@std@@@2@$0A@@std@@@std@@@2@XZ 100502c0 f i recorderinterface.obj
 0002:0004e310       ?find@?$_Tree@V?$_Tmap_traits@V?$basic_string@_WU?$char_traits@_W@std@@V?$allocator@_W@2@@std@@U?$pair@II@2@U?$less@V?$basic_string@_WU?$char_traits@_W@std@@V?$allocator@_W@2@@std@@@2@V?$allocator@U?$pair@$$CBV?$basic_string@_WU?$char_traits@_W@std@@V?$allocator@_W@2@@std@@U?$pair@II@2@@std@@@2@$0A@@std@@@std@@QAE?AV?$_Tree_iterator@V?$_Tree_val@V?$_Tmap_traits@V?$basic_string@_WU?$char_traits@_W@std@@V?$allocator@_W@2@@std@@U?$pair@II@2@U?$less@V?$basic_string@_WU?$char_traits@_W@std@@V?$allocator@_W@2@@std@@@2@V?$allocator@U?$pair@$$CBV?$basic_string@_WU?$char_traits@_W@std@@V?$allocator@_W@2@@std@@U?$pair@II@2@@std@@@2@$0A@@std@@@std@@@2@ABV?$basic_string@_WU?$char_traits@_W@std@@V?$allocator@_W@2@@2@@Z 10050310 f i recorderinterface.obj
 0002:0004e410       ??C?$_Tree_iterator@V?$_Tree_val@V?$_Tmap_traits@V?$basic_string@_WU?$char_traits@_W@std@@V?$allocator@_W@2@@std@@U?$pair@II@2@U?$less@V?$basic_string@_WU?$char_traits@_W@std@@V?$allocator@_W@2@@std@@@2@V?$allocator@U?$pair@$$CBV?$basic_string@_WU?$char_traits@_W@std@@V?$allocator@_W@2@@std@@U?$pair@II@2@@std@@@2@$0A@@std@@@std@@@std@@QBEPAU?$pair@$$CBV?$basic_string@_WU?$char_traits@_W@std@@V?$allocator@_W@2@@std@@U?$pair@II@2@@1@XZ 10050410 f i recorderinterface.obj
 0002:0004e450       ??9?$_Tree_const_iterator@V?$_Tree_val@V?$_Tmap_traits@V?$basic_string@_WU?$char_traits@_W@std@@V?$allocator@_W@2@@std@@U?$pair@II@2@U?$less@V?$basic_string@_WU?$char_traits@_W@std@@V?$allocator@_W@2@@std@@@2@V?$allocator@U?$pair@$$CBV?$basic_string@_WU?$char_traits@_W@std@@V?$allocator@_W@2@@std@@U?$pair@II@2@@std@@@2@$0A@@std@@@std@@@std@@QBE_NABV01@@Z 10050450 f i recorderinterface.obj
 0002:0004e4a0       ?lower_bound@?$_Tree@V?$_Tmap_traits@V?$basic_string@_WU?$char_traits@_W@std@@V?$allocator@_W@2@@std@@U?$pair@II@2@U?$less@V?$basic_string@_WU?$char_traits@_W@std@@V?$allocator@_W@2@@std@@@2@V?$allocator@U?$pair@$$CBV?$basic_string@_WU?$char_traits@_W@std@@V?$allocator@_W@2@@std@@U?$pair@II@2@@std@@@2@$0A@@std@@@std@@QAE?AV?$_Tree_iterator@V?$_Tree_val@V?$_Tmap_traits@V?$basic_string@_WU?$char_traits@_W@std@@V?$allocator@_W@2@@std@@U?$pair@II@2@U?$less@V?$basic_string@_WU?$char_traits@_W@std@@V?$allocator@_W@2@@std@@@2@V?$allocator@U?$pair@$$CBV?$basic_string@_WU?$char_traits@_W@std@@V?$allocator@_W@2@@std@@U?$pair@II@2@@std@@@2@$0A@@std@@@std@@@2@ABV?$basic_string@_WU?$char_traits@_W@std@@V?$allocator@_W@2@@2@@Z 100504a0 f i recorderinterface.obj
 0002:0004e500       ?_Key@?$_Tree_val@V?$_Tmap_traits@V?$basic_string@_WU?$char_traits@_W@std@@V?$allocator@_W@2@@std@@U?$pair@II@2@U?$less@V?$basic_string@_WU?$char_traits@_W@std@@V?$allocator@_W@2@@std@@@2@V?$allocator@U?$pair@$$CBV?$basic_string@_WU?$char_traits@_W@std@@V?$allocator@_W@2@@std@@U?$pair@II@2@@std@@@2@$0A@@std@@@std@@SAAAV?$basic_string@_WU?$char_traits@_W@std@@V?$allocator@_W@2@@2@PAU_Node@?$_Tree_nod@V?$_Tmap_traits@V?$basic_string@_WU?$char_traits@_W@std@@V?$allocator@_W@2@@std@@U?$pair@II@2@U?$less@V?$basic_string@_WU?$char_traits@_W@std@@V?$allocator@_W@2@@std@@@2@V?$allocator@U?$pair@$$CBV?$basic_string@_WU?$char_traits@_W@std@@V?$allocator@_W@2@@std@@U?$pair@II@2@@std@@@2@$0A@@std@@@2@@Z 10050500 f i recorderinterface.obj
 0002:0004e550       ??0?$_Tree_iterator@V?$_Tree_val@V?$_Tmap_traits@V?$basic_string@_WU?$char_traits@_W@std@@V?$allocator@_W@2@@std@@U?$pair@II@2@U?$less@V?$basic_string@_WU?$char_traits@_W@std@@V?$allocator@_W@2@@std@@@2@V?$allocator@U?$pair@$$CBV?$basic_string@_WU?$char_traits@_W@std@@V?$allocator@_W@2@@std@@U?$pair@II@2@@std@@@2@$0A@@std@@@std@@@std@@QAE@PAU_Node@?$_Tree_nod@V?$_Tmap_traits@V?$basic_string@_WU?$char_traits@_W@std@@V?$allocator@_W@2@@std@@U?$pair@II@2@U?$less@V?$basic_string@_WU?$char_traits@_W@std@@V?$allocator@_W@2@@std@@@2@V?$allocator@U?$pair@$$CBV?$basic_string@_WU?$char_traits@_W@std@@V?$allocator@_W@2@@std@@U?$pair@II@2@@std@@@2@$0A@@std@@@1@PBV?$_Tree_val@V?$_Tmap_traits@V?$basic_string@_WU?$char_traits@_W@std@@V?$allocator@_W@2@@std@@U?$pair@II@2@U?$less@V?$basic_string@_WU?$char_traits@_W@std@@V?$allocator@_W@2@@std@@@2@V?$allocator@U?$pair@$$CBV?$basic_string@_WU?$char_traits@_W@std@@V?$allocator@_W@2@@std@@U?$pair@II@2@@std@@@2@$0A@@std@@@1@@Z 10050550 f i recorderinterface.obj
 0002:0004e5a0       ??D?$_Tree_iterator@V?$_Tree_val@V?$_Tmap_traits@V?$basic_string@_WU?$char_traits@_W@std@@V?$allocator@_W@2@@std@@U?$pair@II@2@U?$less@V?$basic_string@_WU?$char_traits@_W@std@@V?$allocator@_W@2@@std@@@2@V?$allocator@U?$pair@$$CBV?$basic_string@_WU?$char_traits@_W@std@@V?$allocator@_W@2@@std@@U?$pair@II@2@@std@@@2@$0A@@std@@@std@@@std@@QBEAAU?$pair@$$CBV?$basic_string@_WU?$char_traits@_W@std@@V?$allocator@_W@2@@std@@U?$pair@II@2@@1@XZ 100505a0 f i recorderinterface.obj
 0002:0004e5e0       ??8?$_Tree_const_iterator@V?$_Tree_val@V?$_Tmap_traits@V?$basic_string@_WU?$char_traits@_W@std@@V?$allocator@_W@2@@std@@U?$pair@II@2@U?$less@V?$basic_string@_WU?$char_traits@_W@std@@V?$allocator@_W@2@@std@@@2@V?$allocator@U?$pair@$$CBV?$basic_string@_WU?$char_traits@_W@std@@V?$allocator@_W@2@@std@@U?$pair@II@2@@std@@@2@$0A@@std@@@std@@@std@@QBE_NABV01@@Z 100505e0 f i recorderinterface.obj
 0002:0004e620       ?_Mynode@?$_Tree_unchecked_const_iterator@V?$_Tree_val@V?$_Tmap_traits@V?$basic_string@_WU?$char_traits@_W@std@@V?$allocator@_W@2@@std@@U?$pair@II@2@U?$less@V?$basic_string@_WU?$char_traits@_W@std@@V?$allocator@_W@2@@std@@@2@V?$allocator@U?$pair@$$CBV?$basic_string@_WU?$char_traits@_W@std@@V?$allocator@_W@2@@std@@U?$pair@II@2@@std@@@2@$0A@@std@@@std@@U_Iterator_base0@2@@std@@QBEPAU_Node@?$_Tree_nod@V?$_Tmap_traits@V?$basic_string@_WU?$char_traits@_W@std@@V?$allocator@_W@2@@std@@U?$pair@II@2@U?$less@V?$basic_string@_WU?$char_traits@_W@std@@V?$allocator@_W@2@@std@@@2@V?$allocator@U?$pair@$$CBV?$basic_string@_WU?$char_traits@_W@std@@V?$allocator@_W@2@@std@@U?$pair@II@2@@std@@@2@$0A@@std@@@2@XZ 10050620 f i recorderinterface.obj
 0002:0004e650       ?_Lbound@?$_Tree@V?$_Tmap_traits@V?$basic_string@_WU?$char_traits@_W@std@@V?$allocator@_W@2@@std@@U?$pair@II@2@U?$less@V?$basic_string@_WU?$char_traits@_W@std@@V?$allocator@_W@2@@std@@@2@V?$allocator@U?$pair@$$CBV?$basic_string@_WU?$char_traits@_W@std@@V?$allocator@_W@2@@std@@U?$pair@II@2@@std@@@2@$0A@@std@@@std@@IAEPAU_Node@?$_Tree_nod@V?$_Tmap_traits@V?$basic_string@_WU?$char_traits@_W@std@@V?$allocator@_W@2@@std@@U?$pair@II@2@U?$less@V?$basic_string@_WU?$char_traits@_W@std@@V?$allocator@_W@2@@std@@@2@V?$allocator@U?$pair@$$CBV?$basic_string@_WU?$char_traits@_W@std@@V?$allocator@_W@2@@std@@U?$pair@II@2@@std@@@2@$0A@@std@@@2@ABV?$basic_string@_WU?$char_traits@_W@std@@V?$allocator@_W@2@@2@@Z 10050650 f i recorderinterface.obj
 0002:0004e710       ?_Myval@?$_Tree_val@V?$_Tmap_traits@V?$basic_string@_WU?$char_traits@_W@std@@V?$allocator@_W@2@@std@@U?$pair@II@2@U?$less@V?$basic_string@_WU?$char_traits@_W@std@@V?$allocator@_W@2@@std@@@2@V?$allocator@U?$pair@$$CBV?$basic_string@_WU?$char_traits@_W@std@@V?$allocator@_W@2@@std@@U?$pair@II@2@@std@@@2@$0A@@std@@@std@@SAAAU?$pair@$$CBV?$basic_string@_WU?$char_traits@_W@std@@V?$allocator@_W@2@@std@@U?$pair@II@2@@2@PAU_Node@?$_Tree_nod@V?$_Tmap_traits@V?$basic_string@_WU?$char_traits@_W@std@@V?$allocator@_W@2@@std@@U?$pair@II@2@U?$less@V?$basic_string@_WU?$char_traits@_W@std@@V?$allocator@_W@2@@std@@@2@V?$allocator@U?$pair@$$CBV?$basic_string@_WU?$char_traits@_W@std@@V?$allocator@_W@2@@std@@U?$pair@II@2@@std@@@2@$0A@@std@@@2@@Z 10050710 f i recorderinterface.obj
 0002:0004e740       ??0?$_Tree_const_iterator@V?$_Tree_val@V?$_Tmap_traits@V?$basic_string@_WU?$char_traits@_W@std@@V?$allocator@_W@2@@std@@U?$pair@II@2@U?$less@V?$basic_string@_WU?$char_traits@_W@std@@V?$allocator@_W@2@@std@@@2@V?$allocator@U?$pair@$$CBV?$basic_string@_WU?$char_traits@_W@std@@V?$allocator@_W@2@@std@@U?$pair@II@2@@std@@@2@$0A@@std@@@std@@@std@@QAE@PAU_Node@?$_Tree_nod@V?$_Tmap_traits@V?$basic_string@_WU?$char_traits@_W@std@@V?$allocator@_W@2@@std@@U?$pair@II@2@U?$less@V?$basic_string@_WU?$char_traits@_W@std@@V?$allocator@_W@2@@std@@@2@V?$allocator@U?$pair@$$CBV?$basic_string@_WU?$char_traits@_W@std@@V?$allocator@_W@2@@std@@U?$pair@II@2@@std@@@2@$0A@@std@@@1@PBV?$_Tree_val@V?$_Tmap_traits@V?$basic_string@_WU?$char_traits@_W@std@@V?$allocator@_W@2@@std@@U?$pair@II@2@U?$less@V?$basic_string@_WU?$char_traits@_W@std@@V?$allocator@_W@2@@std@@@2@V?$allocator@U?$pair@$$CBV?$basic_string@_WU?$char_traits@_W@std@@V?$allocator@_W@2@@std@@U?$pair@II@2@@std@@@2@$0A@@std@@@1@@Z 10050740 f i recorderinterface.obj
 0002:0004e790       ??D?$_Tree_const_iterator@V?$_Tree_val@V?$_Tmap_traits@V?$basic_string@_WU?$char_traits@_W@std@@V?$allocator@_W@2@@std@@U?$pair@II@2@U?$less@V?$basic_string@_WU?$char_traits@_W@std@@V?$allocator@_W@2@@std@@@2@V?$allocator@U?$pair@$$CBV?$basic_string@_WU?$char_traits@_W@std@@V?$allocator@_W@2@@std@@U?$pair@II@2@@std@@@2@$0A@@std@@@std@@@std@@QBEABU?$pair@$$CBV?$basic_string@_WU?$char_traits@_W@std@@V?$allocator@_W@2@@std@@U?$pair@II@2@@1@XZ 10050790 f i recorderinterface.obj
 0002:0004e7e0       ?_Root@?$_Tree@V?$_Tmap_traits@V?$basic_string@_WU?$char_traits@_W@std@@V?$allocator@_W@2@@std@@U?$pair@II@2@U?$less@V?$basic_string@_WU?$char_traits@_W@std@@V?$allocator@_W@2@@std@@@2@V?$allocator@U?$pair@$$CBV?$basic_string@_WU?$char_traits@_W@std@@V?$allocator@_W@2@@std@@U?$pair@II@2@@std@@@2@$0A@@std@@@std@@IBEAAPAU_Node@?$_Tree_nod@V?$_Tmap_traits@V?$basic_string@_WU?$char_traits@_W@std@@V?$allocator@_W@2@@std@@U?$pair@II@2@U?$less@V?$basic_string@_WU?$char_traits@_W@std@@V?$allocator@_W@2@@std@@@2@V?$allocator@U?$pair@$$CBV?$basic_string@_WU?$char_traits@_W@std@@V?$allocator@_W@2@@std@@U?$pair@II@2@@std@@@2@$0A@@std@@@2@XZ 100507e0 f i recorderinterface.obj
 0002:0004e830       ?_Isnil@?$_Tree_val@V?$_Tmap_traits@V?$basic_string@_WU?$char_traits@_W@std@@V?$allocator@_W@2@@std@@U?$pair@II@2@U?$less@V?$basic_string@_WU?$char_traits@_W@std@@V?$allocator@_W@2@@std@@@2@V?$allocator@U?$pair@$$CBV?$basic_string@_WU?$char_traits@_W@std@@V?$allocator@_W@2@@std@@U?$pair@II@2@@std@@@2@$0A@@std@@@std@@SAAADPAU_Node@?$_Tree_nod@V?$_Tmap_traits@V?$basic_string@_WU?$char_traits@_W@std@@V?$allocator@_W@2@@std@@U?$pair@II@2@U?$less@V?$basic_string@_WU?$char_traits@_W@std@@V?$allocator@_W@2@@std@@@2@V?$allocator@U?$pair@$$CBV?$basic_string@_WU?$char_traits@_W@std@@V?$allocator@_W@2@@std@@U?$pair@II@2@@std@@@2@$0A@@std@@@2@@Z 10050830 f i recorderinterface.obj
 0002:0004e860       ?_Left@?$_Tree_val@V?$_Tmap_traits@V?$basic_string@_WU?$char_traits@_W@std@@V?$allocator@_W@2@@std@@U?$pair@II@2@U?$less@V?$basic_string@_WU?$char_traits@_W@std@@V?$allocator@_W@2@@std@@@2@V?$allocator@U?$pair@$$CBV?$basic_string@_WU?$char_traits@_W@std@@V?$allocator@_W@2@@std@@U?$pair@II@2@@std@@@2@$0A@@std@@@std@@SAAAPAU_Node@?$_Tree_nod@V?$_Tmap_traits@V?$basic_string@_WU?$char_traits@_W@std@@V?$allocator@_W@2@@std@@U?$pair@II@2@U?$less@V?$basic_string@_WU?$char_traits@_W@std@@V?$allocator@_W@2@@std@@@2@V?$allocator@U?$pair@$$CBV?$basic_string@_WU?$char_traits@_W@std@@V?$allocator@_W@2@@std@@U?$pair@II@2@@std@@@2@$0A@@std@@@2@PAU342@@Z 10050860 f i recorderinterface.obj
 0002:0004e890       ?_Parent@?$_Tree_val@V?$_Tmap_traits@V?$basic_string@_WU?$char_traits@_W@std@@V?$allocator@_W@2@@std@@U?$pair@II@2@U?$less@V?$basic_string@_WU?$char_traits@_W@std@@V?$allocator@_W@2@@std@@@2@V?$allocator@U?$pair@$$CBV?$basic_string@_WU?$char_traits@_W@std@@V?$allocator@_W@2@@std@@U?$pair@II@2@@std@@@2@$0A@@std@@@std@@SAAAPAU_Node@?$_Tree_nod@V?$_Tmap_traits@V?$basic_string@_WU?$char_traits@_W@std@@V?$allocator@_W@2@@std@@U?$pair@II@2@U?$less@V?$basic_string@_WU?$char_traits@_W@std@@V?$allocator@_W@2@@std@@@2@V?$allocator@U?$pair@$$CBV?$basic_string@_WU?$char_traits@_W@std@@V?$allocator@_W@2@@std@@U?$pair@II@2@@std@@@2@$0A@@std@@@2@PAU342@@Z 10050890 f i recorderinterface.obj
 0002:0004e8c0       ?_Right@?$_Tree_val@V?$_Tmap_traits@V?$basic_string@_WU?$char_traits@_W@std@@V?$allocator@_W@2@@std@@U?$pair@II@2@U?$less@V?$basic_string@_WU?$char_traits@_W@std@@V?$allocator@_W@2@@std@@@2@V?$allocator@U?$pair@$$CBV?$basic_string@_WU?$char_traits@_W@std@@V?$allocator@_W@2@@std@@U?$pair@II@2@@std@@@2@$0A@@std@@@std@@SAAAPAU_Node@?$_Tree_nod@V?$_Tmap_traits@V?$basic_string@_WU?$char_traits@_W@std@@V?$allocator@_W@2@@std@@U?$pair@II@2@U?$less@V?$basic_string@_WU?$char_traits@_W@std@@V?$allocator@_W@2@@std@@@2@V?$allocator@U?$pair@$$CBV?$basic_string@_WU?$char_traits@_W@std@@V?$allocator@_W@2@@std@@U?$pair@II@2@@std@@@2@$0A@@std@@@2@PAU342@@Z 100508c0 f i recorderinterface.obj
 0002:0004e8f0       ??0?$_Tree_unchecked_const_iterator@V?$_Tree_val@V?$_Tmap_traits@V?$basic_string@_WU?$char_traits@_W@std@@V?$allocator@_W@2@@std@@U?$pair@II@2@U?$less@V?$basic_string@_WU?$char_traits@_W@std@@V?$allocator@_W@2@@std@@@2@V?$allocator@U?$pair@$$CBV?$basic_string@_WU?$char_traits@_W@std@@V?$allocator@_W@2@@std@@U?$pair@II@2@@std@@@2@$0A@@std@@@std@@U_Iterator_base0@2@@std@@QAE@PAU_Node@?$_Tree_nod@V?$_Tmap_traits@V?$basic_string@_WU?$char_traits@_W@std@@V?$allocator@_W@2@@std@@U?$pair@II@2@U?$less@V?$basic_string@_WU?$char_traits@_W@std@@V?$allocator@_W@2@@std@@@2@V?$allocator@U?$pair@$$CBV?$basic_string@_WU?$char_traits@_W@std@@V?$allocator@_W@2@@std@@U?$pair@II@2@@std@@@2@$0A@@std@@@1@PBV?$_Tree_val@V?$_Tmap_traits@V?$basic_string@_WU?$char_traits@_W@std@@V?$allocator@_W@2@@std@@U?$pair@II@2@U?$less@V?$basic_string@_WU?$char_traits@_W@std@@V?$allocator@_W@2@@std@@@2@V?$allocator@U?$pair@$$CBV?$basic_string@_WU?$char_traits@_W@std@@V?$allocator@_W@2@@std@@U?$pair@II@2@@std@@@2@$0A@@std@@@1@@Z 100508f0 f i recorderinterface.obj
 0002:0004e940       ??$make_pair@AAIAAI@std@@YA?AU?$pair@II@0@AAI0@Z 10050940 f i recorderinterface.obj
 0002:0004e9a0       ??$make_pair@V?$basic_string@_WU?$char_traits@_W@std@@V?$allocator@_W@2@@std@@U?$pair@II@2@@std@@YA?AU?$pair@V?$basic_string@_WU?$char_traits@_W@std@@V?$allocator@_W@2@@std@@U?$pair@II@2@@0@$$QAV?$basic_string@_WU?$char_traits@_W@std@@V?$allocator@_W@2@@0@$$QAU?$pair@II@0@@Z 100509a0 f i recorderinterface.obj
 0002:0004ea10       ??$insert@U?$pair@V?$basic_string@_WU?$char_traits@_W@std@@V?$allocator@_W@2@@std@@U?$pair@II@2@@std@@@?$_Tree@V?$_Tmap_traits@V?$basic_string@_WU?$char_traits@_W@std@@V?$allocator@_W@2@@std@@U?$pair@II@2@U?$less@V?$basic_string@_WU?$char_traits@_W@std@@V?$allocator@_W@2@@std@@@2@V?$allocator@U?$pair@$$CBV?$basic_string@_WU?$char_traits@_W@std@@V?$allocator@_W@2@@std@@U?$pair@II@2@@std@@@2@$0A@@std@@@std@@QAE?AU?$pair@V?$_Tree_iterator@V?$_Tree_val@V?$_Tmap_traits@V?$basic_string@_WU?$char_traits@_W@std@@V?$allocator@_W@2@@std@@U?$pair@II@2@U?$less@V?$basic_string@_WU?$char_traits@_W@std@@V?$allocator@_W@2@@std@@@2@V?$allocator@U?$pair@$$CBV?$basic_string@_WU?$char_traits@_W@std@@V?$allocator@_W@2@@std@@U?$pair@II@2@@std@@@2@$0A@@std@@@std@@@std@@_N@1@$$QAU?$pair@V?$basic_string@_WU?$char_traits@_W@std@@V?$allocator@_W@2@@std@@U?$pair@II@2@@1@@Z 10050a10 f i recorderinterface.obj
 0002:0004ea70       ??$_Kfn@$$CBV?$basic_string@_WU?$char_traits@_W@std@@V?$allocator@_W@2@@std@@U?$pair@II@2@@?$_Tmap_traits@V?$basic_string@_WU?$char_traits@_W@std@@V?$allocator@_W@2@@std@@U?$pair@II@2@U?$less@V?$basic_string@_WU?$char_traits@_W@std@@V?$allocator@_W@2@@std@@@2@V?$allocator@U?$pair@$$CBV?$basic_string@_WU?$char_traits@_W@std@@V?$allocator@_W@2@@std@@U?$pair@II@2@@std@@@2@$0A@@std@@SAABV?$basic_string@_WU?$char_traits@_W@std@@V?$allocator@_W@2@@1@ABU?$pair@$$CBV?$basic_string@_WU?$char_traits@_W@std@@V?$allocator@_W@2@@std@@U?$pair@II@2@@1@@Z 10050a70 f i recorderinterface.obj
 0002:0004eaa0       ?_Linsert@?$_Tree@V?$_Tmap_traits@V?$basic_string@_WU?$char_traits@_W@std@@V?$allocator@_W@2@@std@@U?$pair@II@2@U?$less@V?$basic_string@_WU?$char_traits@_W@std@@V?$allocator@_W@2@@std@@@2@V?$allocator@U?$pair@$$CBV?$basic_string@_WU?$char_traits@_W@std@@V?$allocator@_W@2@@std@@U?$pair@II@2@@std@@@2@$0A@@std@@@std@@QAE?AU?$pair@V?$_Tree_iterator@V?$_Tree_val@V?$_Tmap_traits@V?$basic_string@_WU?$char_traits@_W@std@@V?$allocator@_W@2@@std@@U?$pair@II@2@U?$less@V?$basic_string@_WU?$char_traits@_W@std@@V?$allocator@_W@2@@std@@@2@V?$allocator@U?$pair@$$CBV?$basic_string@_WU?$char_traits@_W@std@@V?$allocator@_W@2@@std@@U?$pair@II@2@@std@@@2@$0A@@std@@@std@@@std@@_N@2@PAU_Node@?$_Tree_nod@V?$_Tmap_traits@V?$basic_string@_WU?$char_traits@_W@std@@V?$allocator@_W@2@@std@@U?$pair@II@2@U?$less@V?$basic_string@_WU?$char_traits@_W@std@@V?$allocator@_W@2@@std@@@2@V?$allocator@U?$pair@$$CBV?$basic_string@_WU?$char_traits@_W@std@@V?$allocator@_W@2@@std@@U?$pair@II@2@@std@@@2@$0A@@std@@@2@_N@Z 10050aa0 f i recorderinterface.obj
 0002:0004ed70       ?begin@?$_Tree@V?$_Tmap_traits@V?$basic_string@_WU?$char_traits@_W@std@@V?$allocator@_W@2@@std@@U?$pair@II@2@U?$less@V?$basic_string@_WU?$char_traits@_W@std@@V?$allocator@_W@2@@std@@@2@V?$allocator@U?$pair@$$CBV?$basic_string@_WU?$char_traits@_W@std@@V?$allocator@_W@2@@std@@U?$pair@II@2@@std@@@2@$0A@@std@@@std@@QAE?AV?$_Tree_iterator@V?$_Tree_val@V?$_Tmap_traits@V?$basic_string@_WU?$char_traits@_W@std@@V?$allocator@_W@2@@std@@U?$pair@II@2@U?$less@V?$basic_string@_WU?$char_traits@_W@std@@V?$allocator@_W@2@@std@@@2@V?$allocator@U?$pair@$$CBV?$basic_string@_WU?$char_traits@_W@std@@V?$allocator@_W@2@@std@@U?$pair@II@2@@std@@@2@$0A@@std@@@std@@@2@XZ 10050d70 f i recorderinterface.obj
 0002:0004edd0       ?deallocate@?$allocator@U_Node@?$_Tree_nod@V?$_Tmap_traits@V?$basic_string@_WU?$char_traits@_W@std@@V?$allocator@_W@2@@std@@U?$pair@II@2@U?$less@V?$basic_string@_WU?$char_traits@_W@std@@V?$allocator@_W@2@@std@@@2@V?$allocator@U?$pair@$$CBV?$basic_string@_WU?$char_traits@_W@std@@V?$allocator@_W@2@@std@@U?$pair@II@2@@std@@@2@$0A@@std@@@std@@@std@@QAEXPAU_Node@?$_Tree_nod@V?$_Tmap_traits@V?$basic_string@_WU?$char_traits@_W@std@@V?$allocator@_W@2@@std@@U?$pair@II@2@U?$less@V?$basic_string@_WU?$char_traits@_W@std@@V?$allocator@_W@2@@std@@@2@V?$allocator@U?$pair@$$CBV?$basic_string@_WU?$char_traits@_W@std@@V?$allocator@_W@2@@std@@U?$pair@II@2@@std@@@2@$0A@@std@@@2@I@Z 10050dd0 f i recorderinterface.obj
 0002:0004ee20       ?_Lmost@?$_Tree@V?$_Tmap_traits@V?$basic_string@_WU?$char_traits@_W@std@@V?$allocator@_W@2@@std@@U?$pair@II@2@U?$less@V?$basic_string@_WU?$char_traits@_W@std@@V?$allocator@_W@2@@std@@@2@V?$allocator@U?$pair@$$CBV?$basic_string@_WU?$char_traits@_W@std@@V?$allocator@_W@2@@std@@U?$pair@II@2@@std@@@2@$0A@@std@@@std@@IBEAAPAU_Node@?$_Tree_nod@V?$_Tmap_traits@V?$basic_string@_WU?$char_traits@_W@std@@V?$allocator@_W@2@@std@@U?$pair@II@2@U?$less@V?$basic_string@_WU?$char_traits@_W@std@@V?$allocator@_W@2@@std@@@2@V?$allocator@U?$pair@$$CBV?$basic_string@_WU?$char_traits@_W@std@@V?$allocator@_W@2@@std@@U?$pair@II@2@@std@@@2@$0A@@std@@@2@XZ 10050e20 f i recorderinterface.obj
 0002:0004ee70       ??$addressof@U?$pair@$$CBV?$basic_string@_WU?$char_traits@_W@std@@V?$allocator@_W@2@@std@@U?$pair@II@2@@std@@@std@@YAPAU?$pair@$$CBV?$basic_string@_WU?$char_traits@_W@std@@V?$allocator@_W@2@@std@@U?$pair@II@2@@0@AAU10@@Z 10050e70 f i recorderinterface.obj
 0002:0004eea0       ??$_Dest_val@V?$allocator@U?$pair@$$CBV?$basic_string@_WU?$char_traits@_W@std@@V?$allocator@_W@2@@std@@U?$pair@II@2@@std@@@std@@U?$pair@$$CBV?$basic_string@_WU?$char_traits@_W@std@@V?$allocator@_W@2@@std@@U?$pair@II@2@@2@@std@@YAXAAV?$allocator@U?$pair@$$CBV?$basic_string@_WU?$char_traits@_W@std@@V?$allocator@_W@2@@std@@U?$pair@II@2@@std@@@0@PAU?$pair@$$CBV?$basic_string@_WU?$char_traits@_W@std@@V?$allocator@_W@2@@std@@U?$pair@II@2@@0@@Z 10050ea0 f i recorderinterface.obj
 0002:0004eee0       ?destroy@?$allocator@U?$pair@$$CBV?$basic_string@_WU?$char_traits@_W@std@@V?$allocator@_W@2@@std@@U?$pair@II@2@@std@@@std@@QAEXPAU?$pair@$$CBV?$basic_string@_WU?$char_traits@_W@std@@V?$allocator@_W@2@@std@@U?$pair@II@2@@2@@Z 10050ee0 f i recorderinterface.obj
 0002:0004ef30       ??0?$pair@V?$basic_string@_WU?$char_traits@_W@std@@V?$allocator@_W@2@@std@@U?$pair@II@2@@std@@QAE@$$QAV?$basic_string@_WU?$char_traits@_W@std@@V?$allocator@_W@2@@1@$$QAU?$pair@II@1@@Z 10050f30 f i recorderinterface.obj
 0002:0004efa0       ?_Insert@?$_Tree@V?$_Tmap_traits@V?$basic_string@_WU?$char_traits@_W@std@@V?$allocator@_W@2@@std@@U?$pair@II@2@U?$less@V?$basic_string@_WU?$char_traits@_W@std@@V?$allocator@_W@2@@std@@@2@V?$allocator@U?$pair@$$CBV?$basic_string@_WU?$char_traits@_W@std@@V?$allocator@_W@2@@std@@U?$pair@II@2@@std@@@2@$0A@@std@@@std@@IAE?AV?$_Tree_iterator@V?$_Tree_val@V?$_Tmap_traits@V?$basic_string@_WU?$char_traits@_W@std@@V?$allocator@_W@2@@std@@U?$pair@II@2@U?$less@V?$basic_string@_WU?$char_traits@_W@std@@V?$allocator@_W@2@@std@@@2@V?$allocator@U?$pair@$$CBV?$basic_string@_WU?$char_traits@_W@std@@V?$allocator@_W@2@@std@@U?$pair@II@2@@std@@@2@$0A@@std@@@std@@@2@_NPAU_Node@?$_Tree_nod@V?$_Tmap_traits@V?$basic_string@_WU?$char_traits@_W@std@@V?$allocator@_W@2@@std@@U?$pair@II@2@U?$less@V?$basic_string@_WU?$char_traits@_W@std@@V?$allocator@_W@2@@std@@@2@V?$allocator@U?$pair@$$CBV?$basic_string@_WU?$char_traits@_W@std@@V?$allocator@_W@2@@std@@U?$pair@II@2@@std@@@2@$0A@@std@@@2@1@Z 10050fa0 f i recorderinterface.obj
 0002:0004f410       ?_Color@?$_Tree_val@V?$_Tmap_traits@V?$basic_string@_WU?$char_traits@_W@std@@V?$allocator@_W@2@@std@@U?$pair@II@2@U?$less@V?$basic_string@_WU?$char_traits@_W@std@@V?$allocator@_W@2@@std@@@2@V?$allocator@U?$pair@$$CBV?$basic_string@_WU?$char_traits@_W@std@@V?$allocator@_W@2@@std@@U?$pair@II@2@@std@@@2@$0A@@std@@@std@@SAAADPAU_Node@?$_Tree_nod@V?$_Tmap_traits@V?$basic_string@_WU?$char_traits@_W@std@@V?$allocator@_W@2@@std@@U?$pair@II@2@U?$less@V?$basic_string@_WU?$char_traits@_W@std@@V?$allocator@_W@2@@std@@@2@V?$allocator@U?$pair@$$CBV?$basic_string@_WU?$char_traits@_W@std@@V?$allocator@_W@2@@std@@U?$pair@II@2@@std@@@2@$0A@@std@@@2@@Z 10051410 f i recorderinterface.obj
 0002:0004f440       ?_Lrotate@?$_Tree@V?$_Tmap_traits@V?$basic_string@_WU?$char_traits@_W@std@@V?$allocator@_W@2@@std@@U?$pair@II@2@U?$less@V?$basic_string@_WU?$char_traits@_W@std@@V?$allocator@_W@2@@std@@@2@V?$allocator@U?$pair@$$CBV?$basic_string@_WU?$char_traits@_W@std@@V?$allocator@_W@2@@std@@U?$pair@II@2@@std@@@2@$0A@@std@@@std@@IAEXPAU_Node@?$_Tree_nod@V?$_Tmap_traits@V?$basic_string@_WU?$char_traits@_W@std@@V?$allocator@_W@2@@std@@U?$pair@II@2@U?$less@V?$basic_string@_WU?$char_traits@_W@std@@V?$allocator@_W@2@@std@@@2@V?$allocator@U?$pair@$$CBV?$basic_string@_WU?$char_traits@_W@std@@V?$allocator@_W@2@@std@@U?$pair@II@2@@std@@@2@$0A@@std@@@2@@Z 10051440 f i recorderinterface.obj
 0002:0004f5a0       ?_Rmost@?$_Tree@V?$_Tmap_traits@V?$basic_string@_WU?$char_traits@_W@std@@V?$allocator@_W@2@@std@@U?$pair@II@2@U?$less@V?$basic_string@_WU?$char_traits@_W@std@@V?$allocator@_W@2@@std@@@2@V?$allocator@U?$pair@$$CBV?$basic_string@_WU?$char_traits@_W@std@@V?$allocator@_W@2@@std@@U?$pair@II@2@@std@@@2@$0A@@std@@@std@@IBEAAPAU_Node@?$_Tree_nod@V?$_Tmap_traits@V?$basic_string@_WU?$char_traits@_W@std@@V?$allocator@_W@2@@std@@U?$pair@II@2@U?$less@V?$basic_string@_WU?$char_traits@_W@std@@V?$allocator@_W@2@@std@@@2@V?$allocator@U?$pair@$$CBV?$basic_string@_WU?$char_traits@_W@std@@V?$allocator@_W@2@@std@@U?$pair@II@2@@std@@@2@$0A@@std@@@2@XZ 100515a0 f i recorderinterface.obj
 0002:0004f5f0       ?_Rrotate@?$_Tree@V?$_Tmap_traits@V?$basic_string@_WU?$char_traits@_W@std@@V?$allocator@_W@2@@std@@U?$pair@II@2@U?$less@V?$basic_string@_WU?$char_traits@_W@std@@V?$allocator@_W@2@@std@@@2@V?$allocator@U?$pair@$$CBV?$basic_string@_WU?$char_traits@_W@std@@V?$allocator@_W@2@@std@@U?$pair@II@2@@std@@@2@$0A@@std@@@std@@IAEXPAU_Node@?$_Tree_nod@V?$_Tmap_traits@V?$basic_string@_WU?$char_traits@_W@std@@V?$allocator@_W@2@@std@@U?$pair@II@2@U?$less@V?$basic_string@_WU?$char_traits@_W@std@@V?$allocator@_W@2@@std@@@2@V?$allocator@U?$pair@$$CBV?$basic_string@_WU?$char_traits@_W@std@@V?$allocator@_W@2@@std@@U?$pair@II@2@@std@@@2@$0A@@std@@@2@@Z 100515f0 f i recorderinterface.obj
 0002:0004f750       ??F?$_Tree_iterator@V?$_Tree_val@V?$_Tmap_traits@V?$basic_string@_WU?$char_traits@_W@std@@V?$allocator@_W@2@@std@@U?$pair@II@2@U?$less@V?$basic_string@_WU?$char_traits@_W@std@@V?$allocator@_W@2@@std@@@2@V?$allocator@U?$pair@$$CBV?$basic_string@_WU?$char_traits@_W@std@@V?$allocator@_W@2@@std@@U?$pair@II@2@@std@@@2@$0A@@std@@@std@@@std@@QAEAAV01@XZ 10051750 f i recorderinterface.obj
 0002:0004f7a0       ??0?$_Pair_base@V?$basic_string@_WU?$char_traits@_W@std@@V?$allocator@_W@2@@std@@U?$pair@II@2@@std@@QAE@$$QAV?$basic_string@_WU?$char_traits@_W@std@@V?$allocator@_W@2@@1@$$QAU?$pair@II@1@@Z 100517a0 f i recorderinterface.obj
 0002:0004f850       ??0?$pair@V?$_Tree_iterator@V?$_Tree_val@V?$_Tmap_traits@V?$basic_string@_WU?$char_traits@_W@std@@V?$allocator@_W@2@@std@@U?$pair@II@2@U?$less@V?$basic_string@_WU?$char_traits@_W@std@@V?$allocator@_W@2@@std@@@2@V?$allocator@U?$pair@$$CBV?$basic_string@_WU?$char_traits@_W@std@@V?$allocator@_W@2@@std@@U?$pair@II@2@@std@@@2@$0A@@std@@@std@@@std@@_N@std@@QAE@$$QAV?$_Tree_iterator@V?$_Tree_val@V?$_Tmap_traits@V?$basic_string@_WU?$char_traits@_W@std@@V?$allocator@_W@2@@std@@U?$pair@II@2@U?$less@V?$basic_string@_WU?$char_traits@_W@std@@V?$allocator@_W@2@@std@@@2@V?$allocator@U?$pair@$$CBV?$basic_string@_WU?$char_traits@_W@std@@V?$allocator@_W@2@@std@@U?$pair@II@2@@std@@@2@$0A@@std@@@std@@@1@$$QA_N@Z 10051850 f i recorderinterface.obj
 0002:0004f8b0       ?max_size@?$_Tree@V?$_Tmap_traits@V?$basic_string@_WU?$char_traits@_W@std@@V?$allocator@_W@2@@std@@U?$pair@II@2@U?$less@V?$basic_string@_WU?$char_traits@_W@std@@V?$allocator@_W@2@@std@@@2@V?$allocator@U?$pair@$$CBV?$basic_string@_WU?$char_traits@_W@std@@V?$allocator@_W@2@@std@@U?$pair@II@2@@std@@@2@$0A@@std@@@std@@QBEIXZ 100518b0 f i recorderinterface.obj
 0002:0004f900       ??F?$_Tree_const_iterator@V?$_Tree_val@V?$_Tmap_traits@V?$basic_string@_WU?$char_traits@_W@std@@V?$allocator@_W@2@@std@@U?$pair@II@2@U?$less@V?$basic_string@_WU?$char_traits@_W@std@@V?$allocator@_W@2@@std@@@2@V?$allocator@U?$pair@$$CBV?$basic_string@_WU?$char_traits@_W@std@@V?$allocator@_W@2@@std@@U?$pair@II@2@@std@@@2@$0A@@std@@@std@@@std@@QAEAAV01@XZ 10051900 f i recorderinterface.obj
 0002:0004f950       ??0?$_Pair_base@V?$_Tree_iterator@V?$_Tree_val@V?$_Tmap_traits@V?$basic_string@_WU?$char_traits@_W@std@@V?$allocator@_W@2@@std@@U?$pair@II@2@U?$less@V?$basic_string@_WU?$char_traits@_W@std@@V?$allocator@_W@2@@std@@@2@V?$allocator@U?$pair@$$CBV?$basic_string@_WU?$char_traits@_W@std@@V?$allocator@_W@2@@std@@U?$pair@II@2@@std@@@2@$0A@@std@@@std@@@std@@_N@std@@QAE@$$QAV?$_Tree_iterator@V?$_Tree_val@V?$_Tmap_traits@V?$basic_string@_WU?$char_traits@_W@std@@V?$allocator@_W@2@@std@@U?$pair@II@2@U?$less@V?$basic_string@_WU?$char_traits@_W@std@@V?$allocator@_W@2@@std@@@2@V?$allocator@U?$pair@$$CBV?$basic_string@_WU?$char_traits@_W@std@@V?$allocator@_W@2@@std@@U?$pair@II@2@@std@@@2@$0A@@std@@@std@@@1@$$QA_N@Z 10051950 f i recorderinterface.obj
 0002:0004f9c0       ?max_size@?$allocator@U?$pair@$$CBV?$basic_string@_WU?$char_traits@_W@std@@V?$allocator@_W@2@@std@@U?$pair@II@2@@std@@@std@@QBEIXZ 100519c0 f i recorderinterface.obj
 0002:0004fa20       ??F?$_Tree_unchecked_const_iterator@V?$_Tree_val@V?$_Tmap_traits@V?$basic_string@_WU?$char_traits@_W@std@@V?$allocator@_W@2@@std@@U?$pair@II@2@U?$less@V?$basic_string@_WU?$char_traits@_W@std@@V?$allocator@_W@2@@std@@@2@V?$allocator@U?$pair@$$CBV?$basic_string@_WU?$char_traits@_W@std@@V?$allocator@_W@2@@std@@U?$pair@II@2@@std@@@2@$0A@@std@@@std@@U_Iterator_base0@2@@std@@QAEAAV01@XZ 10051a20 f i recorderinterface.obj
 0002:0004fb30       ?_Max@?$_Tree_val@V?$_Tmap_traits@V?$basic_string@_WU?$char_traits@_W@std@@V?$allocator@_W@2@@std@@U?$pair@II@2@U?$less@V?$basic_string@_WU?$char_traits@_W@std@@V?$allocator@_W@2@@std@@@2@V?$allocator@U?$pair@$$CBV?$basic_string@_WU?$char_traits@_W@std@@V?$allocator@_W@2@@std@@U?$pair@II@2@@std@@@2@$0A@@std@@@std@@SAPAU_Node@?$_Tree_nod@V?$_Tmap_traits@V?$basic_string@_WU?$char_traits@_W@std@@V?$allocator@_W@2@@std@@U?$pair@II@2@U?$less@V?$basic_string@_WU?$char_traits@_W@std@@V?$allocator@_W@2@@std@@@2@V?$allocator@U?$pair@$$CBV?$basic_string@_WU?$char_traits@_W@std@@V?$allocator@_W@2@@std@@U?$pair@II@2@@std@@@2@$0A@@std@@@2@PAU342@@Z 10051b30 f i recorderinterface.obj
 0002:0004fba0       ??$forward@AAI@std@@YAAAIAAI@Z 10051ba0 f i recorderinterface.obj
 0002:0004fbd0       ??$?0AAIAAI@?$pair@II@std@@QAE@AAI0@Z 10051bd0 f i recorderinterface.obj
 0002:0004fc30       ??$?0II@?$pair@II@std@@QAE@$$QAU01@@Z 10051c30 f i recorderinterface.obj
 0002:0004fca0       ??$forward@U?$pair@II@std@@@std@@YA$$QAU?$pair@II@0@AAU10@@Z 10051ca0 f i recorderinterface.obj
 0002:0004fcd0       ??$forward@U?$pair@V?$basic_string@_WU?$char_traits@_W@std@@V?$allocator@_W@2@@std@@U?$pair@II@2@@std@@@std@@YA$$QAU?$pair@V?$basic_string@_WU?$char_traits@_W@std@@V?$allocator@_W@2@@std@@U?$pair@II@2@@0@AAU10@@Z 10051cd0 f i recorderinterface.obj
 0002:0004fd00       ??$_Buynode@U?$pair@V?$basic_string@_WU?$char_traits@_W@std@@V?$allocator@_W@2@@std@@U?$pair@II@2@@std@@@?$_Tree_val@V?$_Tmap_traits@V?$basic_string@_WU?$char_traits@_W@std@@V?$allocator@_W@2@@std@@U?$pair@II@2@U?$less@V?$basic_string@_WU?$char_traits@_W@std@@V?$allocator@_W@2@@std@@@2@V?$allocator@U?$pair@$$CBV?$basic_string@_WU?$char_traits@_W@std@@V?$allocator@_W@2@@std@@U?$pair@II@2@@std@@@2@$0A@@std@@@std@@QAEPAU_Node@?$_Tree_nod@V?$_Tmap_traits@V?$basic_string@_WU?$char_traits@_W@std@@V?$allocator@_W@2@@std@@U?$pair@II@2@U?$less@V?$basic_string@_WU?$char_traits@_W@std@@V?$allocator@_W@2@@std@@@2@V?$allocator@U?$pair@$$CBV?$basic_string@_WU?$char_traits@_W@std@@V?$allocator@_W@2@@std@@U?$pair@II@2@@std@@@2@$0A@@std@@@1@$$QAU?$pair@V?$basic_string@_WU?$char_traits@_W@std@@V?$allocator@_W@2@@std@@U?$pair@II@2@@1@@Z 10051d00 f i recorderinterface.obj
 0002:0004fe10       ??$?0AAV?$_Tree_iterator@V?$_Tree_val@V?$_Tmap_traits@V?$basic_string@_WU?$char_traits@_W@std@@V?$allocator@_W@2@@std@@U?$pair@II@2@U?$less@V?$basic_string@_WU?$char_traits@_W@std@@V?$allocator@_W@2@@std@@@2@V?$allocator@U?$pair@$$CBV?$basic_string@_WU?$char_traits@_W@std@@V?$allocator@_W@2@@std@@U?$pair@II@2@@std@@@2@$0A@@std@@@std@@@std@@_N@?$pair@V?$_Tree_iterator@V?$_Tree_val@V?$_Tmap_traits@V?$basic_string@_WU?$char_traits@_W@std@@V?$allocator@_W@2@@std@@U?$pair@II@2@U?$less@V?$basic_string@_WU?$char_traits@_W@std@@V?$allocator@_W@2@@std@@@2@V?$allocator@U?$pair@$$CBV?$basic_string@_WU?$char_traits@_W@std@@V?$allocator@_W@2@@std@@U?$pair@II@2@@std@@@2@$0A@@std@@@std@@@std@@_N@std@@QAE@AAV?$_Tree_iterator@V?$_Tree_val@V?$_Tmap_traits@V?$basic_string@_WU?$char_traits@_W@std@@V?$allocator@_W@2@@std@@U?$pair@II@2@U?$less@V?$basic_string@_WU?$char_traits@_W@std@@V?$allocator@_W@2@@std@@@2@V?$allocator@U?$pair@$$CBV?$basic_string@_WU?$char_traits@_W@std@@V?$allocator@_W@2@@std@@U?$pair@II@2@@std@@@2@$0A@@std@@@std@@@1@$$QA_N@Z 10051e10 f i recorderinterface.obj
 0002:0004fe70       ??$_Destroy@U?$pair@$$CBV?$basic_string@_WU?$char_traits@_W@std@@V?$allocator@_W@2@@std@@U?$pair@II@2@@std@@@std@@YAXPAU?$pair@$$CBV?$basic_string@_WU?$char_traits@_W@std@@V?$allocator@_W@2@@std@@U?$pair@II@2@@0@@Z 10051e70 f i recorderinterface.obj
 0002:0004feb0       ??$move@AAV?$basic_string@_WU?$char_traits@_W@std@@V?$allocator@_W@2@@std@@@std@@YA$$QAV?$basic_string@_WU?$char_traits@_W@std@@V?$allocator@_W@2@@0@AAV10@@Z 10051eb0 f i recorderinterface.obj
 0002:0004fee0       ??$move@AAU?$pair@II@std@@@std@@YA$$QAU?$pair@II@0@AAU10@@Z 10051ee0 f i recorderinterface.obj
 0002:0004ff10       ??$move@AAV?$_Tree_iterator@V?$_Tree_val@V?$_Tmap_traits@V?$basic_string@_WU?$char_traits@_W@std@@V?$allocator@_W@2@@std@@U?$pair@II@2@U?$less@V?$basic_string@_WU?$char_traits@_W@std@@V?$allocator@_W@2@@std@@@2@V?$allocator@U?$pair@$$CBV?$basic_string@_WU?$char_traits@_W@std@@V?$allocator@_W@2@@std@@U?$pair@II@2@@std@@@2@$0A@@std@@@std@@@std@@@std@@YA$$QAV?$_Tree_iterator@V?$_Tree_val@V?$_Tmap_traits@V?$basic_string@_WU?$char_traits@_W@std@@V?$allocator@_W@2@@std@@U?$pair@II@2@U?$less@V?$basic_string@_WU?$char_traits@_W@std@@V?$allocator@_W@2@@std@@@2@V?$allocator@U?$pair@$$CBV?$basic_string@_WU?$char_traits@_W@std@@V?$allocator@_W@2@@std@@U?$pair@II@2@@std@@@2@$0A@@std@@@std@@@0@AAV10@@Z 10051f10 f i recorderinterface.obj
 0002:0004ff40       ??_G?$pair@$$CBV?$basic_string@_WU?$char_traits@_W@std@@V?$allocator@_W@2@@std@@U?$pair@II@2@@std@@QAEPAXI@Z 10051f40 f i recorderinterface.obj
 0002:0004ffa0       ??1?$pair@$$CBV?$basic_string@_WU?$char_traits@_W@std@@V?$allocator@_W@2@@std@@U?$pair@II@2@@std@@QAE@XZ 10051fa0 f i recorderinterface.obj
 0002:0004ffe0       ??1?$_Pair_base@$$CBV?$basic_string@_WU?$char_traits@_W@std@@V?$allocator@_W@2@@std@@U?$pair@II@2@@std@@QAE@XZ 10051fe0 f i recorderinterface.obj
 0002:00050020       ?_Buynode@?$_Tree_val@V?$_Tmap_traits@V?$basic_string@_WU?$char_traits@_W@std@@V?$allocator@_W@2@@std@@U?$pair@II@2@U?$less@V?$basic_string@_WU?$char_traits@_W@std@@V?$allocator@_W@2@@std@@@2@V?$allocator@U?$pair@$$CBV?$basic_string@_WU?$char_traits@_W@std@@V?$allocator@_W@2@@std@@U?$pair@II@2@@std@@@2@$0A@@std@@@std@@QAEPAU_Node@?$_Tree_nod@V?$_Tmap_traits@V?$basic_string@_WU?$char_traits@_W@std@@V?$allocator@_W@2@@std@@U?$pair@II@2@U?$less@V?$basic_string@_WU?$char_traits@_W@std@@V?$allocator@_W@2@@std@@@2@V?$allocator@U?$pair@$$CBV?$basic_string@_WU?$char_traits@_W@std@@V?$allocator@_W@2@@std@@U?$pair@II@2@@std@@@2@$0A@@std@@@2@XZ 10052020 f i recorderinterface.obj
 0002:000500d0       ?allocate@?$allocator@U_Node@?$_Tree_nod@V?$_Tmap_traits@V?$basic_string@_WU?$char_traits@_W@std@@V?$allocator@_W@2@@std@@U?$pair@II@2@U?$less@V?$basic_string@_WU?$char_traits@_W@std@@V?$allocator@_W@2@@std@@@2@V?$allocator@U?$pair@$$CBV?$basic_string@_WU?$char_traits@_W@std@@V?$allocator@_W@2@@std@@U?$pair@II@2@@std@@@2@$0A@@std@@@std@@@std@@QAEPAU_Node@?$_Tree_nod@V?$_Tmap_traits@V?$basic_string@_WU?$char_traits@_W@std@@V?$allocator@_W@2@@std@@U?$pair@II@2@U?$less@V?$basic_string@_WU?$char_traits@_W@std@@V?$allocator@_W@2@@std@@@2@V?$allocator@U?$pair@$$CBV?$basic_string@_WU?$char_traits@_W@std@@V?$allocator@_W@2@@std@@U?$pair@II@2@@std@@@2@$0A@@std@@@2@I@Z 100520d0 f i recorderinterface.obj
 0002:00050120       ??$_Allocate@U_Node@?$_Tree_nod@V?$_Tmap_traits@V?$basic_string@_WU?$char_traits@_W@std@@V?$allocator@_W@2@@std@@U?$pair@II@2@U?$less@V?$basic_string@_WU?$char_traits@_W@std@@V?$allocator@_W@2@@std@@@2@V?$allocator@U?$pair@$$CBV?$basic_string@_WU?$char_traits@_W@std@@V?$allocator@_W@2@@std@@U?$pair@II@2@@std@@@2@$0A@@std@@@std@@@std@@YAPAU_Node@?$_Tree_nod@V?$_Tmap_traits@V?$basic_string@_WU?$char_traits@_W@std@@V?$allocator@_W@2@@std@@U?$pair@II@2@U?$less@V?$basic_string@_WU?$char_traits@_W@std@@V?$allocator@_W@2@@std@@@2@V?$allocator@U?$pair@$$CBV?$basic_string@_WU?$char_traits@_W@std@@V?$allocator@_W@2@@std@@U?$pair@II@2@@std@@@2@$0A@@std@@@0@IPAU120@@Z 10052120 f i recorderinterface.obj
 0002:000501b0       ??0?$_Pair_base@II@std@@QAE@$$QAI0@Z 100521b0 f i recorderinterface.obj
 0002:00050220       ??$?0AAIAAI@?$_Pair_base@II@std@@QAE@AAI0@Z 10052220 f i recorderinterface.obj
 0002:00050290       ??$forward@I@std@@YA$$QAIAAI@Z 10052290 f i recorderinterface.obj
 0002:000502c0       ??$_Cons_val@V?$allocator@U?$pair@$$CBV?$basic_string@_WU?$char_traits@_W@std@@V?$allocator@_W@2@@std@@U?$pair@II@2@@std@@@std@@U?$pair@$$CBV?$basic_string@_WU?$char_traits@_W@std@@V?$allocator@_W@2@@std@@U?$pair@II@2@@2@U?$pair@V?$basic_string@_WU?$char_traits@_W@std@@V?$allocator@_W@2@@std@@U?$pair@II@2@@2@@std@@YAXAAV?$allocator@U?$pair@$$CBV?$basic_string@_WU?$char_traits@_W@std@@V?$allocator@_W@2@@std@@U?$pair@II@2@@std@@@0@PAU?$pair@$$CBV?$basic_string@_WU?$char_traits@_W@std@@V?$allocator@_W@2@@std@@U?$pair@II@2@@0@$$QAU?$pair@V?$basic_string@_WU?$char_traits@_W@std@@V?$allocator@_W@2@@std@@U?$pair@II@2@@0@@Z 100522c0 f i recorderinterface.obj
 0002:00050310       ??$forward@AAV?$_Tree_iterator@V?$_Tree_val@V?$_Tmap_traits@V?$basic_string@_WU?$char_traits@_W@std@@V?$allocator@_W@2@@std@@U?$pair@II@2@U?$less@V?$basic_string@_WU?$char_traits@_W@std@@V?$allocator@_W@2@@std@@@2@V?$allocator@U?$pair@$$CBV?$basic_string@_WU?$char_traits@_W@std@@V?$allocator@_W@2@@std@@U?$pair@II@2@@std@@@2@$0A@@std@@@std@@@std@@@std@@YAAAV?$_Tree_iterator@V?$_Tree_val@V?$_Tmap_traits@V?$basic_string@_WU?$char_traits@_W@std@@V?$allocator@_W@2@@std@@U?$pair@II@2@U?$less@V?$basic_string@_WU?$char_traits@_W@std@@V?$allocator@_W@2@@std@@@2@V?$allocator@U?$pair@$$CBV?$basic_string@_WU?$char_traits@_W@std@@V?$allocator@_W@2@@std@@U?$pair@II@2@@std@@@2@$0A@@std@@@std@@@0@AAV10@@Z 10052310 f i recorderinterface.obj
 0002:00050340       ??$?0AAV?$_Tree_iterator@V?$_Tree_val@V?$_Tmap_traits@V?$basic_string@_WU?$char_traits@_W@std@@V?$allocator@_W@2@@std@@U?$pair@II@2@U?$less@V?$basic_string@_WU?$char_traits@_W@std@@V?$allocator@_W@2@@std@@@2@V?$allocator@U?$pair@$$CBV?$basic_string@_WU?$char_traits@_W@std@@V?$allocator@_W@2@@std@@U?$pair@II@2@@std@@@2@$0A@@std@@@std@@@std@@_N@?$_Pair_base@V?$_Tree_iterator@V?$_Tree_val@V?$_Tmap_traits@V?$basic_string@_WU?$char_traits@_W@std@@V?$allocator@_W@2@@std@@U?$pair@II@2@U?$less@V?$basic_string@_WU?$char_traits@_W@std@@V?$allocator@_W@2@@std@@@2@V?$allocator@U?$pair@$$CBV?$basic_string@_WU?$char_traits@_W@std@@V?$allocator@_W@2@@std@@U?$pair@II@2@@std@@@2@$0A@@std@@@std@@@std@@_N@std@@QAE@AAV?$_Tree_iterator@V?$_Tree_val@V?$_Tmap_traits@V?$basic_string@_WU?$char_traits@_W@std@@V?$allocator@_W@2@@std@@U?$pair@II@2@U?$less@V?$basic_string@_WU?$char_traits@_W@std@@V?$allocator@_W@2@@std@@@2@V?$allocator@U?$pair@$$CBV?$basic_string@_WU?$char_traits@_W@std@@V?$allocator@_W@2@@std@@U?$pair@II@2@@std@@@2@$0A@@std@@@std@@@1@$$QA_N@Z 10052340 f i recorderinterface.obj
 0002:000503b0       ??$move@AAI@std@@YA$$QAIAAI@Z 100523b0 f i recorderinterface.obj
 0002:000503e0       ??$construct@U?$pair@V?$basic_string@_WU?$char_traits@_W@std@@V?$allocator@_W@2@@std@@U?$pair@II@2@@std@@@?$allocator@U?$pair@$$CBV?$basic_string@_WU?$char_traits@_W@std@@V?$allocator@_W@2@@std@@U?$pair@II@2@@std@@@std@@QAEXPAU?$pair@$$CBV?$basic_string@_WU?$char_traits@_W@std@@V?$allocator@_W@2@@std@@U?$pair@II@2@@1@$$QAU?$pair@V?$basic_string@_WU?$char_traits@_W@std@@V?$allocator@_W@2@@std@@U?$pair@II@2@@1@@Z 100523e0 f i recorderinterface.obj
 0002:000504b0       ??$?0V?$basic_string@_WU?$char_traits@_W@std@@V?$allocator@_W@2@@std@@U?$pair@II@1@@?$pair@$$CBV?$basic_string@_WU?$char_traits@_W@std@@V?$allocator@_W@2@@std@@U?$pair@II@2@@std@@QAE@$$QAU?$pair@V?$basic_string@_WU?$char_traits@_W@std@@V?$allocator@_W@2@@std@@U?$pair@II@2@@1@@Z 100524b0 f i recorderinterface.obj
 0002:00050520       ??$?0V?$basic_string@_WU?$char_traits@_W@std@@V?$allocator@_W@2@@std@@U?$pair@II@1@@?$_Pair_base@$$CBV?$basic_string@_WU?$char_traits@_W@std@@V?$allocator@_W@2@@std@@U?$pair@II@2@@std@@QAE@$$QAV?$basic_string@_WU?$char_traits@_W@std@@V?$allocator@_W@2@@1@$$QAU?$pair@II@1@@Z 10052520 f i recorderinterface.obj
 0002:000505d0       ??0?$map@V?$basic_string@_WU?$char_traits@_W@std@@V?$allocator@_W@2@@std@@U?$pair@II@2@U?$less@V?$basic_string@_WU?$char_traits@_W@std@@V?$allocator@_W@2@@std@@@2@V?$allocator@U?$pair@$$CBV?$basic_string@_WU?$char_traits@_W@std@@V?$allocator@_W@2@@std@@U?$pair@II@2@@std@@@2@@std@@QAE@XZ 100525d0 f i recorderinterface.obj
 0002:00050630       ??0?$_Tree@V?$_Tmap_traits@V?$basic_string@_WU?$char_traits@_W@std@@V?$allocator@_W@2@@std@@U?$pair@II@2@U?$less@V?$basic_string@_WU?$char_traits@_W@std@@V?$allocator@_W@2@@std@@@2@V?$allocator@U?$pair@$$CBV?$basic_string@_WU?$char_traits@_W@std@@V?$allocator@_W@2@@std@@U?$pair@II@2@@std@@@2@$0A@@std@@@std@@QAE@ABU?$less@V?$basic_string@_WU?$char_traits@_W@std@@V?$allocator@_W@2@@std@@@1@ABV?$allocator@U?$pair@$$CBV?$basic_string@_WU?$char_traits@_W@std@@V?$allocator@_W@2@@std@@U?$pair@II@2@@std@@@1@@Z 10052630 f i recorderinterface.obj
 0002:00050690       ??0?$allocator@U?$pair@$$CBV?$basic_string@_WU?$char_traits@_W@std@@V?$allocator@_W@2@@std@@U?$pair@II@2@@std@@@std@@QAE@XZ 10052690 f i recorderinterface.obj
 0002:000506c0       ??0?$_Tree_val@V?$_Tmap_traits@V?$basic_string@_WU?$char_traits@_W@std@@V?$allocator@_W@2@@std@@U?$pair@II@2@U?$less@V?$basic_string@_WU?$char_traits@_W@std@@V?$allocator@_W@2@@std@@@2@V?$allocator@U?$pair@$$CBV?$basic_string@_WU?$char_traits@_W@std@@V?$allocator@_W@2@@std@@U?$pair@II@2@@std@@@2@$0A@@std@@@std@@QAE@ABU?$less@V?$basic_string@_WU?$char_traits@_W@std@@V?$allocator@_W@2@@std@@@1@V?$allocator@U?$pair@$$CBV?$basic_string@_WU?$char_traits@_W@std@@V?$allocator@_W@2@@std@@U?$pair@II@2@@std@@@1@@Z 100526c0 f i recorderinterface.obj
 0002:000507a0       ??0?$allocator@U?$pair@$$CBV?$basic_string@_WU?$char_traits@_W@std@@V?$allocator@_W@2@@std@@U?$pair@II@2@@std@@@std@@QAE@ABV01@@Z 100527a0 f i recorderinterface.obj
 0002:000507d0       ??0?$_Tree_nod@V?$_Tmap_traits@V?$basic_string@_WU?$char_traits@_W@std@@V?$allocator@_W@2@@std@@U?$pair@II@2@U?$less@V?$basic_string@_WU?$char_traits@_W@std@@V?$allocator@_W@2@@std@@@2@V?$allocator@U?$pair@$$CBV?$basic_string@_WU?$char_traits@_W@std@@V?$allocator@_W@2@@std@@U?$pair@II@2@@std@@@2@$0A@@std@@@std@@QAE@ABU?$less@V?$basic_string@_WU?$char_traits@_W@std@@V?$allocator@_W@2@@std@@@1@V?$allocator@U?$pair@$$CBV?$basic_string@_WU?$char_traits@_W@std@@V?$allocator@_W@2@@std@@U?$pair@II@2@@std@@@1@@Z 100527d0 f i recorderinterface.obj
 0002:00050840       ??0?$_Tmap_traits@V?$basic_string@_WU?$char_traits@_W@std@@V?$allocator@_W@2@@std@@U?$pair@II@2@U?$less@V?$basic_string@_WU?$char_traits@_W@std@@V?$allocator@_W@2@@std@@@2@V?$allocator@U?$pair@$$CBV?$basic_string@_WU?$char_traits@_W@std@@V?$allocator@_W@2@@std@@U?$pair@II@2@@std@@@2@$0A@@std@@QAE@U?$less@V?$basic_string@_WU?$char_traits@_W@std@@V?$allocator@_W@2@@std@@@1@@Z 10052840 f i recorderinterface.obj
 0002:00050870       ??$?0U?$pair@$$CBV?$basic_string@_WU?$char_traits@_W@std@@V?$allocator@_W@2@@std@@U?$pair@II@2@@std@@@?$allocator@U_Node@?$_Tree_nod@V?$_Tmap_traits@V?$basic_string@_WU?$char_traits@_W@std@@V?$allocator@_W@2@@std@@U?$pair@II@2@U?$less@V?$basic_string@_WU?$char_traits@_W@std@@V?$allocator@_W@2@@std@@@2@V?$allocator@U?$pair@$$CBV?$basic_string@_WU?$char_traits@_W@std@@V?$allocator@_W@2@@std@@U?$pair@II@2@@std@@@2@$0A@@std@@@std@@@std@@QAE@ABV?$allocator@U?$pair@$$CBV?$basic_string@_WU?$char_traits@_W@std@@V?$allocator@_W@2@@std@@U?$pair@II@2@@std@@@1@@Z 10052870 f i recorderinterface.obj
 0002:000508a0       ??1?$map@V?$basic_string@_WU?$char_traits@_W@std@@V?$allocator@_W@2@@std@@U?$pair@II@2@U?$less@V?$basic_string@_WU?$char_traits@_W@std@@V?$allocator@_W@2@@std@@@2@V?$allocator@U?$pair@$$CBV?$basic_string@_WU?$char_traits@_W@std@@V?$allocator@_W@2@@std@@U?$pair@II@2@@std@@@2@@std@@QAE@XZ 100528a0 f i recorderinterface.obj
 0002:000508e0       ??1?$_Tree@V?$_Tmap_traits@V?$basic_string@_WU?$char_traits@_W@std@@V?$allocator@_W@2@@std@@U?$pair@II@2@U?$less@V?$basic_string@_WU?$char_traits@_W@std@@V?$allocator@_W@2@@std@@@2@V?$allocator@U?$pair@$$CBV?$basic_string@_WU?$char_traits@_W@std@@V?$allocator@_W@2@@std@@U?$pair@II@2@@std@@@2@$0A@@std@@@std@@QAE@XZ 100528e0 f i recorderinterface.obj
 0002:00050960       ?_Tidy@?$_Tree@V?$_Tmap_traits@V?$basic_string@_WU?$char_traits@_W@std@@V?$allocator@_W@2@@std@@U?$pair@II@2@U?$less@V?$basic_string@_WU?$char_traits@_W@std@@V?$allocator@_W@2@@std@@@2@V?$allocator@U?$pair@$$CBV?$basic_string@_WU?$char_traits@_W@std@@V?$allocator@_W@2@@std@@U?$pair@II@2@@std@@@2@$0A@@std@@@std@@IAEXXZ 10052960 f i recorderinterface.obj
 0002:000509f0       ??1?$_Tree_val@V?$_Tmap_traits@V?$basic_string@_WU?$char_traits@_W@std@@V?$allocator@_W@2@@std@@U?$pair@II@2@U?$less@V?$basic_string@_WU?$char_traits@_W@std@@V?$allocator@_W@2@@std@@@2@V?$allocator@U?$pair@$$CBV?$basic_string@_WU?$char_traits@_W@std@@V?$allocator@_W@2@@std@@U?$pair@II@2@@std@@@2@$0A@@std@@@std@@QAE@XZ 100529f0 f i recorderinterface.obj
 0002:00050a40       ?erase@?$_Tree@V?$_Tmap_traits@V?$basic_string@_WU?$char_traits@_W@std@@V?$allocator@_W@2@@std@@U?$pair@II@2@U?$less@V?$basic_string@_WU?$char_traits@_W@std@@V?$allocator@_W@2@@std@@@2@V?$allocator@U?$pair@$$CBV?$basic_string@_WU?$char_traits@_W@std@@V?$allocator@_W@2@@std@@U?$pair@II@2@@std@@@2@$0A@@std@@@std@@QAE?AV?$_Tree_iterator@V?$_Tree_val@V?$_Tmap_traits@V?$basic_string@_WU?$char_traits@_W@std@@V?$allocator@_W@2@@std@@U?$pair@II@2@U?$less@V?$basic_string@_WU?$char_traits@_W@std@@V?$allocator@_W@2@@std@@@2@V?$allocator@U?$pair@$$CBV?$basic_string@_WU?$char_traits@_W@std@@V?$allocator@_W@2@@std@@U?$pair@II@2@@std@@@2@$0A@@std@@@std@@@2@V?$_Tree_const_iterator@V?$_Tree_val@V?$_Tmap_traits@V?$basic_string@_WU?$char_traits@_W@std@@V?$allocator@_W@2@@std@@U?$pair@II@2@U?$less@V?$basic_string@_WU?$char_traits@_W@std@@V?$allocator@_W@2@@std@@@2@V?$allocator@U?$pair@$$CBV?$basic_string@_WU?$char_traits@_W@std@@V?$allocator@_W@2@@std@@U?$pair@II@2@@std@@@2@$0A@@std@@@std@@@2@0@Z 10052a40 f i recorderinterface.obj
 0002:00050b20       ?erase@?$_Tree@V?$_Tmap_traits@V?$basic_string@_WU?$char_traits@_W@std@@V?$allocator@_W@2@@std@@U?$pair@II@2@U?$less@V?$basic_string@_WU?$char_traits@_W@std@@V?$allocator@_W@2@@std@@@2@V?$allocator@U?$pair@$$CBV?$basic_string@_WU?$char_traits@_W@std@@V?$allocator@_W@2@@std@@U?$pair@II@2@@std@@@2@$0A@@std@@@std@@QAE?AV?$_Tree_iterator@V?$_Tree_val@V?$_Tmap_traits@V?$basic_string@_WU?$char_traits@_W@std@@V?$allocator@_W@2@@std@@U?$pair@II@2@U?$less@V?$basic_string@_WU?$char_traits@_W@std@@V?$allocator@_W@2@@std@@@2@V?$allocator@U?$pair@$$CBV?$basic_string@_WU?$char_traits@_W@std@@V?$allocator@_W@2@@std@@U?$pair@II@2@@std@@@2@$0A@@std@@@std@@@2@V?$_Tree_const_iterator@V?$_Tree_val@V?$_Tmap_traits@V?$basic_string@_WU?$char_traits@_W@std@@V?$allocator@_W@2@@std@@U?$pair@II@2@U?$less@V?$basic_string@_WU?$char_traits@_W@std@@V?$allocator@_W@2@@std@@@2@V?$allocator@U?$pair@$$CBV?$basic_string@_WU?$char_traits@_W@std@@V?$allocator@_W@2@@std@@U?$pair@II@2@@std@@@2@$0A@@std@@@std@@@2@@Z 10052b20 f i recorderinterface.obj
 0002:000512f0       ?clear@?$_Tree@V?$_Tmap_traits@V?$basic_string@_WU?$char_traits@_W@std@@V?$allocator@_W@2@@std@@U?$pair@II@2@U?$less@V?$basic_string@_WU?$char_traits@_W@std@@V?$allocator@_W@2@@std@@@2@V?$allocator@U?$pair@$$CBV?$basic_string@_WU?$char_traits@_W@std@@V?$allocator@_W@2@@std@@U?$pair@II@2@@std@@@2@$0A@@std@@@std@@QAEXXZ 100532f0 f i recorderinterface.obj
 0002:00051380       ??E?$_Tree_const_iterator@V?$_Tree_val@V?$_Tmap_traits@V?$basic_string@_WU?$char_traits@_W@std@@V?$allocator@_W@2@@std@@U?$pair@II@2@U?$less@V?$basic_string@_WU?$char_traits@_W@std@@V?$allocator@_W@2@@std@@@2@V?$allocator@U?$pair@$$CBV?$basic_string@_WU?$char_traits@_W@std@@V?$allocator@_W@2@@std@@U?$pair@II@2@@std@@@2@$0A@@std@@@std@@@std@@QAE?AV01@H@Z 10053380 f i recorderinterface.obj
 0002:00051410       ?_Erase@?$_Tree@V?$_Tmap_traits@V?$basic_string@_WU?$char_traits@_W@std@@V?$allocator@_W@2@@std@@U?$pair@II@2@U?$less@V?$basic_string@_WU?$char_traits@_W@std@@V?$allocator@_W@2@@std@@@2@V?$allocator@U?$pair@$$CBV?$basic_string@_WU?$char_traits@_W@std@@V?$allocator@_W@2@@std@@U?$pair@II@2@@std@@@2@$0A@@std@@@std@@IAEXPAU_Node@?$_Tree_nod@V?$_Tmap_traits@V?$basic_string@_WU?$char_traits@_W@std@@V?$allocator@_W@2@@std@@U?$pair@II@2@U?$less@V?$basic_string@_WU?$char_traits@_W@std@@V?$allocator@_W@2@@std@@@2@V?$allocator@U?$pair@$$CBV?$basic_string@_WU?$char_traits@_W@std@@V?$allocator@_W@2@@std@@U?$pair@II@2@@std@@@2@$0A@@std@@@2@@Z 10053410 f i recorderinterface.obj
 0002:000514d0       ?_Min@?$_Tree_val@V?$_Tmap_traits@V?$basic_string@_WU?$char_traits@_W@std@@V?$allocator@_W@2@@std@@U?$pair@II@2@U?$less@V?$basic_string@_WU?$char_traits@_W@std@@V?$allocator@_W@2@@std@@@2@V?$allocator@U?$pair@$$CBV?$basic_string@_WU?$char_traits@_W@std@@V?$allocator@_W@2@@std@@U?$pair@II@2@@std@@@2@$0A@@std@@@std@@SAPAU_Node@?$_Tree_nod@V?$_Tmap_traits@V?$basic_string@_WU?$char_traits@_W@std@@V?$allocator@_W@2@@std@@U?$pair@II@2@U?$less@V?$basic_string@_WU?$char_traits@_W@std@@V?$allocator@_W@2@@std@@@2@V?$allocator@U?$pair@$$CBV?$basic_string@_WU?$char_traits@_W@std@@V?$allocator@_W@2@@std@@U?$pair@II@2@@std@@@2@$0A@@std@@@2@PAU342@@Z 100534d0 f i recorderinterface.obj
 0002:00051540       ??E?$_Tree_const_iterator@V?$_Tree_val@V?$_Tmap_traits@V?$basic_string@_WU?$char_traits@_W@std@@V?$allocator@_W@2@@std@@U?$pair@II@2@U?$less@V?$basic_string@_WU?$char_traits@_W@std@@V?$allocator@_W@2@@std@@@2@V?$allocator@U?$pair@$$CBV?$basic_string@_WU?$char_traits@_W@std@@V?$allocator@_W@2@@std@@U?$pair@II@2@@std@@@2@$0A@@std@@@std@@@std@@QAEAAV01@XZ 10053540 f i recorderinterface.obj
 0002:00051590       ??E?$_Tree_unchecked_const_iterator@V?$_Tree_val@V?$_Tmap_traits@V?$basic_string@_WU?$char_traits@_W@std@@V?$allocator@_W@2@@std@@U?$pair@II@2@U?$less@V?$basic_string@_WU?$char_traits@_W@std@@V?$allocator@_W@2@@std@@@2@V?$allocator@U?$pair@$$CBV?$basic_string@_WU?$char_traits@_W@std@@V?$allocator@_W@2@@std@@U?$pair@II@2@@std@@@2@$0A@@std@@@std@@U_Iterator_base0@2@@std@@QAEAAV01@XZ 10053590 f i recorderinterface.obj
 0002:00051680       ??0CaptureInputPin@@QAE@PA_WPAVCaptureSinkFilter@@PAVCCritSec@@PAJPB_W@Z 10053680 f   capsinkfilter.obj
 0002:00051770       ?QueryInternalConnections@CBasePin@@UAGJPAPAUIPin@@PAK@Z 10053770 f i capsinkfilter.obj
 0002:000517a0       ?QueryInterface@CBaseInputPin@@UAGJABU_GUID@@PAPAX@Z 100537a0 f i capsinkfilter.obj
 0002:00051810       ?GetOwner@CUnknown@@QBEPAUIUnknown@@XZ 10053810 f i capsinkfilter.obj
 0002:00051840       ?AddRef@CBaseInputPin@@UAGKXZ 10053840 f i capsinkfilter.obj
 0002:000518b0       ?Release@CBaseInputPin@@UAGKXZ 100538b0 f i capsinkfilter.obj
 0002:00051920       ??0VideoCaptureCapability@@QAE@XZ 10053920 f i capsinkfilter.obj
 0002:00051990       ??_GCaptureInputPin@@UAEPAXI@Z 10053990 f i capsinkfilter.obj
 0002:00051990       ??_ECaptureInputPin@@UAEPAXI@Z 10053990 f i capsinkfilter.obj
 0002:000519f0       ??1CaptureInputPin@@UAE@XZ 100539f0 f   capsinkfilter.obj
 0002:00051a60       ?GetMediaType@CaptureInputPin@@UAEJHPAVCMediaType@@@Z 10053a60 f   capsinkfilter.obj
 0002:00051df0       ?CheckMediaType@CaptureInputPin@@UAEJPBVCMediaType@@@Z 10053df0 f   capsinkfilter.obj
 0002:000522c0       ?abs@@YAJJ@Z               100542c0 f i capsinkfilter.obj
 0002:00052300       ?Type@CMediaType@@QBEPBU_GUID@@XZ 10054300 f i capsinkfilter.obj
 0002:00052330       ?Subtype@CMediaType@@QBEPBU_GUID@@XZ 10054330 f i capsinkfilter.obj
 0002:00052360       ?Format@CMediaType@@QBEPAEXZ 10054360 f i capsinkfilter.obj
 0002:00052390       ?FormatType@CMediaType@@QBEPBU_GUID@@XZ 10054390 f i capsinkfilter.obj
 0002:000523c0       ?Receive@CaptureInputPin@@UAGJPAUIMediaSample@@@Z 100543c0 f   capsinkfilter.obj
 0002:000525b0       ?LockReceive@CaptureSinkFilter@@QAEXXZ 100545b0 f i capsinkfilter.obj
 0002:00052600       ?Lock@CCritSec@@QAEXXZ     10054600 f i capsinkfilter.obj
 0002:00052650       ?UnlockReceive@CaptureSinkFilter@@QAEXXZ 10054650 f i capsinkfilter.obj
 0002:000526a0       ?Unlock@CCritSec@@QAEXXZ   100546a0 f i capsinkfilter.obj
 0002:000526f0       ?SetMatchingMediaType@CaptureInputPin@@QAEJABUVideoCaptureCapability@@@Z 100546f0 f   capsinkfilter.obj
 0002:00052770       ??0CaptureSinkFilter@@QAE@PA_WPAUIUnknown@@PAJPAVCVidCapCom@@@Z 10054770 f   capsinkfilter.obj
 0002:00052950       ??0CCritSec@@QAE@XZ        10054950 f i capsinkfilter.obj
 0002:000529a0       ??1CCritSec@@QAE@XZ        100549a0 f i capsinkfilter.obj
 0002:000529f0       ?GetSetupData@CBaseFilter@@UAEPAU_AMOVIESETUP_FILTER@@XZ 100549f0 f i capsinkfilter.obj
 0002:00052a20       ?NonDelegatingRelease@CaptureSinkFilter@@UAGKXZ 10054a20 f i capsinkfilter.obj
 0002:00052a50       ?QueryInterface@CaptureSinkFilter@@UAGJABU_GUID@@PAPAX@Z 10054a50 f i capsinkfilter.obj
 0002:00052ac0       ?AddRef@CaptureSinkFilter@@UAGKXZ 10054ac0 f i capsinkfilter.obj
 0002:00052b30       ?Release@CaptureSinkFilter@@UAGKXZ 10054b30 f i capsinkfilter.obj
 0002:00052ba0       ??_GCaptureSinkFilter@@UAEPAXI@Z 10054ba0 f i capsinkfilter.obj
 0002:00052ba0       ??_ECaptureSinkFilter@@UAEPAXI@Z 10054ba0 f i capsinkfilter.obj
 0002:00052c00       ??1CaptureSinkFilter@@UAE@XZ 10054c00 f   capsinkfilter.obj
 0002:00052d30       ?GetPinCount@CaptureSinkFilter@@UAEHXZ 10054d30 f   capsinkfilter.obj
 0002:00052d60       ?GetPin@CaptureSinkFilter@@UAEPAVCBasePin@@H@Z 10054d60 f   capsinkfilter.obj
 0002:00052dd0       ?LockFilter@CaptureSinkFilter@@QAEXXZ 10054dd0 f i capsinkfilter.obj
 0002:00052e20       ?UnlockFilter@CaptureSinkFilter@@QAEXXZ 10054e20 f i capsinkfilter.obj
 0002:00052e70       ?Pause@CaptureSinkFilter@@UAGJXZ 10054e70 f   capsinkfilter.obj
 0002:00052f40       ?IsConnected@CBasePin@@QAEHXZ 10054f40 f i capsinkfilter.obj
 0002:00052f80       ?Stop@CaptureSinkFilter@@UAGJXZ 10054f80 f   capsinkfilter.obj
 0002:00053020       ?ProcessCapturedFrame@CaptureSinkFilter@@QAEXPAEIABUVideoCaptureCapability@@@Z 10055020 f   capsinkfilter.obj
 0002:00053200       ?SetMatchingMediaType@CaptureSinkFilter@@QAGJABUVideoCaptureCapability@@@Z 10055200 f   capsinkfilter.obj
 0002:00053290       ?GetClassID@CaptureSinkFilter@@UAGJPAU_GUID@@@Z 10055290 f   capsinkfilter.obj
 0002:000532e0       ?QueryInterface@CBaseInputPin@@WIM@AGJABU_GUID@@PAPAX@Z 100552e0 f i capsinkfilter.obj
 0002:000532f0       ?Release@CBaseInputPin@@W3AGKXZ 100552f0 f i capsinkfilter.obj
 0002:00053300       ?QueryInterface@CaptureSinkFilter@@W3AGJABU_GUID@@PAPAX@Z 10055300 f i capsinkfilter.obj
 0002:00053310       ?AddRef@CBaseInputPin@@W3AGKXZ 10055310 f i capsinkfilter.obj
 0002:00053320       ?Release@CBaseInputPin@@WIM@AGKXZ 10055320 f i capsinkfilter.obj
 0002:00053330       ?Release@CaptureSinkFilter@@W3AGKXZ 10055330 f i capsinkfilter.obj
 0002:00053340       ?QueryInterface@CBaseInputPin@@W3AGJABU_GUID@@PAPAX@Z 10055340 f i capsinkfilter.obj
 0002:00053350       ?AddRef@CBaseInputPin@@WIM@AGKXZ 10055350 f i capsinkfilter.obj
 0002:00053360       ?AddRef@CaptureSinkFilter@@W3AGKXZ 10055360 f i capsinkfilter.obj
 0002:00053370       ?GetSingletonPtr@CDeviceNotifyMan@@SAPAV1@XZ 10055370 f   devicenotify.obj
 0002:000533a0       ??0CDeviceNotifyMan@@QAE@XZ 100553a0 f   devicenotify.obj
 0002:00053490       ??_GCDeviceNotifyMan@@UAEPAXI@Z 10055490 f i devicenotify.obj
 0002:00053490       ??_ECDeviceNotifyMan@@UAEPAXI@Z 10055490 f i devicenotify.obj
 0002:000534f0       ??1?$map@V?$basic_string@_WU?$char_traits@_W@std@@V?$allocator@_W@2@@std@@V12@U?$less@V?$basic_string@_WU?$char_traits@_W@std@@V?$allocator@_W@2@@std@@@2@V?$allocator@U?$pair@$$CBV?$basic_string@_WU?$char_traits@_W@std@@V?$allocator@_W@2@@std@@V12@@std@@@2@@std@@QAE@XZ 100554f0 f i devicenotify.obj
 0002:00053530       ??1CDeviceNotifyMan@@UAE@XZ 10055530 f   devicenotify.obj
 0002:00053620       ?Wchar_tToString@@YAXAAV?$basic_string@DU?$char_traits@D@std@@V?$allocator@D@2@@std@@PA_W@Z 10055620 f   devicenotify.obj
 0002:00053760       ?GetIsSurfacePro3@@YAHXZ   10055760 f   devicenotify.obj
 0002:000538e0       ?RealTaskProcess@CDeviceNotifyMan@@UAEXI@Z 100558e0 f   devicenotify.obj
 0002:00054890       ??1?$pair@V?$basic_string@_WU?$char_traits@_W@std@@V?$allocator@_W@2@@std@@V12@@std@@QAE@XZ 10056890 f i devicenotify.obj
 0002:000548d0       ??_G?$vector@UTDevNameInfo@@V?$allocator@UTDevNameInfo@@@std@@@std@@QAEPAXI@Z 100568d0 f i devicenotify.obj
 0002:00054930       ??_G?$vector@UtagVidCapNameInfo@@V?$allocator@UtagVidCapNameInfo@@@std@@@std@@QAEPAXI@Z 10056930 f i devicenotify.obj
 0002:00054990       ??_G?$vector@UtagAudioDevNameInfo@@V?$allocator@UtagAudioDevNameInfo@@@std@@@std@@QAEPAXI@Z 10056990 f i devicenotify.obj
 0002:000549f0       ??1?$_Pair_base@V?$basic_string@_WU?$char_traits@_W@std@@V?$allocator@_W@2@@std@@V12@@std@@QAE@XZ 100569f0 f i devicenotify.obj
 0002:00054a80       ?Init@CDeviceNotifyMan@@QAEXXZ 10056a80 f   devicenotify.obj
 0002:00054bb0       ?SetAudioCaptureDeviceChangeCB@CDeviceNotifyMan@@QAEGP6AXIABV?$vector@UTDevNameInfo@@V?$allocator@UTDevNameInfo@@@std@@@std@@0@ZI@Z 10056bb0 f   devicenotify.obj
 0002:00054bf0       ?SetVideoCaptureDeviceChangeCB@CDeviceNotifyMan@@QAEGP6AXIABV?$vector@UTDevNameInfo@@V?$allocator@UTDevNameInfo@@@std@@@std@@0@ZI@Z 10056bf0 f   devicenotify.obj
 0002:00054c30       ?find@?$basic_string@DU?$char_traits@D@std@@V?$allocator@D@2@@std@@QBEIPBDI@Z 10056c30 f i devicenotify.obj
 0002:00054c90       ??0?$Singleton@VCDeviceNotifyMan@@@@QAE@XZ 10056c90 f i devicenotify.obj
 0002:00054cf0       ??1?$Singleton@VCDeviceNotifyMan@@@@QAE@XZ 10056cf0 f i devicenotify.obj
 0002:00054d30       ??0?$map@V?$basic_string@_WU?$char_traits@_W@std@@V?$allocator@_W@2@@std@@V12@U?$less@V?$basic_string@_WU?$char_traits@_W@std@@V?$allocator@_W@2@@std@@@2@V?$allocator@U?$pair@$$CBV?$basic_string@_WU?$char_traits@_W@std@@V?$allocator@_W@2@@std@@V12@@std@@@2@@std@@QAE@XZ 10056d30 f i devicenotify.obj
 0002:00054d90       ??1?$_Tree@V?$_Tmap_traits@V?$basic_string@_WU?$char_traits@_W@std@@V?$allocator@_W@2@@std@@V12@U?$less@V?$basic_string@_WU?$char_traits@_W@std@@V?$allocator@_W@2@@std@@@2@V?$allocator@U?$pair@$$CBV?$basic_string@_WU?$char_traits@_W@std@@V?$allocator@_W@2@@std@@V12@@std@@@2@$0A@@std@@@std@@QAE@XZ 10056d90 f i devicenotify.obj
 0002:00054e10       ?begin@?$_Tree@V?$_Tmap_traits@V?$basic_string@_WU?$char_traits@_W@std@@V?$allocator@_W@2@@std@@V12@U?$less@V?$basic_string@_WU?$char_traits@_W@std@@V?$allocator@_W@2@@std@@@2@V?$allocator@U?$pair@$$CBV?$basic_string@_WU?$char_traits@_W@std@@V?$allocator@_W@2@@std@@V12@@std@@@2@$0A@@std@@@std@@QAE?AV?$_Tree_iterator@V?$_Tree_val@V?$_Tmap_traits@V?$basic_string@_WU?$char_traits@_W@std@@V?$allocator@_W@2@@std@@V12@U?$less@V?$basic_string@_WU?$char_traits@_W@std@@V?$allocator@_W@2@@std@@@2@V?$allocator@U?$pair@$$CBV?$basic_string@_WU?$char_traits@_W@std@@V?$allocator@_W@2@@std@@V12@@std@@@2@$0A@@std@@@std@@@2@XZ 10056e10 f i devicenotify.obj
 0002:00054e70       ?end@?$_Tree@V?$_Tmap_traits@V?$basic_string@_WU?$char_traits@_W@std@@V?$allocator@_W@2@@std@@V12@U?$less@V?$basic_string@_WU?$char_traits@_W@std@@V?$allocator@_W@2@@std@@@2@V?$allocator@U?$pair@$$CBV?$basic_string@_WU?$char_traits@_W@std@@V?$allocator@_W@2@@std@@V12@@std@@@2@$0A@@std@@@std@@QAE?AV?$_Tree_iterator@V?$_Tree_val@V?$_Tmap_traits@V?$basic_string@_WU?$char_traits@_W@std@@V?$allocator@_W@2@@std@@V12@U?$less@V?$basic_string@_WU?$char_traits@_W@std@@V?$allocator@_W@2@@std@@@2@V?$allocator@U?$pair@$$CBV?$basic_string@_WU?$char_traits@_W@std@@V?$allocator@_W@2@@std@@V12@@std@@@2@$0A@@std@@@std@@@2@XZ 10056e70 f i devicenotify.obj
 0002:00054ec0       ?erase@?$_Tree@V?$_Tmap_traits@V?$basic_string@_WU?$char_traits@_W@std@@V?$allocator@_W@2@@std@@V12@U?$less@V?$basic_string@_WU?$char_traits@_W@std@@V?$allocator@_W@2@@std@@@2@V?$allocator@U?$pair@$$CBV?$basic_string@_WU?$char_traits@_W@std@@V?$allocator@_W@2@@std@@V12@@std@@@2@$0A@@std@@@std@@QAE?AV?$_Tree_iterator@V?$_Tree_val@V?$_Tmap_traits@V?$basic_string@_WU?$char_traits@_W@std@@V?$allocator@_W@2@@std@@V12@U?$less@V?$basic_string@_WU?$char_traits@_W@std@@V?$allocator@_W@2@@std@@@2@V?$allocator@U?$pair@$$CBV?$basic_string@_WU?$char_traits@_W@std@@V?$allocator@_W@2@@std@@V12@@std@@@2@$0A@@std@@@std@@@2@V?$_Tree_const_iterator@V?$_Tree_val@V?$_Tmap_traits@V?$basic_string@_WU?$char_traits@_W@std@@V?$allocator@_W@2@@std@@V12@U?$less@V?$basic_string@_WU?$char_traits@_W@std@@V?$allocator@_W@2@@std@@@2@V?$allocator@U?$pair@$$CBV?$basic_string@_WU?$char_traits@_W@std@@V?$allocator@_W@2@@std@@V12@@std@@@2@$0A@@std@@@std@@@2@@Z 10056ec0 f i devicenotify.obj
 0002:00055690       ?clear@?$_Tree@V?$_Tmap_traits@V?$basic_string@_WU?$char_traits@_W@std@@V?$allocator@_W@2@@std@@V12@U?$less@V?$basic_string@_WU?$char_traits@_W@std@@V?$allocator@_W@2@@std@@@2@V?$allocator@U?$pair@$$CBV?$basic_string@_WU?$char_traits@_W@std@@V?$allocator@_W@2@@std@@V12@@std@@@2@$0A@@std@@@std@@QAEXXZ 10057690 f i devicenotify.obj
 0002:00055720       ?find@?$_Tree@V?$_Tmap_traits@V?$basic_string@_WU?$char_traits@_W@std@@V?$allocator@_W@2@@std@@V12@U?$less@V?$basic_string@_WU?$char_traits@_W@std@@V?$allocator@_W@2@@std@@@2@V?$allocator@U?$pair@$$CBV?$basic_string@_WU?$char_traits@_W@std@@V?$allocator@_W@2@@std@@V12@@std@@@2@$0A@@std@@@std@@QAE?AV?$_Tree_iterator@V?$_Tree_val@V?$_Tmap_traits@V?$basic_string@_WU?$char_traits@_W@std@@V?$allocator@_W@2@@std@@V12@U?$less@V?$basic_string@_WU?$char_traits@_W@std@@V?$allocator@_W@2@@std@@@2@V?$allocator@U?$pair@$$CBV?$basic_string@_WU?$char_traits@_W@std@@V?$allocator@_W@2@@std@@V12@@std@@@2@$0A@@std@@@std@@@2@ABV?$basic_string@_WU?$char_traits@_W@std@@V?$allocator@_W@2@@2@@Z 10057720 f i devicenotify.obj
 0002:00055820       ??0?$vector@UtagVidCapNameInfo@@V?$allocator@UtagVidCapNameInfo@@@std@@@std@@QAE@XZ 10057820 f i devicenotify.obj
 0002:00055870       ??1?$vector@UtagVidCapNameInfo@@V?$allocator@UtagVidCapNameInfo@@@std@@@std@@QAE@XZ 10057870 f i devicenotify.obj
 0002:000558f0       ??A?$vector@UtagVidCapNameInfo@@V?$allocator@UtagVidCapNameInfo@@@std@@@std@@QAEAAUtagVidCapNameInfo@@I@Z 100578f0 f i devicenotify.obj
 0002:00055930       ?clear@?$vector@UtagVidCapNameInfo@@V?$allocator@UtagVidCapNameInfo@@@std@@@std@@QAEXXZ 10057930 f i devicenotify.obj
 0002:000559c0       ??0?$_Tree_iterator@V?$_Tree_val@V?$_Tmap_traits@V?$basic_string@_WU?$char_traits@_W@std@@V?$allocator@_W@2@@std@@V12@U?$less@V?$basic_string@_WU?$char_traits@_W@std@@V?$allocator@_W@2@@std@@@2@V?$allocator@U?$pair@$$CBV?$basic_string@_WU?$char_traits@_W@std@@V?$allocator@_W@2@@std@@V12@@std@@@2@$0A@@std@@@std@@@std@@QAE@XZ 100579c0 f i devicenotify.obj
 0002:00055a10       ??C?$_Tree_iterator@V?$_Tree_val@V?$_Tmap_traits@V?$basic_string@_WU?$char_traits@_W@std@@V?$allocator@_W@2@@std@@V12@U?$less@V?$basic_string@_WU?$char_traits@_W@std@@V?$allocator@_W@2@@std@@@2@V?$allocator@U?$pair@$$CBV?$basic_string@_WU?$char_traits@_W@std@@V?$allocator@_W@2@@std@@V12@@std@@@2@$0A@@std@@@std@@@std@@QBEPAU?$pair@$$CBV?$basic_string@_WU?$char_traits@_W@std@@V?$allocator@_W@2@@std@@V12@@1@XZ 10057a10 f i devicenotify.obj
 0002:00055a50       ??E?$_Tree_iterator@V?$_Tree_val@V?$_Tmap_traits@V?$basic_string@_WU?$char_traits@_W@std@@V?$allocator@_W@2@@std@@V12@U?$less@V?$basic_string@_WU?$char_traits@_W@std@@V?$allocator@_W@2@@std@@@2@V?$allocator@U?$pair@$$CBV?$basic_string@_WU?$char_traits@_W@std@@V?$allocator@_W@2@@std@@V12@@std@@@2@$0A@@std@@@std@@@std@@QAE?AV01@H@Z 10057a50 f i devicenotify.obj
 0002:00055ae0       ??8?$_Tree_const_iterator@V?$_Tree_val@V?$_Tmap_traits@V?$basic_string@_WU?$char_traits@_W@std@@V?$allocator@_W@2@@std@@V12@U?$less@V?$basic_string@_WU?$char_traits@_W@std@@V?$allocator@_W@2@@std@@@2@V?$allocator@U?$pair@$$CBV?$basic_string@_WU?$char_traits@_W@std@@V?$allocator@_W@2@@std@@V12@@std@@@2@$0A@@std@@@std@@@std@@QBE_NABV01@@Z 10057ae0 f i devicenotify.obj
 0002:00055b20       ??9?$_Tree_const_iterator@V?$_Tree_val@V?$_Tmap_traits@V?$basic_string@_WU?$char_traits@_W@std@@V?$allocator@_W@2@@std@@V12@U?$less@V?$basic_string@_WU?$char_traits@_W@std@@V?$allocator@_W@2@@std@@@2@V?$allocator@U?$pair@$$CBV?$basic_string@_WU?$char_traits@_W@std@@V?$allocator@_W@2@@std@@V12@@std@@@2@$0A@@std@@@std@@@std@@QBE_NABV01@@Z 10057b20 f i devicenotify.obj
 0002:00055b70       ??0?$vector@UTDevNameInfo@@V?$allocator@UTDevNameInfo@@@std@@@std@@QAE@XZ 10057b70 f i devicenotify.obj
 0002:00055bc0       ??1?$vector@UTDevNameInfo@@V?$allocator@UTDevNameInfo@@@std@@@std@@QAE@XZ 10057bc0 f i devicenotify.obj
 0002:00055c40       ??C?$_Vector_iterator@V?$_Vector_val@UTDevNameInfo@@V?$allocator@UTDevNameInfo@@@std@@@std@@@std@@QBEPAUTDevNameInfo@@XZ 10057c40 f i devicenotify.obj
 0002:00055c80       ??E?$_Vector_iterator@V?$_Vector_val@UTDevNameInfo@@V?$allocator@UTDevNameInfo@@@std@@@std@@@std@@QAE?AV01@H@Z 10057c80 f i devicenotify.obj
 0002:00055d10       ?find@?$basic_string@DU?$char_traits@D@std@@V?$allocator@D@2@@std@@QBEIPBDII@Z 10057d10 f i devicenotify.obj
 0002:00055e10       ?compare@?$char_traits@D@std@@SAHPBD0I@Z 10057e10 f i devicenotify.obj
 0002:00055e60       ?find@?$char_traits@D@std@@SAPBDPBDIABD@Z 10057e60 f i devicenotify.obj
 0002:00055ec0       ??0?$_Tree@V?$_Tmap_traits@V?$basic_string@_WU?$char_traits@_W@std@@V?$allocator@_W@2@@std@@V12@U?$less@V?$basic_string@_WU?$char_traits@_W@std@@V?$allocator@_W@2@@std@@@2@V?$allocator@U?$pair@$$CBV?$basic_string@_WU?$char_traits@_W@std@@V?$allocator@_W@2@@std@@V12@@std@@@2@$0A@@std@@@std@@QAE@ABU?$less@V?$basic_string@_WU?$char_traits@_W@std@@V?$allocator@_W@2@@std@@@1@ABV?$allocator@U?$pair@$$CBV?$basic_string@_WU?$char_traits@_W@std@@V?$allocator@_W@2@@std@@V12@@std@@@1@@Z 10057ec0 f i devicenotify.obj
 0002:00055f20       ?lower_bound@?$_Tree@V?$_Tmap_traits@V?$basic_string@_WU?$char_traits@_W@std@@V?$allocator@_W@2@@std@@V12@U?$less@V?$basic_string@_WU?$char_traits@_W@std@@V?$allocator@_W@2@@std@@@2@V?$allocator@U?$pair@$$CBV?$basic_string@_WU?$char_traits@_W@std@@V?$allocator@_W@2@@std@@V12@@std@@@2@$0A@@std@@@std@@QAE?AV?$_Tree_iterator@V?$_Tree_val@V?$_Tmap_traits@V?$basic_string@_WU?$char_traits@_W@std@@V?$allocator@_W@2@@std@@V12@U?$less@V?$basic_string@_WU?$char_traits@_W@std@@V?$allocator@_W@2@@std@@@2@V?$allocator@U?$pair@$$CBV?$basic_string@_WU?$char_traits@_W@std@@V?$allocator@_W@2@@std@@V12@@std@@@2@$0A@@std@@@std@@@2@ABV?$basic_string@_WU?$char_traits@_W@std@@V?$allocator@_W@2@@2@@Z 10057f20 f i devicenotify.obj
 0002:00055f80       ?_Erase@?$_Tree@V?$_Tmap_traits@V?$basic_string@_WU?$char_traits@_W@std@@V?$allocator@_W@2@@std@@V12@U?$less@V?$basic_string@_WU?$char_traits@_W@std@@V?$allocator@_W@2@@std@@@2@V?$allocator@U?$pair@$$CBV?$basic_string@_WU?$char_traits@_W@std@@V?$allocator@_W@2@@std@@V12@@std@@@2@$0A@@std@@@std@@IAEXPAU_Node@?$_Tree_nod@V?$_Tmap_traits@V?$basic_string@_WU?$char_traits@_W@std@@V?$allocator@_W@2@@std@@V12@U?$less@V?$basic_string@_WU?$char_traits@_W@std@@V?$allocator@_W@2@@std@@@2@V?$allocator@U?$pair@$$CBV?$basic_string@_WU?$char_traits@_W@std@@V?$allocator@_W@2@@std@@V12@@std@@@2@$0A@@std@@@2@@Z 10057f80 f i devicenotify.obj
 0002:00056040       ?_Lmost@?$_Tree@V?$_Tmap_traits@V?$basic_string@_WU?$char_traits@_W@std@@V?$allocator@_W@2@@std@@V12@U?$less@V?$basic_string@_WU?$char_traits@_W@std@@V?$allocator@_W@2@@std@@@2@V?$allocator@U?$pair@$$CBV?$basic_string@_WU?$char_traits@_W@std@@V?$allocator@_W@2@@std@@V12@@std@@@2@$0A@@std@@@std@@IBEAAPAU_Node@?$_Tree_nod@V?$_Tmap_traits@V?$basic_string@_WU?$char_traits@_W@std@@V?$allocator@_W@2@@std@@V12@U?$less@V?$basic_string@_WU?$char_traits@_W@std@@V?$allocator@_W@2@@std@@@2@V?$allocator@U?$pair@$$CBV?$basic_string@_WU?$char_traits@_W@std@@V?$allocator@_W@2@@std@@V12@@std@@@2@$0A@@std@@@2@XZ 10058040 f i devicenotify.obj
 0002:00056090       ?_Lrotate@?$_Tree@V?$_Tmap_traits@V?$basic_string@_WU?$char_traits@_W@std@@V?$allocator@_W@2@@std@@V12@U?$less@V?$basic_string@_WU?$char_traits@_W@std@@V?$allocator@_W@2@@std@@@2@V?$allocator@U?$pair@$$CBV?$basic_string@_WU?$char_traits@_W@std@@V?$allocator@_W@2@@std@@V12@@std@@@2@$0A@@std@@@std@@IAEXPAU_Node@?$_Tree_nod@V?$_Tmap_traits@V?$basic_string@_WU?$char_traits@_W@std@@V?$allocator@_W@2@@std@@V12@U?$less@V?$basic_string@_WU?$char_traits@_W@std@@V?$allocator@_W@2@@std@@@2@V?$allocator@U?$pair@$$CBV?$basic_string@_WU?$char_traits@_W@std@@V?$allocator@_W@2@@std@@V12@@std@@@2@$0A@@std@@@2@@Z 10058090 f i devicenotify.obj
 0002:000561f0       ?_Rmost@?$_Tree@V?$_Tmap_traits@V?$basic_string@_WU?$char_traits@_W@std@@V?$allocator@_W@2@@std@@V12@U?$less@V?$basic_string@_WU?$char_traits@_W@std@@V?$allocator@_W@2@@std@@@2@V?$allocator@U?$pair@$$CBV?$basic_string@_WU?$char_traits@_W@std@@V?$allocator@_W@2@@std@@V12@@std@@@2@$0A@@std@@@std@@IBEAAPAU_Node@?$_Tree_nod@V?$_Tmap_traits@V?$basic_string@_WU?$char_traits@_W@std@@V?$allocator@_W@2@@std@@V12@U?$less@V?$basic_string@_WU?$char_traits@_W@std@@V?$allocator@_W@2@@std@@@2@V?$allocator@U?$pair@$$CBV?$basic_string@_WU?$char_traits@_W@std@@V?$allocator@_W@2@@std@@V12@@std@@@2@$0A@@std@@@2@XZ 100581f0 f i devicenotify.obj
 0002:00056240       ?_Root@?$_Tree@V?$_Tmap_traits@V?$basic_string@_WU?$char_traits@_W@std@@V?$allocator@_W@2@@std@@V12@U?$less@V?$basic_string@_WU?$char_traits@_W@std@@V?$allocator@_W@2@@std@@@2@V?$allocator@U?$pair@$$CBV?$basic_string@_WU?$char_traits@_W@std@@V?$allocator@_W@2@@std@@V12@@std@@@2@$0A@@std@@@std@@IBEAAPAU_Node@?$_Tree_nod@V?$_Tmap_traits@V?$basic_string@_WU?$char_traits@_W@std@@V?$allocator@_W@2@@std@@V12@U?$less@V?$basic_string@_WU?$char_traits@_W@std@@V?$allocator@_W@2@@std@@@2@V?$allocator@U?$pair@$$CBV?$basic_string@_WU?$char_traits@_W@std@@V?$allocator@_W@2@@std@@V12@@std@@@2@$0A@@std@@@2@XZ 10058240 f i devicenotify.obj
 0002:00056290       ?_Rrotate@?$_Tree@V?$_Tmap_traits@V?$basic_string@_WU?$char_traits@_W@std@@V?$allocator@_W@2@@std@@V12@U?$less@V?$basic_string@_WU?$char_traits@_W@std@@V?$allocator@_W@2@@std@@@2@V?$allocator@U?$pair@$$CBV?$basic_string@_WU?$char_traits@_W@std@@V?$allocator@_W@2@@std@@V12@@std@@@2@$0A@@std@@@std@@IAEXPAU_Node@?$_Tree_nod@V?$_Tmap_traits@V?$basic_string@_WU?$char_traits@_W@std@@V?$allocator@_W@2@@std@@V12@U?$less@V?$basic_string@_WU?$char_traits@_W@std@@V?$allocator@_W@2@@std@@@2@V?$allocator@U?$pair@$$CBV?$basic_string@_WU?$char_traits@_W@std@@V?$allocator@_W@2@@std@@V12@@std@@@2@$0A@@std@@@2@@Z 10058290 f i devicenotify.obj
 0002:000563f0       ?_Tidy@?$_Tree@V?$_Tmap_traits@V?$basic_string@_WU?$char_traits@_W@std@@V?$allocator@_W@2@@std@@V12@U?$less@V?$basic_string@_WU?$char_traits@_W@std@@V?$allocator@_W@2@@std@@@2@V?$allocator@U?$pair@$$CBV?$basic_string@_WU?$char_traits@_W@std@@V?$allocator@_W@2@@std@@V12@@std@@@2@$0A@@std@@@std@@IAEXXZ 100583f0 f i devicenotify.obj
 0002:00056480       ??1?$_Tree_val@V?$_Tmap_traits@V?$basic_string@_WU?$char_traits@_W@std@@V?$allocator@_W@2@@std@@V12@U?$less@V?$basic_string@_WU?$char_traits@_W@std@@V?$allocator@_W@2@@std@@@2@V?$allocator@U?$pair@$$CBV?$basic_string@_WU?$char_traits@_W@std@@V?$allocator@_W@2@@std@@V12@@std@@@2@$0A@@std@@@std@@QAE@XZ 10058480 f i devicenotify.obj
 0002:000564d0       ?_Color@?$_Tree_val@V?$_Tmap_traits@V?$basic_string@_WU?$char_traits@_W@std@@V?$allocator@_W@2@@std@@V12@U?$less@V?$basic_string@_WU?$char_traits@_W@std@@V?$allocator@_W@2@@std@@@2@V?$allocator@U?$pair@$$CBV?$basic_string@_WU?$char_traits@_W@std@@V?$allocator@_W@2@@std@@V12@@std@@@2@$0A@@std@@@std@@SAAADPAU_Node@?$_Tree_nod@V?$_Tmap_traits@V?$basic_string@_WU?$char_traits@_W@std@@V?$allocator@_W@2@@std@@V12@U?$less@V?$basic_string@_WU?$char_traits@_W@std@@V?$allocator@_W@2@@std@@@2@V?$allocator@U?$pair@$$CBV?$basic_string@_WU?$char_traits@_W@std@@V?$allocator@_W@2@@std@@V12@@std@@@2@$0A@@std@@@2@@Z 100584d0 f i devicenotify.obj
 0002:00056500       ?_Isnil@?$_Tree_val@V?$_Tmap_traits@V?$basic_string@_WU?$char_traits@_W@std@@V?$allocator@_W@2@@std@@V12@U?$less@V?$basic_string@_WU?$char_traits@_W@std@@V?$allocator@_W@2@@std@@@2@V?$allocator@U?$pair@$$CBV?$basic_string@_WU?$char_traits@_W@std@@V?$allocator@_W@2@@std@@V12@@std@@@2@$0A@@std@@@std@@SAAADPAU_Node@?$_Tree_nod@V?$_Tmap_traits@V?$basic_string@_WU?$char_traits@_W@std@@V?$allocator@_W@2@@std@@V12@U?$less@V?$basic_string@_WU?$char_traits@_W@std@@V?$allocator@_W@2@@std@@@2@V?$allocator@U?$pair@$$CBV?$basic_string@_WU?$char_traits@_W@std@@V?$allocator@_W@2@@std@@V12@@std@@@2@$0A@@std@@@2@@Z 10058500 f i devicenotify.obj
 0002:00056530       ?_Key@?$_Tree_val@V?$_Tmap_traits@V?$basic_string@_WU?$char_traits@_W@std@@V?$allocator@_W@2@@std@@V12@U?$less@V?$basic_string@_WU?$char_traits@_W@std@@V?$allocator@_W@2@@std@@@2@V?$allocator@U?$pair@$$CBV?$basic_string@_WU?$char_traits@_W@std@@V?$allocator@_W@2@@std@@V12@@std@@@2@$0A@@std@@@std@@SAAAV?$basic_string@_WU?$char_traits@_W@std@@V?$allocator@_W@2@@2@PAU_Node@?$_Tree_nod@V?$_Tmap_traits@V?$basic_string@_WU?$char_traits@_W@std@@V?$allocator@_W@2@@std@@V12@U?$less@V?$basic_string@_WU?$char_traits@_W@std@@V?$allocator@_W@2@@std@@@2@V?$allocator@U?$pair@$$CBV?$basic_string@_WU?$char_traits@_W@std@@V?$allocator@_W@2@@std@@V12@@std@@@2@$0A@@std@@@2@@Z 10058530 f i devicenotify.obj
 0002:00056580       ?_Left@?$_Tree_val@V?$_Tmap_traits@V?$basic_string@_WU?$char_traits@_W@std@@V?$allocator@_W@2@@std@@V12@U?$less@V?$basic_string@_WU?$char_traits@_W@std@@V?$allocator@_W@2@@std@@@2@V?$allocator@U?$pair@$$CBV?$basic_string@_WU?$char_traits@_W@std@@V?$allocator@_W@2@@std@@V12@@std@@@2@$0A@@std@@@std@@SAAAPAU_Node@?$_Tree_nod@V?$_Tmap_traits@V?$basic_string@_WU?$char_traits@_W@std@@V?$allocator@_W@2@@std@@V12@U?$less@V?$basic_string@_WU?$char_traits@_W@std@@V?$allocator@_W@2@@std@@@2@V?$allocator@U?$pair@$$CBV?$basic_string@_WU?$char_traits@_W@std@@V?$allocator@_W@2@@std@@V12@@std@@@2@$0A@@std@@@2@PAU342@@Z 10058580 f i devicenotify.obj
 0002:000565b0       ?_Parent@?$_Tree_val@V?$_Tmap_traits@V?$basic_string@_WU?$char_traits@_W@std@@V?$allocator@_W@2@@std@@V12@U?$less@V?$basic_string@_WU?$char_traits@_W@std@@V?$allocator@_W@2@@std@@@2@V?$allocator@U?$pair@$$CBV?$basic_string@_WU?$char_traits@_W@std@@V?$allocator@_W@2@@std@@V12@@std@@@2@$0A@@std@@@std@@SAAAPAU_Node@?$_Tree_nod@V?$_Tmap_traits@V?$basic_string@_WU?$char_traits@_W@std@@V?$allocator@_W@2@@std@@V12@U?$less@V?$basic_string@_WU?$char_traits@_W@std@@V?$allocator@_W@2@@std@@@2@V?$allocator@U?$pair@$$CBV?$basic_string@_WU?$char_traits@_W@std@@V?$allocator@_W@2@@std@@V12@@std@@@2@$0A@@std@@@2@PAU342@@Z 100585b0 f i devicenotify.obj
 0002:000565e0       ?_Right@?$_Tree_val@V?$_Tmap_traits@V?$basic_string@_WU?$char_traits@_W@std@@V?$allocator@_W@2@@std@@V12@U?$less@V?$basic_string@_WU?$char_traits@_W@std@@V?$allocator@_W@2@@std@@@2@V?$allocator@U?$pair@$$CBV?$basic_string@_WU?$char_traits@_W@std@@V?$allocator@_W@2@@std@@V12@@std@@@2@$0A@@std@@@std@@SAAAPAU_Node@?$_Tree_nod@V?$_Tmap_traits@V?$basic_string@_WU?$char_traits@_W@std@@V?$allocator@_W@2@@std@@V12@U?$less@V?$basic_string@_WU?$char_traits@_W@std@@V?$allocator@_W@2@@std@@@2@V?$allocator@U?$pair@$$CBV?$basic_string@_WU?$char_traits@_W@std@@V?$allocator@_W@2@@std@@V12@@std@@@2@$0A@@std@@@2@PAU342@@Z 100585e0 f i devicenotify.obj
 0002:00056610       ?_Myval@?$_Tree_val@V?$_Tmap_traits@V?$basic_string@_WU?$char_traits@_W@std@@V?$allocator@_W@2@@std@@V12@U?$less@V?$basic_string@_WU?$char_traits@_W@std@@V?$allocator@_W@2@@std@@@2@V?$allocator@U?$pair@$$CBV?$basic_string@_WU?$char_traits@_W@std@@V?$allocator@_W@2@@std@@V12@@std@@@2@$0A@@std@@@std@@SAAAU?$pair@$$CBV?$basic_string@_WU?$char_traits@_W@std@@V?$allocator@_W@2@@std@@V12@@2@PAU_Node@?$_Tree_nod@V?$_Tmap_traits@V?$basic_string@_WU?$char_traits@_W@std@@V?$allocator@_W@2@@std@@V12@U?$less@V?$basic_string@_WU?$char_traits@_W@std@@V?$allocator@_W@2@@std@@@2@V?$allocator@U?$pair@$$CBV?$basic_string@_WU?$char_traits@_W@std@@V?$allocator@_W@2@@std@@V12@@std@@@2@$0A@@std@@@2@@Z 10058610 f i devicenotify.obj
 0002:00056640       ?_Max@?$_Tree_val@V?$_Tmap_traits@V?$basic_string@_WU?$char_traits@_W@std@@V?$allocator@_W@2@@std@@V12@U?$less@V?$basic_string@_WU?$char_traits@_W@std@@V?$allocator@_W@2@@std@@@2@V?$allocator@U?$pair@$$CBV?$basic_string@_WU?$char_traits@_W@std@@V?$allocator@_W@2@@std@@V12@@std@@@2@$0A@@std@@@std@@SAPAU_Node@?$_Tree_nod@V?$_Tmap_traits@V?$basic_string@_WU?$char_traits@_W@std@@V?$allocator@_W@2@@std@@V12@U?$less@V?$basic_string@_WU?$char_traits@_W@std@@V?$allocator@_W@2@@std@@@2@V?$allocator@U?$pair@$$CBV?$basic_string@_WU?$char_traits@_W@std@@V?$allocator@_W@2@@std@@V12@@std@@@2@$0A@@std@@@2@PAU342@@Z 10058640 f i devicenotify.obj
 0002:000566b0       ?_Min@?$_Tree_val@V?$_Tmap_traits@V?$basic_string@_WU?$char_traits@_W@std@@V?$allocator@_W@2@@std@@V12@U?$less@V?$basic_string@_WU?$char_traits@_W@std@@V?$allocator@_W@2@@std@@@2@V?$allocator@U?$pair@$$CBV?$basic_string@_WU?$char_traits@_W@std@@V?$allocator@_W@2@@std@@V12@@std@@@2@$0A@@std@@@std@@SAPAU_Node@?$_Tree_nod@V?$_Tmap_traits@V?$basic_string@_WU?$char_traits@_W@std@@V?$allocator@_W@2@@std@@V12@U?$less@V?$basic_string@_WU?$char_traits@_W@std@@V?$allocator@_W@2@@std@@@2@V?$allocator@U?$pair@$$CBV?$basic_string@_WU?$char_traits@_W@std@@V?$allocator@_W@2@@std@@V12@@std@@@2@$0A@@std@@@2@PAU342@@Z 100586b0 f i devicenotify.obj
 0002:00056720       ??0?$allocator@U?$pair@$$CBV?$basic_string@_WU?$char_traits@_W@std@@V?$allocator@_W@2@@std@@V12@@std@@@std@@QAE@XZ 10058720 f i devicenotify.obj
 0002:00056750       ?deallocate@?$allocator@U_Node@?$_Tree_nod@V?$_Tmap_traits@V?$basic_string@_WU?$char_traits@_W@std@@V?$allocator@_W@2@@std@@V12@U?$less@V?$basic_string@_WU?$char_traits@_W@std@@V?$allocator@_W@2@@std@@@2@V?$allocator@U?$pair@$$CBV?$basic_string@_WU?$char_traits@_W@std@@V?$allocator@_W@2@@std@@V12@@std@@@2@$0A@@std@@@std@@@std@@QAEXPAU_Node@?$_Tree_nod@V?$_Tmap_traits@V?$basic_string@_WU?$char_traits@_W@std@@V?$allocator@_W@2@@std@@V12@U?$less@V?$basic_string@_WU?$char_traits@_W@std@@V?$allocator@_W@2@@std@@@2@V?$allocator@U?$pair@$$CBV?$basic_string@_WU?$char_traits@_W@std@@V?$allocator@_W@2@@std@@V12@@std@@@2@$0A@@std@@@2@I@Z 10058750 f i devicenotify.obj
 0002:000567a0       ?begin@?$vector@UtagVidCapNameInfo@@V?$allocator@UtagVidCapNameInfo@@@std@@@std@@QAE?AV?$_Vector_iterator@V?$_Vector_val@UtagVidCapNameInfo@@V?$allocator@UtagVidCapNameInfo@@@std@@@std@@@2@XZ 100587a0 f i devicenotify.obj
 0002:000567f0       ?end@?$vector@UtagVidCapNameInfo@@V?$allocator@UtagVidCapNameInfo@@@std@@@std@@QAE?AV?$_Vector_iterator@V?$_Vector_val@UtagVidCapNameInfo@@V?$allocator@UtagVidCapNameInfo@@@std@@@std@@@2@XZ 100587f0 f i devicenotify.obj
 0002:00056840       ?erase@?$vector@UtagVidCapNameInfo@@V?$allocator@UtagVidCapNameInfo@@@std@@@std@@QAE?AV?$_Vector_iterator@V?$_Vector_val@UtagVidCapNameInfo@@V?$allocator@UtagVidCapNameInfo@@@std@@@std@@@2@V?$_Vector_const_iterator@V?$_Vector_val@UtagVidCapNameInfo@@V?$allocator@UtagVidCapNameInfo@@@std@@@std@@@2@0@Z 10058840 f i devicenotify.obj
 0002:00056950       ?_Tidy@?$vector@UtagVidCapNameInfo@@V?$allocator@UtagVidCapNameInfo@@@std@@@std@@IAEXXZ 10058950 f i devicenotify.obj
 0002:00056a00       ??0?$_Vector_val@UtagVidCapNameInfo@@V?$allocator@UtagVidCapNameInfo@@@std@@@std@@QAE@V?$allocator@UtagVidCapNameInfo@@@1@@Z 10058a00 f i devicenotify.obj
 0002:00056a70       ??1?$_Vector_val@UtagVidCapNameInfo@@V?$allocator@UtagVidCapNameInfo@@@std@@@std@@QAE@XZ 10058a70 f i devicenotify.obj
 0002:00056aa0       ??0?$allocator@UtagVidCapNameInfo@@@std@@QAE@XZ 10058aa0 f i devicenotify.obj
 0002:00056ad0       ??0?$_Tree_iterator@V?$_Tree_val@V?$_Tmap_traits@V?$basic_string@_WU?$char_traits@_W@std@@V?$allocator@_W@2@@std@@V12@U?$less@V?$basic_string@_WU?$char_traits@_W@std@@V?$allocator@_W@2@@std@@@2@V?$allocator@U?$pair@$$CBV?$basic_string@_WU?$char_traits@_W@std@@V?$allocator@_W@2@@std@@V12@@std@@@2@$0A@@std@@@std@@@std@@QAE@PAU_Node@?$_Tree_nod@V?$_Tmap_traits@V?$basic_string@_WU?$char_traits@_W@std@@V?$allocator@_W@2@@std@@V12@U?$less@V?$basic_string@_WU?$char_traits@_W@std@@V?$allocator@_W@2@@std@@@2@V?$allocator@U?$pair@$$CBV?$basic_string@_WU?$char_traits@_W@std@@V?$allocator@_W@2@@std@@V12@@std@@@2@$0A@@std@@@1@PBV?$_Tree_val@V?$_Tmap_traits@V?$basic_string@_WU?$char_traits@_W@std@@V?$allocator@_W@2@@std@@V12@U?$less@V?$basic_string@_WU?$char_traits@_W@std@@V?$allocator@_W@2@@std@@@2@V?$allocator@U?$pair@$$CBV?$basic_string@_WU?$char_traits@_W@std@@V?$allocator@_W@2@@std@@V12@@std@@@2@$0A@@std@@@1@@Z 10058ad0 f i devicenotify.obj
 0002:00056b20       ??D?$_Tree_iterator@V?$_Tree_val@V?$_Tmap_traits@V?$basic_string@_WU?$char_traits@_W@std@@V?$allocator@_W@2@@std@@V12@U?$less@V?$basic_string@_WU?$char_traits@_W@std@@V?$allocator@_W@2@@std@@@2@V?$allocator@U?$pair@$$CBV?$basic_string@_WU?$char_traits@_W@std@@V?$allocator@_W@2@@std@@V12@@std@@@2@$0A@@std@@@std@@@std@@QBEAAU?$pair@$$CBV?$basic_string@_WU?$char_traits@_W@std@@V?$allocator@_W@2@@std@@V12@@1@XZ 10058b20 f i devicenotify.obj
 0002:00056b60       ??E?$_Tree_iterator@V?$_Tree_val@V?$_Tmap_traits@V?$basic_string@_WU?$char_traits@_W@std@@V?$allocator@_W@2@@std@@V12@U?$less@V?$basic_string@_WU?$char_traits@_W@std@@V?$allocator@_W@2@@std@@@2@V?$allocator@U?$pair@$$CBV?$basic_string@_WU?$char_traits@_W@std@@V?$allocator@_W@2@@std@@V12@@std@@@2@$0A@@std@@@std@@@std@@QAEAAV01@XZ 10058b60 f i devicenotify.obj
 0002:00056bb0       ??0?$_Tree_const_iterator@V?$_Tree_val@V?$_Tmap_traits@V?$basic_string@_WU?$char_traits@_W@std@@V?$allocator@_W@2@@std@@V12@U?$less@V?$basic_string@_WU?$char_traits@_W@std@@V?$allocator@_W@2@@std@@@2@V?$allocator@U?$pair@$$CBV?$basic_string@_WU?$char_traits@_W@std@@V?$allocator@_W@2@@std@@V12@@std@@@2@$0A@@std@@@std@@@std@@QAE@XZ 10058bb0 f i devicenotify.obj
 0002:00056c00       ??E?$_Tree_const_iterator@V?$_Tree_val@V?$_Tmap_traits@V?$basic_string@_WU?$char_traits@_W@std@@V?$allocator@_W@2@@std@@V12@U?$less@V?$basic_string@_WU?$char_traits@_W@std@@V?$allocator@_W@2@@std@@@2@V?$allocator@U?$pair@$$CBV?$basic_string@_WU?$char_traits@_W@std@@V?$allocator@_W@2@@std@@V12@@std@@@2@$0A@@std@@@std@@@std@@QAEAAV01@XZ 10058c00 f i devicenotify.obj
 0002:00056c50       ?_Mynode@?$_Tree_unchecked_const_iterator@V?$_Tree_val@V?$_Tmap_traits@V?$basic_string@_WU?$char_traits@_W@std@@V?$allocator@_W@2@@std@@V12@U?$less@V?$basic_string@_WU?$char_traits@_W@std@@V?$allocator@_W@2@@std@@@2@V?$allocator@U?$pair@$$CBV?$basic_string@_WU?$char_traits@_W@std@@V?$allocator@_W@2@@std@@V12@@std@@@2@$0A@@std@@@std@@U_Iterator_base0@2@@std@@QBEPAU_Node@?$_Tree_nod@V?$_Tmap_traits@V?$basic_string@_WU?$char_traits@_W@std@@V?$allocator@_W@2@@std@@V12@U?$less@V?$basic_string@_WU?$char_traits@_W@std@@V?$allocator@_W@2@@std@@@2@V?$allocator@U?$pair@$$CBV?$basic_string@_WU?$char_traits@_W@std@@V?$allocator@_W@2@@std@@V12@@std@@@2@$0A@@std@@@2@XZ 10058c50 f i devicenotify.obj
 0002:00056c80       ?_Tidy@?$vector@UTDevNameInfo@@V?$allocator@UTDevNameInfo@@@std@@@std@@IAEXXZ 10058c80 f i devicenotify.obj
 0002:00056d30       ??0?$_Vector_val@UTDevNameInfo@@V?$allocator@UTDevNameInfo@@@std@@@std@@QAE@V?$allocator@UTDevNameInfo@@@1@@Z 10058d30 f i devicenotify.obj
 0002:00056da0       ??1?$_Vector_val@UTDevNameInfo@@V?$allocator@UTDevNameInfo@@@std@@@std@@QAE@XZ 10058da0 f i devicenotify.obj
 0002:00056dd0       ??0?$allocator@UTDevNameInfo@@@std@@QAE@XZ 10058dd0 f i devicenotify.obj
 0002:00056e00       ??D?$_Vector_iterator@V?$_Vector_val@UTDevNameInfo@@V?$allocator@UTDevNameInfo@@@std@@@std@@@std@@QBEAAUTDevNameInfo@@XZ 10058e00 f i devicenotify.obj
 0002:00056e40       ??E?$_Vector_iterator@V?$_Vector_val@UTDevNameInfo@@V?$allocator@UTDevNameInfo@@@std@@@std@@@std@@QAEAAV01@XZ 10058e40 f i devicenotify.obj
 0002:00056e90       ?erase@?$_Tree@V?$_Tmap_traits@V?$basic_string@_WU?$char_traits@_W@std@@V?$allocator@_W@2@@std@@V12@U?$less@V?$basic_string@_WU?$char_traits@_W@std@@V?$allocator@_W@2@@std@@@2@V?$allocator@U?$pair@$$CBV?$basic_string@_WU?$char_traits@_W@std@@V?$allocator@_W@2@@std@@V12@@std@@@2@$0A@@std@@@std@@QAE?AV?$_Tree_iterator@V?$_Tree_val@V?$_Tmap_traits@V?$basic_string@_WU?$char_traits@_W@std@@V?$allocator@_W@2@@std@@V12@U?$less@V?$basic_string@_WU?$char_traits@_W@std@@V?$allocator@_W@2@@std@@@2@V?$allocator@U?$pair@$$CBV?$basic_string@_WU?$char_traits@_W@std@@V?$allocator@_W@2@@std@@V12@@std@@@2@$0A@@std@@@std@@@2@V?$_Tree_const_iterator@V?$_Tree_val@V?$_Tmap_traits@V?$basic_string@_WU?$char_traits@_W@std@@V?$allocator@_W@2@@std@@V12@U?$less@V?$basic_string@_WU?$char_traits@_W@std@@V?$allocator@_W@2@@std@@@2@V?$allocator@U?$pair@$$CBV?$basic_string@_WU?$char_traits@_W@std@@V?$allocator@_W@2@@std@@V12@@std@@@2@$0A@@std@@@std@@@2@0@Z 10058e90 f i devicenotify.obj
 0002:00056f70       ?_Lbound@?$_Tree@V?$_Tmap_traits@V?$basic_string@_WU?$char_traits@_W@std@@V?$allocator@_W@2@@std@@V12@U?$less@V?$basic_string@_WU?$char_traits@_W@std@@V?$allocator@_W@2@@std@@@2@V?$allocator@U?$pair@$$CBV?$basic_string@_WU?$char_traits@_W@std@@V?$allocator@_W@2@@std@@V12@@std@@@2@$0A@@std@@@std@@IAEPAU_Node@?$_Tree_nod@V?$_Tmap_traits@V?$basic_string@_WU?$char_traits@_W@std@@V?$allocator@_W@2@@std@@V12@U?$less@V?$basic_string@_WU?$char_traits@_W@std@@V?$allocator@_W@2@@std@@@2@V?$allocator@U?$pair@$$CBV?$basic_string@_WU?$char_traits@_W@std@@V?$allocator@_W@2@@std@@V12@@std@@@2@$0A@@std@@@2@ABV?$basic_string@_WU?$char_traits@_W@std@@V?$allocator@_W@2@@2@@Z 10058f70 f i devicenotify.obj
 0002:00057030       ??0?$_Tree_val@V?$_Tmap_traits@V?$basic_string@_WU?$char_traits@_W@std@@V?$allocator@_W@2@@std@@V12@U?$less@V?$basic_string@_WU?$char_traits@_W@std@@V?$allocator@_W@2@@std@@@2@V?$allocator@U?$pair@$$CBV?$basic_string@_WU?$char_traits@_W@std@@V?$allocator@_W@2@@std@@V12@@std@@@2@$0A@@std@@@std@@QAE@ABU?$less@V?$basic_string@_WU?$char_traits@_W@std@@V?$allocator@_W@2@@std@@@1@V?$allocator@U?$pair@$$CBV?$basic_string@_WU?$char_traits@_W@std@@V?$allocator@_W@2@@std@@V12@@std@@@1@@Z 10059030 f i devicenotify.obj
 0002:00057110       ??0?$allocator@U?$pair@$$CBV?$basic_string@_WU?$char_traits@_W@std@@V?$allocator@_W@2@@std@@V12@@std@@@std@@QAE@ABV01@@Z 10059110 f i devicenotify.obj
 0002:00057140       ?_Make_iter@?$vector@UtagVidCapNameInfo@@V?$allocator@UtagVidCapNameInfo@@@std@@@std@@QBE?AV?$_Vector_iterator@V?$_Vector_val@UtagVidCapNameInfo@@V?$allocator@UtagVidCapNameInfo@@@std@@@std@@@2@V?$_Vector_const_iterator@V?$_Vector_val@UtagVidCapNameInfo@@V?$allocator@UtagVidCapNameInfo@@@std@@@std@@@2@@Z 10059140 f i devicenotify.obj
 0002:00057190       ?_Destroy@?$vector@UtagVidCapNameInfo@@V?$allocator@UtagVidCapNameInfo@@@std@@@std@@IAEXPAUtagVidCapNameInfo@@0@Z 10059190 f i devicenotify.obj
 0002:000571e0       ??0?$allocator@UtagVidCapNameInfo@@@std@@QAE@ABV01@@Z 100591e0 f i devicenotify.obj
 0002:00057210       ?deallocate@?$allocator@UtagVidCapNameInfo@@@std@@QAEXPAUtagVidCapNameInfo@@I@Z 10059210 f i devicenotify.obj
 0002:00057260       ??0?$_Tree_const_iterator@V?$_Tree_val@V?$_Tmap_traits@V?$basic_string@_WU?$char_traits@_W@std@@V?$allocator@_W@2@@std@@V12@U?$less@V?$basic_string@_WU?$char_traits@_W@std@@V?$allocator@_W@2@@std@@@2@V?$allocator@U?$pair@$$CBV?$basic_string@_WU?$char_traits@_W@std@@V?$allocator@_W@2@@std@@V12@@std@@@2@$0A@@std@@@std@@@std@@QAE@PAU_Node@?$_Tree_nod@V?$_Tmap_traits@V?$basic_string@_WU?$char_traits@_W@std@@V?$allocator@_W@2@@std@@V12@U?$less@V?$basic_string@_WU?$char_traits@_W@std@@V?$allocator@_W@2@@std@@@2@V?$allocator@U?$pair@$$CBV?$basic_string@_WU?$char_traits@_W@std@@V?$allocator@_W@2@@std@@V12@@std@@@2@$0A@@std@@@1@PBV?$_Tree_val@V?$_Tmap_traits@V?$basic_string@_WU?$char_traits@_W@std@@V?$allocator@_W@2@@std@@V12@U?$less@V?$basic_string@_WU?$char_traits@_W@std@@V?$allocator@_W@2@@std@@@2@V?$allocator@U?$pair@$$CBV?$basic_string@_WU?$char_traits@_W@std@@V?$allocator@_W@2@@std@@V12@@std@@@2@$0A@@std@@@1@@Z 10059260 f i devicenotify.obj
 0002:000572b0       ??D?$_Tree_const_iterator@V?$_Tree_val@V?$_Tmap_traits@V?$basic_string@_WU?$char_traits@_W@std@@V?$allocator@_W@2@@std@@V12@U?$less@V?$basic_string@_WU?$char_traits@_W@std@@V?$allocator@_W@2@@std@@@2@V?$allocator@U?$pair@$$CBV?$basic_string@_WU?$char_traits@_W@std@@V?$allocator@_W@2@@std@@V12@@std@@@2@$0A@@std@@@std@@@std@@QBEABU?$pair@$$CBV?$basic_string@_WU?$char_traits@_W@std@@V?$allocator@_W@2@@std@@V12@@1@XZ 100592b0 f i devicenotify.obj
 0002:00057300       ??0?$_Tree_unchecked_const_iterator@V?$_Tree_val@V?$_Tmap_traits@V?$basic_string@_WU?$char_traits@_W@std@@V?$allocator@_W@2@@std@@V12@U?$less@V?$basic_string@_WU?$char_traits@_W@std@@V?$allocator@_W@2@@std@@@2@V?$allocator@U?$pair@$$CBV?$basic_string@_WU?$char_traits@_W@std@@V?$allocator@_W@2@@std@@V12@@std@@@2@$0A@@std@@@std@@U_Iterator_base0@2@@std@@QAE@XZ 10059300 f i devicenotify.obj
 0002:00057340       ??E?$_Tree_unchecked_const_iterator@V?$_Tree_val@V?$_Tmap_traits@V?$basic_string@_WU?$char_traits@_W@std@@V?$allocator@_W@2@@std@@V12@U?$less@V?$basic_string@_WU?$char_traits@_W@std@@V?$allocator@_W@2@@std@@@2@V?$allocator@U?$pair@$$CBV?$basic_string@_WU?$char_traits@_W@std@@V?$allocator@_W@2@@std@@V12@@std@@@2@$0A@@std@@@std@@U_Iterator_base0@2@@std@@QAEAAV01@XZ 10059340 f i devicenotify.obj
 0002:00057430       ??0?$allocator@UTDevNameInfo@@@std@@QAE@ABV01@@Z 10059430 f i devicenotify.obj
 0002:00057460       ??D?$_Vector_const_iterator@V?$_Vector_val@UTDevNameInfo@@V?$allocator@UTDevNameInfo@@@std@@@std@@@std@@QBEABUTDevNameInfo@@XZ 10059460 f i devicenotify.obj
 0002:000574a0       ??E?$_Vector_const_iterator@V?$_Vector_val@UTDevNameInfo@@V?$allocator@UTDevNameInfo@@@std@@@std@@@std@@QAEAAV01@XZ 100594a0 f i devicenotify.obj
 0002:000574e0       ??0?$_Vector_iterator@V?$_Vector_val@UtagVidCapNameInfo@@V?$allocator@UtagVidCapNameInfo@@@std@@@std@@@std@@QAE@PAUtagVidCapNameInfo@@PBU_Container_base0@1@@Z 100594e0 f i devicenotify.obj
 0002:00057530       ??9?$_Vector_const_iterator@V?$_Vector_val@UtagVidCapNameInfo@@V?$allocator@UtagVidCapNameInfo@@@std@@@std@@@std@@QBE_NABV01@@Z 10059530 f i devicenotify.obj
 0002:00057580       ??0?$_Tree_nod@V?$_Tmap_traits@V?$basic_string@_WU?$char_traits@_W@std@@V?$allocator@_W@2@@std@@V12@U?$less@V?$basic_string@_WU?$char_traits@_W@std@@V?$allocator@_W@2@@std@@@2@V?$allocator@U?$pair@$$CBV?$basic_string@_WU?$char_traits@_W@std@@V?$allocator@_W@2@@std@@V12@@std@@@2@$0A@@std@@@std@@QAE@ABU?$less@V?$basic_string@_WU?$char_traits@_W@std@@V?$allocator@_W@2@@std@@@1@V?$allocator@U?$pair@$$CBV?$basic_string@_WU?$char_traits@_W@std@@V?$allocator@_W@2@@std@@V12@@std@@@1@@Z 10059580 f i devicenotify.obj
 0002:000575f0       ?allocate@?$allocator@U_Node@?$_Tree_nod@V?$_Tmap_traits@V?$basic_string@_WU?$char_traits@_W@std@@V?$allocator@_W@2@@std@@V12@U?$less@V?$basic_string@_WU?$char_traits@_W@std@@V?$allocator@_W@2@@std@@@2@V?$allocator@U?$pair@$$CBV?$basic_string@_WU?$char_traits@_W@std@@V?$allocator@_W@2@@std@@V12@@std@@@2@$0A@@std@@@std@@@std@@QAEPAU_Node@?$_Tree_nod@V?$_Tmap_traits@V?$basic_string@_WU?$char_traits@_W@std@@V?$allocator@_W@2@@std@@V12@U?$less@V?$basic_string@_WU?$char_traits@_W@std@@V?$allocator@_W@2@@std@@@2@V?$allocator@U?$pair@$$CBV?$basic_string@_WU?$char_traits@_W@std@@V?$allocator@_W@2@@std@@V12@@std@@@2@$0A@@std@@@2@I@Z 100595f0 f i devicenotify.obj
 0002:00057640       ??E?$_Tree_const_iterator@V?$_Tree_val@V?$_Tmap_traits@V?$basic_string@_WU?$char_traits@_W@std@@V?$allocator@_W@2@@std@@V12@U?$less@V?$basic_string@_WU?$char_traits@_W@std@@V?$allocator@_W@2@@std@@@2@V?$allocator@U?$pair@$$CBV?$basic_string@_WU?$char_traits@_W@std@@V?$allocator@_W@2@@std@@V12@@std@@@2@$0A@@std@@@std@@@std@@QAE?AV01@H@Z 10059640 f i devicenotify.obj
 0002:000576d0       ??0?$_Tree_unchecked_const_iterator@V?$_Tree_val@V?$_Tmap_traits@V?$basic_string@_WU?$char_traits@_W@std@@V?$allocator@_W@2@@std@@V12@U?$less@V?$basic_string@_WU?$char_traits@_W@std@@V?$allocator@_W@2@@std@@@2@V?$allocator@U?$pair@$$CBV?$basic_string@_WU?$char_traits@_W@std@@V?$allocator@_W@2@@std@@V12@@std@@@2@$0A@@std@@@std@@U_Iterator_base0@2@@std@@QAE@PAU_Node@?$_Tree_nod@V?$_Tmap_traits@V?$basic_string@_WU?$char_traits@_W@std@@V?$allocator@_W@2@@std@@V12@U?$less@V?$basic_string@_WU?$char_traits@_W@std@@V?$allocator@_W@2@@std@@@2@V?$allocator@U?$pair@$$CBV?$basic_string@_WU?$char_traits@_W@std@@V?$allocator@_W@2@@std@@V12@@std@@@2@$0A@@std@@@1@PBV?$_Tree_val@V?$_Tmap_traits@V?$basic_string@_WU?$char_traits@_W@std@@V?$allocator@_W@2@@std@@V12@U?$less@V?$basic_string@_WU?$char_traits@_W@std@@V?$allocator@_W@2@@std@@@2@V?$allocator@U?$pair@$$CBV?$basic_string@_WU?$char_traits@_W@std@@V?$allocator@_W@2@@std@@V12@@std@@@2@$0A@@std@@@1@@Z 100596d0 f i devicenotify.obj
 0002:00057720       ??0?$_Vector_const_iterator@V?$_Vector_val@UtagVidCapNameInfo@@V?$allocator@UtagVidCapNameInfo@@@std@@@std@@@std@@QAE@PAUtagVidCapNameInfo@@PBU_Container_base0@1@@Z 10059720 f i devicenotify.obj
 0002:00057770       ??8?$_Vector_const_iterator@V?$_Vector_val@UtagVidCapNameInfo@@V?$allocator@UtagVidCapNameInfo@@@std@@@std@@@std@@QBE_NABV01@@Z 10059770 f i devicenotify.obj
 0002:000577d0       ??0?$_Tmap_traits@V?$basic_string@_WU?$char_traits@_W@std@@V?$allocator@_W@2@@std@@V12@U?$less@V?$basic_string@_WU?$char_traits@_W@std@@V?$allocator@_W@2@@std@@@2@V?$allocator@U?$pair@$$CBV?$basic_string@_WU?$char_traits@_W@std@@V?$allocator@_W@2@@std@@V12@@std@@@2@$0A@@std@@QAE@U?$less@V?$basic_string@_WU?$char_traits@_W@std@@V?$allocator@_W@2@@std@@@1@@Z 100597d0 f i devicenotify.obj
 0002:00057800       ?_Compat@?$_Vector_const_iterator@V?$_Vector_val@UtagVidCapNameInfo@@V?$allocator@UtagVidCapNameInfo@@@std@@@std@@@std@@QBEXABV12@@Z 10059800 f i devicenotify.obj
 0002:00057830       ??$?0AAV?$basic_string@_WU?$char_traits@_W@std@@V?$allocator@_W@2@@std@@AAV01@@?$pair@V?$basic_string@_WU?$char_traits@_W@std@@V?$allocator@_W@2@@std@@V12@@std@@QAE@AAV?$basic_string@_WU?$char_traits@_W@std@@V?$allocator@_W@2@@1@0@Z 10059830 f i devicenotify.obj
 0002:00057890       ??$insert@U?$pair@V?$basic_string@_WU?$char_traits@_W@std@@V?$allocator@_W@2@@std@@V12@@std@@@?$_Tree@V?$_Tmap_traits@V?$basic_string@_WU?$char_traits@_W@std@@V?$allocator@_W@2@@std@@V12@U?$less@V?$basic_string@_WU?$char_traits@_W@std@@V?$allocator@_W@2@@std@@@2@V?$allocator@U?$pair@$$CBV?$basic_string@_WU?$char_traits@_W@std@@V?$allocator@_W@2@@std@@V12@@std@@@2@$0A@@std@@@std@@QAE?AU?$pair@V?$_Tree_iterator@V?$_Tree_val@V?$_Tmap_traits@V?$basic_string@_WU?$char_traits@_W@std@@V?$allocator@_W@2@@std@@V12@U?$less@V?$basic_string@_WU?$char_traits@_W@std@@V?$allocator@_W@2@@std@@@2@V?$allocator@U?$pair@$$CBV?$basic_string@_WU?$char_traits@_W@std@@V?$allocator@_W@2@@std@@V12@@std@@@2@$0A@@std@@@std@@@std@@_N@1@$$QAU?$pair@V?$basic_string@_WU?$char_traits@_W@std@@V?$allocator@_W@2@@std@@V12@@1@@Z 10059890 f i devicenotify.obj
 0002:000578f0       ??$addressof@U?$pair@$$CBV?$basic_string@_WU?$char_traits@_W@std@@V?$allocator@_W@2@@std@@V12@@std@@@std@@YAPAU?$pair@$$CBV?$basic_string@_WU?$char_traits@_W@std@@V?$allocator@_W@2@@std@@V12@@0@AAU10@@Z 100598f0 f i devicenotify.obj
 0002:00057920       ??$_Dest_val@V?$allocator@U?$pair@$$CBV?$basic_string@_WU?$char_traits@_W@std@@V?$allocator@_W@2@@std@@V12@@std@@@std@@U?$pair@$$CBV?$basic_string@_WU?$char_traits@_W@std@@V?$allocator@_W@2@@std@@V12@@2@@std@@YAXAAV?$allocator@U?$pair@$$CBV?$basic_string@_WU?$char_traits@_W@std@@V?$allocator@_W@2@@std@@V12@@std@@@0@PAU?$pair@$$CBV?$basic_string@_WU?$char_traits@_W@std@@V?$allocator@_W@2@@std@@V12@@0@@Z 10059920 f i devicenotify.obj
 0002:00057960       ??$_Kfn@$$CBV?$basic_string@_WU?$char_traits@_W@std@@V?$allocator@_W@2@@std@@V12@@?$_Tmap_traits@V?$basic_string@_WU?$char_traits@_W@std@@V?$allocator@_W@2@@std@@V12@U?$less@V?$basic_string@_WU?$char_traits@_W@std@@V?$allocator@_W@2@@std@@@2@V?$allocator@U?$pair@$$CBV?$basic_string@_WU?$char_traits@_W@std@@V?$allocator@_W@2@@std@@V12@@std@@@2@$0A@@std@@SAABV?$basic_string@_WU?$char_traits@_W@std@@V?$allocator@_W@2@@1@ABU?$pair@$$CBV?$basic_string@_WU?$char_traits@_W@std@@V?$allocator@_W@2@@std@@V12@@1@@Z 10059960 f i devicenotify.obj
 0002:00057990       ??$_Move@PAUtagVidCapNameInfo@@PAU1@@std@@YAPAUtagVidCapNameInfo@@PAU1@00@Z 10059990 f i devicenotify.obj
 0002:00057a00       ??$_Destroy_range@V?$allocator@UtagVidCapNameInfo@@@std@@@std@@YAXPAUtagVidCapNameInfo@@0AAV?$allocator@UtagVidCapNameInfo@@@0@@Z 10059a00 f i devicenotify.obj
 0002:00057a70       ??$?0U?$pair@$$CBV?$basic_string@_WU?$char_traits@_W@std@@V?$allocator@_W@2@@std@@V12@@std@@@?$allocator@U_Node@?$_Tree_nod@V?$_Tmap_traits@V?$basic_string@_WU?$char_traits@_W@std@@V?$allocator@_W@2@@std@@V12@U?$less@V?$basic_string@_WU?$char_traits@_W@std@@V?$allocator@_W@2@@std@@@2@V?$allocator@U?$pair@$$CBV?$basic_string@_WU?$char_traits@_W@std@@V?$allocator@_W@2@@std@@V12@@std@@@2@$0A@@std@@@std@@@std@@QAE@ABV?$allocator@U?$pair@$$CBV?$basic_string@_WU?$char_traits@_W@std@@V?$allocator@_W@2@@std@@V12@@std@@@1@@Z 10059a70 f i devicenotify.obj
 0002:00057aa0       ??$_Allocate@U_Node@?$_Tree_nod@V?$_Tmap_traits@V?$basic_string@_WU?$char_traits@_W@std@@V?$allocator@_W@2@@std@@V12@U?$less@V?$basic_string@_WU?$char_traits@_W@std@@V?$allocator@_W@2@@std@@@2@V?$allocator@U?$pair@$$CBV?$basic_string@_WU?$char_traits@_W@std@@V?$allocator@_W@2@@std@@V12@@std@@@2@$0A@@std@@@std@@@std@@YAPAU_Node@?$_Tree_nod@V?$_Tmap_traits@V?$basic_string@_WU?$char_traits@_W@std@@V?$allocator@_W@2@@std@@V12@U?$less@V?$basic_string@_WU?$char_traits@_W@std@@V?$allocator@_W@2@@std@@@2@V?$allocator@U?$pair@$$CBV?$basic_string@_WU?$char_traits@_W@std@@V?$allocator@_W@2@@std@@V12@@std@@@2@$0A@@std@@@0@IPAU120@@Z 10059aa0 f i devicenotify.obj
 0002:00057b30       ?_Linsert@?$_Tree@V?$_Tmap_traits@V?$basic_string@_WU?$char_traits@_W@std@@V?$allocator@_W@2@@std@@V12@U?$less@V?$basic_string@_WU?$char_traits@_W@std@@V?$allocator@_W@2@@std@@@2@V?$allocator@U?$pair@$$CBV?$basic_string@_WU?$char_traits@_W@std@@V?$allocator@_W@2@@std@@V12@@std@@@2@$0A@@std@@@std@@QAE?AU?$pair@V?$_Tree_iterator@V?$_Tree_val@V?$_Tmap_traits@V?$basic_string@_WU?$char_traits@_W@std@@V?$allocator@_W@2@@std@@V12@U?$less@V?$basic_string@_WU?$char_traits@_W@std@@V?$allocator@_W@2@@std@@@2@V?$allocator@U?$pair@$$CBV?$basic_string@_WU?$char_traits@_W@std@@V?$allocator@_W@2@@std@@V12@@std@@@2@$0A@@std@@@std@@@std@@_N@2@PAU_Node@?$_Tree_nod@V?$_Tmap_traits@V?$basic_string@_WU?$char_traits@_W@std@@V?$allocator@_W@2@@std@@V12@U?$less@V?$basic_string@_WU?$char_traits@_W@std@@V?$allocator@_W@2@@std@@@2@V?$allocator@U?$pair@$$CBV?$basic_string@_WU?$char_traits@_W@std@@V?$allocator@_W@2@@std@@V12@@std@@@2@$0A@@std@@@2@_N@Z 10059b30 f i devicenotify.obj
 0002:00057e00       ?destroy@?$allocator@U?$pair@$$CBV?$basic_string@_WU?$char_traits@_W@std@@V?$allocator@_W@2@@std@@V12@@std@@@std@@QAEXPAU?$pair@$$CBV?$basic_string@_WU?$char_traits@_W@std@@V?$allocator@_W@2@@std@@V12@@2@@Z 10059e00 f i devicenotify.obj
 0002:00057e50       ?_Insert@?$_Tree@V?$_Tmap_traits@V?$basic_string@_WU?$char_traits@_W@std@@V?$allocator@_W@2@@std@@V12@U?$less@V?$basic_string@_WU?$char_traits@_W@std@@V?$allocator@_W@2@@std@@@2@V?$allocator@U?$pair@$$CBV?$basic_string@_WU?$char_traits@_W@std@@V?$allocator@_W@2@@std@@V12@@std@@@2@$0A@@std@@@std@@IAE?AV?$_Tree_iterator@V?$_Tree_val@V?$_Tmap_traits@V?$basic_string@_WU?$char_traits@_W@std@@V?$allocator@_W@2@@std@@V12@U?$less@V?$basic_string@_WU?$char_traits@_W@std@@V?$allocator@_W@2@@std@@@2@V?$allocator@U?$pair@$$CBV?$basic_string@_WU?$char_traits@_W@std@@V?$allocator@_W@2@@std@@V12@@std@@@2@$0A@@std@@@std@@@2@_NPAU_Node@?$_Tree_nod@V?$_Tmap_traits@V?$basic_string@_WU?$char_traits@_W@std@@V?$allocator@_W@2@@std@@V12@U?$less@V?$basic_string@_WU?$char_traits@_W@std@@V?$allocator@_W@2@@std@@@2@V?$allocator@U?$pair@$$CBV?$basic_string@_WU?$char_traits@_W@std@@V?$allocator@_W@2@@std@@V12@@std@@@2@$0A@@std@@@2@1@Z 10059e50 f i devicenotify.obj
 0002:000582c0       ??0?$pair@V?$_Tree_iterator@V?$_Tree_val@V?$_Tmap_traits@V?$basic_string@_WU?$char_traits@_W@std@@V?$allocator@_W@2@@std@@V12@U?$less@V?$basic_string@_WU?$char_traits@_W@std@@V?$allocator@_W@2@@std@@@2@V?$allocator@U?$pair@$$CBV?$basic_string@_WU?$char_traits@_W@std@@V?$allocator@_W@2@@std@@V12@@std@@@2@$0A@@std@@@std@@@std@@_N@std@@QAE@$$QAV?$_Tree_iterator@V?$_Tree_val@V?$_Tmap_traits@V?$basic_string@_WU?$char_traits@_W@std@@V?$allocator@_W@2@@std@@V12@U?$less@V?$basic_string@_WU?$char_traits@_W@std@@V?$allocator@_W@2@@std@@@2@V?$allocator@U?$pair@$$CBV?$basic_string@_WU?$char_traits@_W@std@@V?$allocator@_W@2@@std@@V12@@std@@@2@$0A@@std@@@std@@@1@$$QA_N@Z 1005a2c0 f i devicenotify.obj
 0002:00058320       ??F?$_Tree_iterator@V?$_Tree_val@V?$_Tmap_traits@V?$basic_string@_WU?$char_traits@_W@std@@V?$allocator@_W@2@@std@@V12@U?$less@V?$basic_string@_WU?$char_traits@_W@std@@V?$allocator@_W@2@@std@@@2@V?$allocator@U?$pair@$$CBV?$basic_string@_WU?$char_traits@_W@std@@V?$allocator@_W@2@@std@@V12@@std@@@2@$0A@@std@@@std@@@std@@QAEAAV01@XZ 1005a320 f i devicenotify.obj
 0002:00058370       ?max_size@?$_Tree@V?$_Tmap_traits@V?$basic_string@_WU?$char_traits@_W@std@@V?$allocator@_W@2@@std@@V12@U?$less@V?$basic_string@_WU?$char_traits@_W@std@@V?$allocator@_W@2@@std@@@2@V?$allocator@U?$pair@$$CBV?$basic_string@_WU?$char_traits@_W@std@@V?$allocator@_W@2@@std@@V12@@std@@@2@$0A@@std@@@std@@QBEIXZ 1005a370 f i devicenotify.obj
 0002:000583c0       ??0?$_Pair_base@V?$_Tree_iterator@V?$_Tree_val@V?$_Tmap_traits@V?$basic_string@_WU?$char_traits@_W@std@@V?$allocator@_W@2@@std@@V12@U?$less@V?$basic_string@_WU?$char_traits@_W@std@@V?$allocator@_W@2@@std@@@2@V?$allocator@U?$pair@$$CBV?$basic_string@_WU?$char_traits@_W@std@@V?$allocator@_W@2@@std@@V12@@std@@@2@$0A@@std@@@std@@@std@@_N@std@@QAE@$$QAV?$_Tree_iterator@V?$_Tree_val@V?$_Tmap_traits@V?$basic_string@_WU?$char_traits@_W@std@@V?$allocator@_W@2@@std@@V12@U?$less@V?$basic_string@_WU?$char_traits@_W@std@@V?$allocator@_W@2@@std@@@2@V?$allocator@U?$pair@$$CBV?$basic_string@_WU?$char_traits@_W@std@@V?$allocator@_W@2@@std@@V12@@std@@@2@$0A@@std@@@std@@@1@$$QA_N@Z 1005a3c0 f i devicenotify.obj
 0002:00058430       ??F?$_Tree_const_iterator@V?$_Tree_val@V?$_Tmap_traits@V?$basic_string@_WU?$char_traits@_W@std@@V?$allocator@_W@2@@std@@V12@U?$less@V?$basic_string@_WU?$char_traits@_W@std@@V?$allocator@_W@2@@std@@@2@V?$allocator@U?$pair@$$CBV?$basic_string@_WU?$char_traits@_W@std@@V?$allocator@_W@2@@std@@V12@@std@@@2@$0A@@std@@@std@@@std@@QAEAAV01@XZ 1005a430 f i devicenotify.obj
 0002:00058480       ?max_size@?$allocator@U?$pair@$$CBV?$basic_string@_WU?$char_traits@_W@std@@V?$allocator@_W@2@@std@@V12@@std@@@std@@QBEIXZ 1005a480 f i devicenotify.obj
 0002:000584e0       ??F?$_Tree_unchecked_const_iterator@V?$_Tree_val@V?$_Tmap_traits@V?$basic_string@_WU?$char_traits@_W@std@@V?$allocator@_W@2@@std@@V12@U?$less@V?$basic_string@_WU?$char_traits@_W@std@@V?$allocator@_W@2@@std@@@2@V?$allocator@U?$pair@$$CBV?$basic_string@_WU?$char_traits@_W@std@@V?$allocator@_W@2@@std@@V12@@std@@@2@$0A@@std@@@std@@U_Iterator_base0@2@@std@@QAEAAV01@XZ 1005a4e0 f i devicenotify.obj
 0002:000585f0       ??$forward@AAV?$basic_string@_WU?$char_traits@_W@std@@V?$allocator@_W@2@@std@@@std@@YAAAV?$basic_string@_WU?$char_traits@_W@std@@V?$allocator@_W@2@@0@AAV10@@Z 1005a5f0 f i devicenotify.obj
 0002:00058620       ??$?0AAV?$basic_string@_WU?$char_traits@_W@std@@V?$allocator@_W@2@@std@@AAV01@@?$_Pair_base@V?$basic_string@_WU?$char_traits@_W@std@@V?$allocator@_W@2@@std@@V12@@std@@QAE@AAV?$basic_string@_WU?$char_traits@_W@std@@V?$allocator@_W@2@@1@0@Z 1005a620 f i devicenotify.obj
 0002:000586d0       ??$forward@U?$pair@V?$basic_string@_WU?$char_traits@_W@std@@V?$allocator@_W@2@@std@@V12@@std@@@std@@YA$$QAU?$pair@V?$basic_string@_WU?$char_traits@_W@std@@V?$allocator@_W@2@@std@@V12@@0@AAU10@@Z 1005a6d0 f i devicenotify.obj
 0002:00058700       ??$_Buynode@U?$pair@V?$basic_string@_WU?$char_traits@_W@std@@V?$allocator@_W@2@@std@@V12@@std@@@?$_Tree_val@V?$_Tmap_traits@V?$basic_string@_WU?$char_traits@_W@std@@V?$allocator@_W@2@@std@@V12@U?$less@V?$basic_string@_WU?$char_traits@_W@std@@V?$allocator@_W@2@@std@@@2@V?$allocator@U?$pair@$$CBV?$basic_string@_WU?$char_traits@_W@std@@V?$allocator@_W@2@@std@@V12@@std@@@2@$0A@@std@@@std@@QAEPAU_Node@?$_Tree_nod@V?$_Tmap_traits@V?$basic_string@_WU?$char_traits@_W@std@@V?$allocator@_W@2@@std@@V12@U?$less@V?$basic_string@_WU?$char_traits@_W@std@@V?$allocator@_W@2@@std@@@2@V?$allocator@U?$pair@$$CBV?$basic_string@_WU?$char_traits@_W@std@@V?$allocator@_W@2@@std@@V12@@std@@@2@$0A@@std@@@1@$$QAU?$pair@V?$basic_string@_WU?$char_traits@_W@std@@V?$allocator@_W@2@@std@@V12@@1@@Z 1005a700 f i devicenotify.obj
 0002:00058810       ??$_Ptr_cat@UtagVidCapNameInfo@@U1@@std@@YA?AU_Nonscalar_ptr_iterator_tag@0@PAUtagVidCapNameInfo@@0@Z 1005a810 f i devicenotify.obj
 0002:00058870       ??$_Move@PAUtagVidCapNameInfo@@PAU1@@std@@YAPAUtagVidCapNameInfo@@PAU1@00U_Nonscalar_ptr_iterator_tag@0@@Z 1005a870 f i devicenotify.obj
 0002:000588e0       ??$_Destroy_range@V?$allocator@UtagVidCapNameInfo@@@std@@@std@@YAXPAUtagVidCapNameInfo@@0AAV?$allocator@UtagVidCapNameInfo@@@0@U_Nonscalar_ptr_iterator_tag@0@@Z 1005a8e0 f i devicenotify.obj
 0002:00058940       ??$?0AAV?$_Tree_iterator@V?$_Tree_val@V?$_Tmap_traits@V?$basic_string@_WU?$char_traits@_W@std@@V?$allocator@_W@2@@std@@V12@U?$less@V?$basic_string@_WU?$char_traits@_W@std@@V?$allocator@_W@2@@std@@@2@V?$allocator@U?$pair@$$CBV?$basic_string@_WU?$char_traits@_W@std@@V?$allocator@_W@2@@std@@V12@@std@@@2@$0A@@std@@@std@@@std@@_N@?$pair@V?$_Tree_iterator@V?$_Tree_val@V?$_Tmap_traits@V?$basic_string@_WU?$char_traits@_W@std@@V?$allocator@_W@2@@std@@V12@U?$less@V?$basic_string@_WU?$char_traits@_W@std@@V?$allocator@_W@2@@std@@@2@V?$allocator@U?$pair@$$CBV?$basic_string@_WU?$char_traits@_W@std@@V?$allocator@_W@2@@std@@V12@@std@@@2@$0A@@std@@@std@@@std@@_N@std@@QAE@AAV?$_Tree_iterator@V?$_Tree_val@V?$_Tmap_traits@V?$basic_string@_WU?$char_traits@_W@std@@V?$allocator@_W@2@@std@@V12@U?$less@V?$basic_string@_WU?$char_traits@_W@std@@V?$allocator@_W@2@@std@@@2@V?$allocator@U?$pair@$$CBV?$basic_string@_WU?$char_traits@_W@std@@V?$allocator@_W@2@@std@@V12@@std@@@2@$0A@@std@@@std@@@1@$$QA_N@Z 1005a940 f i devicenotify.obj
 0002:000589a0       ??$_Destroy@U?$pair@$$CBV?$basic_string@_WU?$char_traits@_W@std@@V?$allocator@_W@2@@std@@V12@@std@@@std@@YAXPAU?$pair@$$CBV?$basic_string@_WU?$char_traits@_W@std@@V?$allocator@_W@2@@std@@V12@@0@@Z 1005a9a0 f i devicenotify.obj
 0002:000589e0       ??$move@AAV?$_Tree_iterator@V?$_Tree_val@V?$_Tmap_traits@V?$basic_string@_WU?$char_traits@_W@std@@V?$allocator@_W@2@@std@@V12@U?$less@V?$basic_string@_WU?$char_traits@_W@std@@V?$allocator@_W@2@@std@@@2@V?$allocator@U?$pair@$$CBV?$basic_string@_WU?$char_traits@_W@std@@V?$allocator@_W@2@@std@@V12@@std@@@2@$0A@@std@@@std@@@std@@@std@@YA$$QAV?$_Tree_iterator@V?$_Tree_val@V?$_Tmap_traits@V?$basic_string@_WU?$char_traits@_W@std@@V?$allocator@_W@2@@std@@V12@U?$less@V?$basic_string@_WU?$char_traits@_W@std@@V?$allocator@_W@2@@std@@@2@V?$allocator@U?$pair@$$CBV?$basic_string@_WU?$char_traits@_W@std@@V?$allocator@_W@2@@std@@V12@@std@@@2@$0A@@std@@@std@@@0@AAV10@@Z 1005a9e0 f i devicenotify.obj
 0002:00058a10       ??4tagVidCapNameInfo@@QAEAAU0@ABU0@@Z 1005aa10 f i devicenotify.obj
 0002:00058a80       ??_G?$pair@$$CBV?$basic_string@_WU?$char_traits@_W@std@@V?$allocator@_W@2@@std@@V12@@std@@QAEPAXI@Z 1005aa80 f i devicenotify.obj
 0002:00058ae0       ??1?$pair@$$CBV?$basic_string@_WU?$char_traits@_W@std@@V?$allocator@_W@2@@std@@V12@@std@@QAE@XZ 1005aae0 f i devicenotify.obj
 0002:00058b20       ??1?$_Pair_base@$$CBV?$basic_string@_WU?$char_traits@_W@std@@V?$allocator@_W@2@@std@@V12@@std@@QAE@XZ 1005ab20 f i devicenotify.obj
 0002:00058bb0       ?_Buynode@?$_Tree_val@V?$_Tmap_traits@V?$basic_string@_WU?$char_traits@_W@std@@V?$allocator@_W@2@@std@@V12@U?$less@V?$basic_string@_WU?$char_traits@_W@std@@V?$allocator@_W@2@@std@@@2@V?$allocator@U?$pair@$$CBV?$basic_string@_WU?$char_traits@_W@std@@V?$allocator@_W@2@@std@@V12@@std@@@2@$0A@@std@@@std@@QAEPAU_Node@?$_Tree_nod@V?$_Tmap_traits@V?$basic_string@_WU?$char_traits@_W@std@@V?$allocator@_W@2@@std@@V12@U?$less@V?$basic_string@_WU?$char_traits@_W@std@@V?$allocator@_W@2@@std@@@2@V?$allocator@U?$pair@$$CBV?$basic_string@_WU?$char_traits@_W@std@@V?$allocator@_W@2@@std@@V12@@std@@@2@$0A@@std@@@2@XZ 1005abb0 f i devicenotify.obj
 0002:00058c60       ??$_Cons_val@V?$allocator@U?$pair@$$CBV?$basic_string@_WU?$char_traits@_W@std@@V?$allocator@_W@2@@std@@V12@@std@@@std@@U?$pair@$$CBV?$basic_string@_WU?$char_traits@_W@std@@V?$allocator@_W@2@@std@@V12@@2@U?$pair@V?$basic_string@_WU?$char_traits@_W@std@@V?$allocator@_W@2@@std@@V12@@2@@std@@YAXAAV?$allocator@U?$pair@$$CBV?$basic_string@_WU?$char_traits@_W@std@@V?$allocator@_W@2@@std@@V12@@std@@@0@PAU?$pair@$$CBV?$basic_string@_WU?$char_traits@_W@std@@V?$allocator@_W@2@@std@@V12@@0@$$QAU?$pair@V?$basic_string@_WU?$char_traits@_W@std@@V?$allocator@_W@2@@std@@V12@@0@@Z 1005ac60 f i devicenotify.obj
 0002:00058cb0       ??$move@AAUtagVidCapNameInfo@@@std@@YA$$QAUtagVidCapNameInfo@@AAU1@@Z 1005acb0 f i devicenotify.obj
 0002:00058ce0       ??$_Dest_val@V?$allocator@UtagVidCapNameInfo@@@std@@UtagVidCapNameInfo@@@std@@YAXAAV?$allocator@UtagVidCapNameInfo@@@0@PAUtagVidCapNameInfo@@@Z 1005ace0 f i devicenotify.obj
 0002:00058d20       ??$forward@AAV?$_Tree_iterator@V?$_Tree_val@V?$_Tmap_traits@V?$basic_string@_WU?$char_traits@_W@std@@V?$allocator@_W@2@@std@@V12@U?$less@V?$basic_string@_WU?$char_traits@_W@std@@V?$allocator@_W@2@@std@@@2@V?$allocator@U?$pair@$$CBV?$basic_string@_WU?$char_traits@_W@std@@V?$allocator@_W@2@@std@@V12@@std@@@2@$0A@@std@@@std@@@std@@@std@@YAAAV?$_Tree_iterator@V?$_Tree_val@V?$_Tmap_traits@V?$basic_string@_WU?$char_traits@_W@std@@V?$allocator@_W@2@@std@@V12@U?$less@V?$basic_string@_WU?$char_traits@_W@std@@V?$allocator@_W@2@@std@@@2@V?$allocator@U?$pair@$$CBV?$basic_string@_WU?$char_traits@_W@std@@V?$allocator@_W@2@@std@@V12@@std@@@2@$0A@@std@@@std@@@0@AAV10@@Z 1005ad20 f i devicenotify.obj
 0002:00058d50       ??$?0AAV?$_Tree_iterator@V?$_Tree_val@V?$_Tmap_traits@V?$basic_string@_WU?$char_traits@_W@std@@V?$allocator@_W@2@@std@@V12@U?$less@V?$basic_string@_WU?$char_traits@_W@std@@V?$allocator@_W@2@@std@@@2@V?$allocator@U?$pair@$$CBV?$basic_string@_WU?$char_traits@_W@std@@V?$allocator@_W@2@@std@@V12@@std@@@2@$0A@@std@@@std@@@std@@_N@?$_Pair_base@V?$_Tree_iterator@V?$_Tree_val@V?$_Tmap_traits@V?$basic_string@_WU?$char_traits@_W@std@@V?$allocator@_W@2@@std@@V12@U?$less@V?$basic_string@_WU?$char_traits@_W@std@@V?$allocator@_W@2@@std@@@2@V?$allocator@U?$pair@$$CBV?$basic_string@_WU?$char_traits@_W@std@@V?$allocator@_W@2@@std@@V12@@std@@@2@$0A@@std@@@std@@@std@@_N@std@@QAE@AAV?$_Tree_iterator@V?$_Tree_val@V?$_Tmap_traits@V?$basic_string@_WU?$char_traits@_W@std@@V?$allocator@_W@2@@std@@V12@U?$less@V?$basic_string@_WU?$char_traits@_W@std@@V?$allocator@_W@2@@std@@@2@V?$allocator@U?$pair@$$CBV?$basic_string@_WU?$char_traits@_W@std@@V?$allocator@_W@2@@std@@V12@@std@@@2@$0A@@std@@@std@@@1@$$QA_N@Z 1005ad50 f i devicenotify.obj
 0002:00058dc0       ?destroy@?$allocator@UtagVidCapNameInfo@@@std@@QAEXPAUtagVidCapNameInfo@@@Z 1005adc0 f i devicenotify.obj
 0002:00058e10       ??$construct@U?$pair@V?$basic_string@_WU?$char_traits@_W@std@@V?$allocator@_W@2@@std@@V12@@std@@@?$allocator@U?$pair@$$CBV?$basic_string@_WU?$char_traits@_W@std@@V?$allocator@_W@2@@std@@V12@@std@@@std@@QAEXPAU?$pair@$$CBV?$basic_string@_WU?$char_traits@_W@std@@V?$allocator@_W@2@@std@@V12@@1@$$QAU?$pair@V?$basic_string@_WU?$char_traits@_W@std@@V?$allocator@_W@2@@std@@V12@@1@@Z 1005ae10 f i devicenotify.obj
 0002:00058ee0       ??$_Destroy@UtagVidCapNameInfo@@@std@@YAXPAUtagVidCapNameInfo@@@Z 1005aee0 f i devicenotify.obj
 0002:00058f20       ??_GtagVidCapNameInfo@@QAEPAXI@Z 1005af20 f i devicenotify.obj
 0002:00058f80       ??1tagVidCapNameInfo@@QAE@XZ 1005af80 f i devicenotify.obj
 0002:00059010       ??$?0V?$basic_string@_WU?$char_traits@_W@std@@V?$allocator@_W@2@@std@@V01@@?$pair@$$CBV?$basic_string@_WU?$char_traits@_W@std@@V?$allocator@_W@2@@std@@V12@@std@@QAE@$$QAU?$pair@V?$basic_string@_WU?$char_traits@_W@std@@V?$allocator@_W@2@@std@@V12@@1@@Z 1005b010 f i devicenotify.obj
 0002:00059080       ??$?0V?$basic_string@_WU?$char_traits@_W@std@@V?$allocator@_W@2@@std@@V01@@?$_Pair_base@$$CBV?$basic_string@_WU?$char_traits@_W@std@@V?$allocator@_W@2@@std@@V12@@std@@QAE@$$QAV?$basic_string@_WU?$char_traits@_W@std@@V?$allocator@_W@2@@1@0@Z 1005b080 f i devicenotify.obj
 0002:00059130       ?GetSystemProductName@@YAHPAXAAI@Z 1005b130 f   dshowdraw.obj
 0002:00059290       ?Sys_IsWin8@@YAHXZ         1005b290 f   dshowdraw.obj
 0002:00059540       ?ExeCPUID@@YAXK@Z          1005b540 f   dshowdraw.obj
 0002:00059590       ?GetCPUType@@YA?AV?$basic_string@DU?$char_traits@D@std@@V?$allocator@D@2@@std@@XZ 1005b590 f   dshowdraw.obj
 0002:000596e0       ?trim@@YAAAV?$basic_string@DU?$char_traits@D@std@@V?$allocator@D@2@@std@@AAV12@@Z 1005b6e0 f   dshowdraw.obj
 0002:00059770       ??0CDShowDraw@@QAE@XZ      1005b770 f   dshowdraw.obj
 0002:00059a70       ??_ECDShowDraw@@UAEPAXI@Z  1005ba70 f i dshowdraw.obj
 0002:00059a70       ??_GCDShowDraw@@UAEPAXI@Z  1005ba70 f i dshowdraw.obj
 0002:00059ad0       ??1CDShowDraw@@UAE@XZ      1005bad0 f   dshowdraw.obj
 0002:00059c50       ?Create@CDShowDraw@@QAEHHH@Z 1005bc50 f   dshowdraw.obj
 0002:0005a180       ?Free@CDShowDraw@@QAEHXZ   1005c180 f   dshowdraw.obj
 0002:0005a3b0       ?SetMediaFormat@CDShowDraw@@QAEHPAUtagBITMAPINFOHEADER@@@Z 1005c3b0 f   dshowdraw.obj
 0002:0005a700       ?SetPlayWnd@CDShowDraw@@QAEHPAUHWND__@@H@Z 1005c700 f   dshowdraw.obj
 0002:0005afe0       ?DrawDec@CDShowDraw@@QAEHPAEHHH@Z 1005cfe0 f   dshowdraw.obj
 0002:0005b890       ?DrawEnc@CDShowDraw@@QAEHPAEHH@Z 1005d890 f   dshowdraw.obj
 0002:0005c150       ?InitDirectDraw@CDShowDraw@@AAEHXZ 1005e150 f   dshowdraw.obj
 0002:0005c530       ?FreeDirectDraw@CDShowDraw@@AAEXXZ 1005e530 f   dshowdraw.obj
 0002:0005c6e0       ?CreatePrimarySurface@CDShowDraw@@AAEJXZ 1005e6e0 f   dshowdraw.obj
 0002:0005c9b0       ?RestoreAllSurface@CDShowDraw@@AAEHXZ 1005e9b0 f   dshowdraw.obj
 0002:0005cb70       ?ClearLastFrame@CDShowDraw@@QAEHXZ 1005eb70 f   dshowdraw.obj
 0002:0005cd70       ?SetDrawCallBack@CDShowDraw@@QAEXP6AXPAUHDC__@@I@ZI@Z 1005ed70 f   dshowdraw.obj
 0002:0005ce10       ?CreateRect@CDShowDraw@@AAEHPAUtagRECT@@E@Z 1005ee10 f   dshowdraw.obj
 0002:0005d2b0       ?SetVidDrawDecZoomPolicy@CDShowDraw@@QAEXW4TPicZoomStyle@@@Z 1005f2b0 f   dshowdraw.obj
 0002:0005d350       ?SetDrawMode@CDShowDraw@@QAEHW4emDrawMode@@@Z 1005f350 f   dshowdraw.obj
 0002:0005d4c0       ?AddColorToImage@@YAHPAE0HHEEE@Z 1005f4c0 f   dshowdraw.obj
 0002:0005d940       _yv12_to_rgb24_1234        1005f940 f   dshowdraw.obj
 0002:0005ddc0       _Generate_yuv2rgb_tables_1234 1005fdc0 f   dshowdraw.obj
 0002:0005df10       ?DrawByDDraw@CDShowDraw@@AAEHPAEIIH@Z 1005ff10 f   dshowdraw.obj
 0002:0005e9b0       ?DrawByDrawDib@CDShowDraw@@AAEHPAEIIH@Z 100609b0 f   dshowdraw.obj
 0002:0005f0e0       ?DrawByGDI@CDShowDraw@@AAEHPAEIIH@Z 100610e0 f   dshowdraw.obj
 0002:0005f590       ??0?$basic_string@DU?$char_traits@D@std@@V?$allocator@D@2@@std@@QAE@ABV01@@Z 10061590 f i dshowdraw.obj
 0002:0005f650       ?empty@?$basic_string@DU?$char_traits@D@std@@V?$allocator@D@2@@std@@QBE_NXZ 10061650 f i dshowdraw.obj
 0002:0005f690       ?find_first_not_of@?$basic_string@DU?$char_traits@D@std@@V?$allocator@D@2@@std@@QBEIPBDI@Z 10061690 f i dshowdraw.obj
 0002:0005f6f0       ?find_last_not_of@?$basic_string@DU?$char_traits@D@std@@V?$allocator@D@2@@std@@QBEIPBDI@Z 100616f0 f i dshowdraw.obj
 0002:0005f750       ?find_first_not_of@?$basic_string@DU?$char_traits@D@std@@V?$allocator@D@2@@std@@QBEIPBDII@Z 10061750 f i dshowdraw.obj
 0002:0005f800       ?find_last_not_of@?$basic_string@DU?$char_traits@D@std@@V?$allocator@D@2@@std@@QBEIPBDII@Z 10061800 f i dshowdraw.obj
 0002:0005f8d0       ?GetSingletonPtr@CVidCapManDS@@SAPAV1@XZ 100618d0 f   dsvidcapman.obj
 0002:0005f900       ?GetSingleton@CVidCapManDS@@SAAAV1@XZ 10061900 f   dsvidcapman.obj
 0002:0005f930       ??0CVidCapManDS@@QAE@XZ    10061930 f   dsvidcapman.obj
 0002:0005fb00       ??_ECVidCapManDS@@UAEPAXI@Z 10061b00 f i dsvidcapman.obj
 0002:0005fb00       ??_GCVidCapManDS@@UAEPAXI@Z 10061b00 f i dsvidcapman.obj
 0002:0005fb60       ??0tagVidCapNameInfo@@QAE@XZ 10061b60 f i dsvidcapman.obj
 0002:0005fbf0       ??1CVidCapManDS@@UAE@XZ    10061bf0 f   dsvidcapman.obj
 0002:00060020       ?Refresh@CVidCapManDS@@QAEGAAV?$vector@UtagVidCapNameInfo@@V?$allocator@UtagVidCapNameInfo@@@std@@@std@@AAI@Z 10062020 f   dsvidcapman.obj
 0002:00060480       ?Clear@tagVidCapNameInfo@@QAEXXZ 10062480 f i dsvidcapman.obj
 0002:000604e0       ?GetCapFilter@CVidCapManDS@@IAEPAUIBaseFilter@@ABUtagVidCapNameInfo@@@Z 100624e0 f   dsvidcapman.obj
 0002:00060990       ?Init@CVidCapManDS@@QAEGXZ 10062990 f   dsvidcapman.obj
 0002:00061510       ?DisconnectGraph@CVidCapManDS@@QAEGXZ 10063510 f   dsvidcapman.obj
 0002:000617c0       ?StopCapture@CVidCapManDS@@QAEGXZ 100637c0 f   dsvidcapman.obj
 0002:000618b0       ?SelectCamera@CVidCapManDS@@QAEGPBUtagVidCapNameInfo@@PBUVideoCaptureCapability@@H@Z 100638b0 f   dsvidcapman.obj
 0002:00061e00       ??8VideoCaptureCapability@@QBE_NABU0@@Z 10063e00 f i dsvidcapman.obj
 0002:00061e50       ??9VideoCaptureCapability@@QBE_NABU0@@Z 10063e50 f i dsvidcapman.obj
 0002:00061ef0       ?ChangeCapStd@CVidCapManDS@@IAEGPBUVideoCaptureCapability@@@Z 10063ef0 f   dsvidcapman.obj
 0002:00063530       ?GetMaxOfFrameArray@@YA_JPA_JJ@Z 10065530 f   dsvidcapman.obj
 0002:000635e0       ?GetFilterCapStdList@CVidCapManDS@@IAEGAAV?$vector@UVideoCaptureCapability@@V?$allocator@UVideoCaptureCapability@@@std@@@std@@@Z 100655e0 f   dsvidcapman.obj
 0002:00064230       ?GetMostMatchCapStd@CVidCapManDS@@IAEHUVideoCaptureCapability@@AAU2@ABV?$vector@UVideoCaptureCapability@@V?$allocator@UVideoCaptureCapability@@@std@@@std@@@Z 10066230 f   dsvidcapman.obj
 0002:000645b0       ?StartCapture@CVidCapManDS@@QAEGXZ 100665b0 f   dsvidcapman.obj
 0002:00064850       ?SetCapObserver@CVidCapManDS@@QAEXPAX@Z 10066850 f   dsvidcapman.obj
 0002:000648c0       ?SetVidComObserver@CaptureSinkFilter@@QAEXPAVCVidCapCom@@@Z 100668c0 f i dsvidcapman.obj
 0002:00064900       ?LostCamera@CVidCapManDS@@QAEGPBV?$basic_string@_WU?$char_traits@_W@std@@V?$allocator@_W@2@@std@@@Z 10066900 f   dsvidcapman.obj
 0002:00064a30       ?SetPicVal@CVidCapManDS@@QAEXW4PictureAdjustType@@IH@Z 10066a30 f   dsvidcapman.obj
 0002:00065110       ?GetPicVal@CVidCapManDS@@QAEXW4PictureAdjustType@@AAIAAH@Z 10067110 f   dsvidcapman.obj
 0002:00065440       ?GetDefPicVal@CVidCapManDS@@QAEXW4PictureAdjustType@@AAI111@Z 10067440 f   dsvidcapman.obj
 0002:00065730       ??0?$Singleton@VCVidCapManDS@@@@QAE@XZ 10067730 f i dsvidcapman.obj
 0002:00065790       ??1?$Singleton@VCVidCapManDS@@@@QAE@XZ 10067790 f i dsvidcapman.obj
 0002:000657d0       ??0?$CAutoComInterfacePtr@UIAMVideoProcAmp@@@@QAE@PAUIAMVideoProcAmp@@@Z 100677d0 f i dsvidcapman.obj
 0002:00065810       ??1?$CAutoComInterfacePtr@UIAMVideoProcAmp@@@@QAE@XZ 10067810 f i dsvidcapman.obj
 0002:00065880       ??I?$CAutoComInterfacePtr@UIAMVideoProcAmp@@@@QAEPAPAUIAMVideoProcAmp@@XZ 10067880 f i dsvidcapman.obj
 0002:000658b0       ??C?$CAutoComInterfacePtr@UIAMVideoProcAmp@@@@QBEPAUIAMVideoProcAmp@@XZ 100678b0 f i dsvidcapman.obj
 0002:000658e0       ?push_back@?$vector@UtagVidCapNameInfo@@V?$allocator@UtagVidCapNameInfo@@@std@@@std@@QAEXABUtagVidCapNameInfo@@@Z 100678e0 f i dsvidcapman.obj
 0002:00065a10       ??0?$CAutoComInterfacePtr@UIEnumMoniker@@@@QAE@PAUIEnumMoniker@@@Z 10067a10 f i dsvidcapman.obj
 0002:00065a50       ??1?$CAutoComInterfacePtr@UIEnumMoniker@@@@QAE@XZ 10067a50 f i dsvidcapman.obj
 0002:00065ac0       ??B?$CAutoComInterfacePtr@UIEnumMoniker@@@@QBEPAUIEnumMoniker@@XZ 10067ac0 f i dsvidcapman.obj
 0002:00065af0       ??I?$CAutoComInterfacePtr@UIEnumMoniker@@@@QAEPAPAUIEnumMoniker@@XZ 10067af0 f i dsvidcapman.obj
 0002:00065b20       ??C?$CAutoComInterfacePtr@UIEnumMoniker@@@@QBEPAUIEnumMoniker@@XZ 10067b20 f i dsvidcapman.obj
 0002:00065b50       ??0?$vector@UVideoCaptureCapability@@V?$allocator@UVideoCaptureCapability@@@std@@@std@@QAE@XZ 10067b50 f i dsvidcapman.obj
 0002:00065ba0       ??1?$vector@UVideoCaptureCapability@@V?$allocator@UVideoCaptureCapability@@@std@@@std@@QAE@XZ 10067ba0 f i dsvidcapman.obj
 0002:00065c20       ?size@?$vector@UVideoCaptureCapability@@V?$allocator@UVideoCaptureCapability@@@std@@@std@@QBEIXZ 10067c20 f i dsvidcapman.obj
 0002:00065c60       ??A?$vector@UVideoCaptureCapability@@V?$allocator@UVideoCaptureCapability@@@std@@@std@@QBEABUVideoCaptureCapability@@I@Z 10067c60 f i dsvidcapman.obj
 0002:00065ca0       ?push_back@?$vector@UVideoCaptureCapability@@V?$allocator@UVideoCaptureCapability@@@std@@@std@@QAEXABUVideoCaptureCapability@@@Z 10067ca0 f i dsvidcapman.obj
 0002:00065dd0       ?clear@?$vector@UVideoCaptureCapability@@V?$allocator@UVideoCaptureCapability@@@std@@@std@@QAEXXZ 10067dd0 f i dsvidcapman.obj
 0002:00065e60       ?_Inside@?$vector@UtagVidCapNameInfo@@V?$allocator@UtagVidCapNameInfo@@@std@@@std@@IBE_NPBUtagVidCapNameInfo@@@Z 10067e60 f i dsvidcapman.obj
 0002:00065ec0       ?_Reserve@?$vector@UtagVidCapNameInfo@@V?$allocator@UtagVidCapNameInfo@@@std@@@std@@IAEXI@Z 10067ec0 f i dsvidcapman.obj
 0002:00065f50       ?_Orphan_range@?$vector@UtagVidCapNameInfo@@V?$allocator@UtagVidCapNameInfo@@@std@@@std@@IBEXPAUtagVidCapNameInfo@@0@Z 10067f50 f i dsvidcapman.obj
 0002:00065f80       ?begin@?$vector@UVideoCaptureCapability@@V?$allocator@UVideoCaptureCapability@@@std@@@std@@QAE?AV?$_Vector_iterator@V?$_Vector_val@UVideoCaptureCapability@@V?$allocator@UVideoCaptureCapability@@@std@@@std@@@2@XZ 10067f80 f i dsvidcapman.obj
 0002:00065fd0       ?end@?$vector@UVideoCaptureCapability@@V?$allocator@UVideoCaptureCapability@@@std@@@std@@QAE?AV?$_Vector_iterator@V?$_Vector_val@UVideoCaptureCapability@@V?$allocator@UVideoCaptureCapability@@@std@@@std@@@2@XZ 10067fd0 f i dsvidcapman.obj
 0002:00066020       ?erase@?$vector@UVideoCaptureCapability@@V?$allocator@UVideoCaptureCapability@@@std@@@std@@QAE?AV?$_Vector_iterator@V?$_Vector_val@UVideoCaptureCapability@@V?$allocator@UVideoCaptureCapability@@@std@@@std@@@2@V?$_Vector_const_iterator@V?$_Vector_val@UVideoCaptureCapability@@V?$allocator@UVideoCaptureCapability@@@std@@@std@@@2@0@Z 10068020 f i dsvidcapman.obj
 0002:00066130       ?_Inside@?$vector@UVideoCaptureCapability@@V?$allocator@UVideoCaptureCapability@@@std@@@std@@IBE_NPBUVideoCaptureCapability@@@Z 10068130 f i dsvidcapman.obj
 0002:00066190       ?_Reserve@?$vector@UVideoCaptureCapability@@V?$allocator@UVideoCaptureCapability@@@std@@@std@@IAEXI@Z 10068190 f i dsvidcapman.obj
 0002:00066220       ?_Tidy@?$vector@UVideoCaptureCapability@@V?$allocator@UVideoCaptureCapability@@@std@@@std@@IAEXXZ 10068220 f i dsvidcapman.obj
 0002:000662d0       ?_Orphan_range@?$vector@UVideoCaptureCapability@@V?$allocator@UVideoCaptureCapability@@@std@@@std@@IBEXPAUVideoCaptureCapability@@0@Z 100682d0 f i dsvidcapman.obj
 0002:00066300       ??0?$_Vector_val@UVideoCaptureCapability@@V?$allocator@UVideoCaptureCapability@@@std@@@std@@QAE@V?$allocator@UVideoCaptureCapability@@@1@@Z 10068300 f i dsvidcapman.obj
 0002:00066370       ??1?$_Vector_val@UVideoCaptureCapability@@V?$allocator@UVideoCaptureCapability@@@std@@@std@@QAE@XZ 10068370 f i dsvidcapman.obj
 0002:000663a0       ??0?$allocator@UVideoCaptureCapability@@@std@@QAE@XZ 100683a0 f i dsvidcapman.obj
 0002:000663d0       ?reserve@?$vector@UtagVidCapNameInfo@@V?$allocator@UtagVidCapNameInfo@@@std@@@std@@QAEXI@Z 100683d0 f i dsvidcapman.obj
 0002:00066550       ?capacity@?$vector@UtagVidCapNameInfo@@V?$allocator@UtagVidCapNameInfo@@@std@@@std@@QBEIXZ 10068550 f i dsvidcapman.obj
 0002:00066590       ?size@?$vector@UtagVidCapNameInfo@@V?$allocator@UtagVidCapNameInfo@@@std@@@std@@QBEIXZ 10068590 f i dsvidcapman.obj
 0002:000665d0       ?max_size@?$vector@UtagVidCapNameInfo@@V?$allocator@UtagVidCapNameInfo@@@std@@@std@@QBEIXZ 100685d0 f i dsvidcapman.obj
 0002:00066620       ?_Grow_to@?$vector@UtagVidCapNameInfo@@V?$allocator@UtagVidCapNameInfo@@@std@@@std@@IBEII@Z 10068620 f i dsvidcapman.obj
 0002:000666b0       ?_Xlen@?$vector@UtagVidCapNameInfo@@V?$allocator@UtagVidCapNameInfo@@@std@@@std@@IBEXXZ 100686b0 f i dsvidcapman.obj
 0002:00066700       ?reserve@?$vector@UVideoCaptureCapability@@V?$allocator@UVideoCaptureCapability@@@std@@@std@@QAEXI@Z 10068700 f i dsvidcapman.obj
 0002:00066880       ?capacity@?$vector@UVideoCaptureCapability@@V?$allocator@UVideoCaptureCapability@@@std@@@std@@QBEIXZ 10068880 f i dsvidcapman.obj
 0002:000668c0       ?_Make_iter@?$vector@UVideoCaptureCapability@@V?$allocator@UVideoCaptureCapability@@@std@@@std@@QBE?AV?$_Vector_iterator@V?$_Vector_val@UVideoCaptureCapability@@V?$allocator@UVideoCaptureCapability@@@std@@@std@@@2@V?$_Vector_const_iterator@V?$_Vector_val@UVideoCaptureCapability@@V?$allocator@UVideoCaptureCapability@@@std@@@std@@@2@@Z 100688c0 f i dsvidcapman.obj
 0002:00066910       ?max_size@?$vector@UVideoCaptureCapability@@V?$allocator@UVideoCaptureCapability@@@std@@@std@@QBEIXZ 10068910 f i dsvidcapman.obj
 0002:00066960       ?_Destroy@?$vector@UVideoCaptureCapability@@V?$allocator@UVideoCaptureCapability@@@std@@@std@@IAEXPAUVideoCaptureCapability@@0@Z 10068960 f i dsvidcapman.obj
 0002:000669b0       ?_Grow_to@?$vector@UVideoCaptureCapability@@V?$allocator@UVideoCaptureCapability@@@std@@@std@@IBEII@Z 100689b0 f i dsvidcapman.obj
 0002:00066a40       ?_Xlen@?$vector@UVideoCaptureCapability@@V?$allocator@UVideoCaptureCapability@@@std@@@std@@IBEXXZ 10068a40 f i dsvidcapman.obj
 0002:00066a90       ??0?$allocator@UVideoCaptureCapability@@@std@@QAE@ABV01@@Z 10068a90 f i dsvidcapman.obj
 0002:00066ac0       ?deallocate@?$allocator@UVideoCaptureCapability@@@std@@QAEXPAUVideoCaptureCapability@@I@Z 10068ac0 f i dsvidcapman.obj
 0002:00066b10       ??0?$_Vector_iterator@V?$_Vector_val@UVideoCaptureCapability@@V?$allocator@UVideoCaptureCapability@@@std@@@std@@@std@@QAE@PAUVideoCaptureCapability@@PBU_Container_base0@1@@Z 10068b10 f i dsvidcapman.obj
 0002:00066b60       ??9?$_Vector_const_iterator@V?$_Vector_val@UVideoCaptureCapability@@V?$allocator@UVideoCaptureCapability@@@std@@@std@@@std@@QBE_NABV01@@Z 10068b60 f i dsvidcapman.obj
 0002:00066bb0       ?allocate@?$allocator@UtagVidCapNameInfo@@@std@@QAEPAUtagVidCapNameInfo@@I@Z 10068bb0 f i dsvidcapman.obj
 0002:00066c00       ?max_size@?$allocator@UtagVidCapNameInfo@@@std@@QBEIXZ 10068c00 f i dsvidcapman.obj
 0002:00066c60       ?allocate@?$allocator@UVideoCaptureCapability@@@std@@QAEPAUVideoCaptureCapability@@I@Z 10068c60 f i dsvidcapman.obj
 0002:00066cb0       ?max_size@?$allocator@UVideoCaptureCapability@@@std@@QBEIXZ 10068cb0 f i dsvidcapman.obj
 0002:00066d10       ??0?$_Vector_const_iterator@V?$_Vector_val@UVideoCaptureCapability@@V?$allocator@UVideoCaptureCapability@@@std@@@std@@@std@@QAE@PAUVideoCaptureCapability@@PBU_Container_base0@1@@Z 10068d10 f i dsvidcapman.obj
 0002:00066d60       ??8?$_Vector_const_iterator@V?$_Vector_val@UVideoCaptureCapability@@V?$allocator@UVideoCaptureCapability@@@std@@@std@@@std@@QBE_NABV01@@Z 10068d60 f i dsvidcapman.obj
 0002:00066dc0       ?_Compat@?$_Vector_const_iterator@V?$_Vector_val@UVideoCaptureCapability@@V?$allocator@UVideoCaptureCapability@@@std@@@std@@@std@@QBEXABV12@@Z 10068dc0 f i dsvidcapman.obj
 0002:00066df0       ??$addressof@$$CBUtagVidCapNameInfo@@@std@@YAPBUtagVidCapNameInfo@@ABU1@@Z 10068df0 f i dsvidcapman.obj
 0002:00066e20       ??$_Cons_val@V?$allocator@UtagVidCapNameInfo@@@std@@UtagVidCapNameInfo@@AAU3@@std@@YAXAAV?$allocator@UtagVidCapNameInfo@@@0@PAUtagVidCapNameInfo@@AAU2@@Z 10068e20 f i dsvidcapman.obj
 0002:00066e70       ??$_Cons_val@V?$allocator@UtagVidCapNameInfo@@@std@@UtagVidCapNameInfo@@ABU3@@std@@YAXAAV?$allocator@UtagVidCapNameInfo@@@0@PAUtagVidCapNameInfo@@ABU2@@Z 10068e70 f i dsvidcapman.obj
 0002:00066ec0       ??$addressof@$$CBUVideoCaptureCapability@@@std@@YAPBUVideoCaptureCapability@@ABU1@@Z 10068ec0 f i dsvidcapman.obj
 0002:00066ef0       ??$_Cons_val@V?$allocator@UVideoCaptureCapability@@@std@@UVideoCaptureCapability@@AAU3@@std@@YAXAAV?$allocator@UVideoCaptureCapability@@@0@PAUVideoCaptureCapability@@AAU2@@Z 10068ef0 f i dsvidcapman.obj
 0002:00066f40       ??$_Cons_val@V?$allocator@UVideoCaptureCapability@@@std@@UVideoCaptureCapability@@ABU3@@std@@YAXAAV?$allocator@UVideoCaptureCapability@@@0@PAUVideoCaptureCapability@@ABU2@@Z 10068f40 f i dsvidcapman.obj
 0002:00066f90       ??$_Move@PAUVideoCaptureCapability@@PAU1@@std@@YAPAUVideoCaptureCapability@@PAU1@00@Z 10068f90 f i dsvidcapman.obj
 0002:00067000       ??$_Umove@PAUtagVidCapNameInfo@@@?$vector@UtagVidCapNameInfo@@V?$allocator@UtagVidCapNameInfo@@@std@@@std@@IAEPAUtagVidCapNameInfo@@PAU2@00@Z 10069000 f i dsvidcapman.obj
 0002:00067060       ??$_Umove@PAUVideoCaptureCapability@@@?$vector@UVideoCaptureCapability@@V?$allocator@UVideoCaptureCapability@@@std@@@std@@IAEPAUVideoCaptureCapability@@PAU2@00@Z 10069060 f i dsvidcapman.obj
 0002:000670c0       ??$_Destroy_range@V?$allocator@UVideoCaptureCapability@@@std@@@std@@YAXPAUVideoCaptureCapability@@0AAV?$allocator@UVideoCaptureCapability@@@0@@Z 100690c0 f i dsvidcapman.obj
 0002:00067130       ??$_Allocate@UtagVidCapNameInfo@@@std@@YAPAUtagVidCapNameInfo@@IPAU1@@Z 10069130 f i dsvidcapman.obj
 0002:000671c0       ??$_Allocate@UVideoCaptureCapability@@@std@@YAPAUVideoCaptureCapability@@IPAU1@@Z 100691c0 f i dsvidcapman.obj
 0002:00067250       ?construct@?$allocator@UtagVidCapNameInfo@@@std@@QAEXPAUtagVidCapNameInfo@@ABU3@@Z 10069250 f i dsvidcapman.obj
 0002:000672a0       ?construct@?$allocator@UVideoCaptureCapability@@@std@@QAEXPAUVideoCaptureCapability@@ABU3@@Z 100692a0 f i dsvidcapman.obj
 0002:000672f0       ??$forward@AAUtagVidCapNameInfo@@@std@@YAAAUtagVidCapNameInfo@@AAU1@@Z 100692f0 f i dsvidcapman.obj
 0002:00067320       ??$construct@AAUtagVidCapNameInfo@@@?$allocator@UtagVidCapNameInfo@@@std@@QAEXPAUtagVidCapNameInfo@@AAU2@@Z 10069320 f i dsvidcapman.obj
 0002:000673f0       ??$forward@ABUtagVidCapNameInfo@@@std@@YAABUtagVidCapNameInfo@@ABU1@@Z 100693f0 f i dsvidcapman.obj
 0002:00067420       ??$forward@AAUVideoCaptureCapability@@@std@@YAAAUVideoCaptureCapability@@AAU1@@Z 10069420 f i dsvidcapman.obj
 0002:00067450       ??$construct@AAUVideoCaptureCapability@@@?$allocator@UVideoCaptureCapability@@@std@@QAEXPAUVideoCaptureCapability@@AAU2@@Z 10069450 f i dsvidcapman.obj
 0002:00067520       ??$forward@ABUVideoCaptureCapability@@@std@@YAABUVideoCaptureCapability@@ABU1@@Z 10069520 f i dsvidcapman.obj
 0002:00067550       ??$_Ptr_cat@UVideoCaptureCapability@@U1@@std@@YA?AU_Nonscalar_ptr_iterator_tag@0@PAUVideoCaptureCapability@@0@Z 10069550 f i dsvidcapman.obj
 0002:000675b0       ??$_Move@PAUVideoCaptureCapability@@PAU1@@std@@YAPAUVideoCaptureCapability@@PAU1@00U_Nonscalar_ptr_iterator_tag@0@@Z 100695b0 f i dsvidcapman.obj
 0002:00067620       ??$_Uninitialized_move@PAUtagVidCapNameInfo@@PAU1@V?$allocator@UtagVidCapNameInfo@@@std@@@std@@YAPAUtagVidCapNameInfo@@PAU1@00AAV?$allocator@UtagVidCapNameInfo@@@0@@Z 10069620 f i dsvidcapman.obj
 0002:000676a0       ??$_Uninitialized_move@PAUVideoCaptureCapability@@PAU1@V?$allocator@UVideoCaptureCapability@@@std@@@std@@YAPAUVideoCaptureCapability@@PAU1@00AAV?$allocator@UVideoCaptureCapability@@@0@@Z 100696a0 f i dsvidcapman.obj
 0002:00067720       ??$_Destroy_range@V?$allocator@UVideoCaptureCapability@@@std@@@std@@YAXPAUVideoCaptureCapability@@0AAV?$allocator@UVideoCaptureCapability@@@0@U_Nonscalar_ptr_iterator_tag@0@@Z 10069720 f i dsvidcapman.obj
 0002:00067780       ??$_Construct@UtagVidCapNameInfo@@ABU1@@std@@YAXPAUtagVidCapNameInfo@@ABU1@@Z 10069780 f i dsvidcapman.obj
 0002:00067850       ??$_Construct@UVideoCaptureCapability@@ABU1@@std@@YAXPAUVideoCaptureCapability@@ABU1@@Z 10069850 f i dsvidcapman.obj
 0002:00067920       ??0tagVidCapNameInfo@@QAE@ABU0@@Z 10069920 f i dsvidcapman.obj
 0002:000679d0       ??$move@AAUVideoCaptureCapability@@@std@@YA$$QAUVideoCaptureCapability@@AAU1@@Z 100699d0 f i dsvidcapman.obj
 0002:00067a00       ??$_Val_type@PAUtagVidCapNameInfo@@@std@@YAPAUtagVidCapNameInfo@@PAU1@@Z 10069a00 f i dsvidcapman.obj
 0002:00067a30       ??$_Uninit_move@PAUtagVidCapNameInfo@@PAU1@V?$allocator@UtagVidCapNameInfo@@@std@@U1@@std@@YAPAUtagVidCapNameInfo@@PAU1@00AAV?$allocator@UtagVidCapNameInfo@@@0@0U_Nonscalar_ptr_iterator_tag@0@@Z 10069a30 f i dsvidcapman.obj
 0002:00067b20       ??$_Val_type@PAUVideoCaptureCapability@@@std@@YAPAUVideoCaptureCapability@@PAU1@@Z 10069b20 f i dsvidcapman.obj
 0002:00067b50       ??$_Uninit_move@PAUVideoCaptureCapability@@PAU1@V?$allocator@UVideoCaptureCapability@@@std@@U1@@std@@YAPAUVideoCaptureCapability@@PAU1@00AAV?$allocator@UVideoCaptureCapability@@@0@0U_Nonscalar_ptr_iterator_tag@0@@Z 10069b50 f i dsvidcapman.obj
 0002:00067c40       ??$_Dest_val@V?$allocator@UVideoCaptureCapability@@@std@@UVideoCaptureCapability@@@std@@YAXAAV?$allocator@UVideoCaptureCapability@@@0@PAUVideoCaptureCapability@@@Z 10069c40 f i dsvidcapman.obj
 0002:00067c80       ?destroy@?$allocator@UVideoCaptureCapability@@@std@@QAEXPAUVideoCaptureCapability@@@Z 10069c80 f i dsvidcapman.obj
 0002:00067cd0       ??$_Cons_val@V?$allocator@UtagVidCapNameInfo@@@std@@UtagVidCapNameInfo@@U3@@std@@YAXAAV?$allocator@UtagVidCapNameInfo@@@0@PAUtagVidCapNameInfo@@$$QAU2@@Z 10069cd0 f i dsvidcapman.obj
 0002:00067d20       ??$_Cons_val@V?$allocator@UVideoCaptureCapability@@@std@@UVideoCaptureCapability@@U3@@std@@YAXAAV?$allocator@UVideoCaptureCapability@@@0@PAUVideoCaptureCapability@@$$QAU2@@Z 10069d20 f i dsvidcapman.obj
 0002:00067d70       ??$_Destroy@UVideoCaptureCapability@@@std@@YAXPAUVideoCaptureCapability@@@Z 10069d70 f i dsvidcapman.obj
 0002:00067da0       ?construct@?$allocator@UtagVidCapNameInfo@@@std@@QAEXPAUtagVidCapNameInfo@@$$QAU3@@Z 10069da0 f i dsvidcapman.obj
 0002:00067e70       ?construct@?$allocator@UVideoCaptureCapability@@@std@@QAEXPAUVideoCaptureCapability@@$$QAU3@@Z 10069e70 f i dsvidcapman.obj
 0002:00067f40       ??$forward@UtagVidCapNameInfo@@@std@@YA$$QAUtagVidCapNameInfo@@AAU1@@Z 10069f40 f i dsvidcapman.obj
 0002:00067f70       ??$forward@UVideoCaptureCapability@@@std@@YA$$QAUVideoCaptureCapability@@AAU1@@Z 10069f70 f i dsvidcapman.obj
 0002:00067fa0       ?BmpZoomOut@CImagetools@@QAEHPAUtagScaleParam@@IPAE1@Z 10069fa0 f   imagetools.obj
 0002:00068d60       ??0CImagetools@@QAE@XZ     1006ad60 f   imagetools.obj
 0002:00068df0       ??1CImagetools@@QAE@XZ     1006adf0 f   imagetools.obj
 0002:00068ea0       ?BmpLogoSetting@CImagetools@@QAEHPAUTFullLogoParam@@II@Z 1006aea0 f   imagetools.obj
 0002:00069da0       ?DrawLogoI420@CImagetools@@QAEXPAEII@Z 1006bda0 f   imagetools.obj
 0002:0006a220       ?UnInitKdvImgFunc@@YAXXZ   1006c220 f   imgunit.obj
 0002:0006a280       ?Destroy@CVidScalerImgunit@@QAEGXZ 1006c280 f   imgunit.obj
 0002:0006a330       ?Process@CVidScalerImgunit@@QAEGAAUtagScalerInOutParam@@0@Z 1006c330 f   imgunit.obj
 0002:0006a520       ?SetParam@CVidScalerImgunit@@QAEGABUtagScaleParam@@@Z 1006c520 f   imgunit.obj
 0002:0006a8a0       ??0CVidScalerImgunit@@QAE@XZ 1006c8a0 f   imgunit.obj
 0002:0006ac90       ??1CVidScalerImgunit@@QAE@XZ 1006cc90 f   imgunit.obj
 0002:0006acd0       ?MergeZoom@CVidScalerImgunit@@QAEHPAEHHH0HHHW4TPicZoomStyle@@@Z 1006ccd0 f   imgunit.obj
 0002:0006b240       ??0CKdvVideoOut@@QAE@XZ    1006d240 f   kdvvideoout.obj
 0002:0006b420       ??_GCKdvVideoOut@@UAEPAXI@Z 1006d420 f i kdvvideoout.obj
 0002:0006b420       ??_ECKdvVideoOut@@UAEPAXI@Z 1006d420 f i kdvvideoout.obj
 0002:0006b480       ??1CKdvVideoOut@@UAE@XZ    1006d480 f   kdvvideoout.obj
 0002:0006b5c0       ?SetRatio@CKdvVideoOut@@QAEHPAUTEncoderRef@@PAUTEncoderStatus@@HHH@Z 1006d5c0 f   kdvvideoout.obj
 0002:0006ba00       ?SetRatio@CKdvVideoOut@@QAEHPAUTDecoderRef@@PAUTDecoderStatus@@HHH@Z 1006da00 f   kdvvideoout.obj
 0002:0006be40       ?DrawDec@CKdvVideoOut@@QAEHPAEH@Z 1006de40 f   kdvvideoout.obj
 0002:0006c020       ?DrawEnc@CKdvVideoOut@@QAEHPAEH@Z 1006e020 f   kdvvideoout.obj
 0002:0006c1d0       ?ClearWindow@CKdvVideoOut@@QAEHXZ 1006e1d0 f   kdvvideoout.obj
 0002:0006c430       ?ClearWindowEx@CKdvVideoOut@@QAEHXZ 1006e430 f   kdvvideoout.obj
 0002:0006c570       ?SetPlayHwnd@CKdvVideoOut@@QAEHPAUHWND__@@H@Z 1006e570 f   kdvvideoout.obj
 0002:0006c6a0       ?SetDrawCallBack@CKdvVideoOut@@QAEHP6AXPAUHDC__@@I@ZI@Z 1006e6a0 f   kdvvideoout.obj
 0002:0006c840       ?SetVidDrawDecZoomPolicy@CKdvVideoOut@@QAEHW4TPicZoomStyle@@@Z 1006e840 f   kdvvideoout.obj
 0002:0006c9e0       ?GetPlayWindow@CKdvVideoOut@@QAEHAAPAUHWND__@@@Z 1006e9e0 f   kdvvideoout.obj
 0002:0006ca80       ?SetDrawMode@CKdvVideoOut@@QAEHW4emDrawMode@@@Z 1006ea80 f   kdvvideoout.obj
 0002:0006cc80       ?GetDrawMode@CKdvVideoOut@@QAEHAAW4emDrawMode@@@Z 1006ec80 f   kdvvideoout.obj
 0002:0006cdb0       ?GetDrawMode@CDShowDraw@@QAEXAAW4emDrawMode@@@Z 1006edb0 f i kdvvideoout.obj
 0002:0006ce20       ?OpenDecFile@CVidDecWrapper@@QAEHH@Z 1006ee20 f   viddecoderwrapper.obj
 0002:0006d180       ?ReadDecFile@CVidDecWrapper@@QAEHPAUtagFrameHdr@@@Z 1006f180 f   viddecoderwrapper.obj
 0002:0006d300       ?SocketThreadProc@@YAXPAUtagFrameHdr@@I@Z 1006f300 f   viddecoderwrapper.obj
 0002:0006d5e0       ??0CVidDecWrapper@@QAE@PAUTDecoderRef@@PAUTDecoderStatus@@@Z 1006f5e0 f   viddecoderwrapper.obj
 0002:0006d990       ??0CRecordPakge@@QAE@XZ    1006f990 f i viddecoderwrapper.obj
 0002:0006da20       ??_ECVidDecWrapper@@UAEPAXI@Z 1006fa20 f i viddecoderwrapper.obj
 0002:0006da20       ??_GCVidDecWrapper@@UAEPAXI@Z 1006fa20 f i viddecoderwrapper.obj
 0002:0006da80       ??1CVidDecWrapper@@UAE@XZ  1006fa80 f   viddecoderwrapper.obj
 0002:0006db80       ?InitVidDecWrapper@CVidDecWrapper@@QAEGXZ 1006fb80 f   viddecoderwrapper.obj
 0002:0006df50       ?DestroyWrap@CVidDecWrapper@@QAEXXZ 1006ff50 f   viddecoderwrapper.obj
 0002:0006e120       ?SetOnlyKeyFrame@CVidDecWrapper@@QAEXH@Z 10070120 f   viddecoderwrapper.obj
 0002:0006e260       ?SetWaitKeyFrame@CVidDecWrapper@@QAEXH@Z 10070260 f   viddecoderwrapper.obj
 0002:0006e380       ?RealTaskProcess@CVidDecWrapper@@UAEXI@Z 10070380 f   viddecoderwrapper.obj
 0002:0006f920       ?GetStreamState@CAsfRecoder@@QAEGAAH0@Z 10071920 f i viddecoderwrapper.obj
 0002:0006f970       ?SetData@CVidDecWrapper@@QAEXPAUtagVidDataStream@@@Z 10071970 f   viddecoderwrapper.obj
 0002:0006fc20       ?SetPlayWnd@CVidDecWrapper@@QAEXPAXH@Z 10071c20 f   viddecoderwrapper.obj
 0002:0006fd60       ?StartDec@CVidDecWrapper@@QAEXH@Z 10071d60 f   viddecoderwrapper.obj
 0002:0006fe60       ?DecodeJudge@CVidDecWrapper@@IAEHPAUtagVidDataStream@@@Z 10071e60 f   viddecoderwrapper.obj
 0002:0006ff90       ?SetVideoDecI420CallBack@CVidDecWrapper@@QAEHP6AXPAEHFFI@ZI@Z 10071f90 f   viddecoderwrapper.obj
 0002:00070010       ?SetDrawCallBack@CVidDecWrapper@@QAEHP6AXPAUHDC__@@I@ZI@Z 10072010 f   viddecoderwrapper.obj
 0002:000700a0       ?SetReqKeyFrameCB@CVidDecWrapper@@QAEHP6AXHI@ZI@Z 100720a0 f   viddecoderwrapper.obj
 0002:00070120       ?SetVideoActivePT@CVidDecWrapper@@QAEHEE@Z 10072120 f   viddecoderwrapper.obj
 0002:00070230       ?SetVideoActivePT@CVidDecWrapper@@QAEHUtagMapSet@@@Z 10072230 f   viddecoderwrapper.obj
 0002:00070360       ?SetDecryptKey@CVidDecWrapper@@QAEHPADGE@Z 10072360 f   viddecoderwrapper.obj
 0002:000704e0       ?StartRcvVideo@CVidDecWrapper@@QAEHXZ 100724e0 f   viddecoderwrapper.obj
 0002:00070600       ?StopRcvVideo@CVidDecWrapper@@QAEHXZ 10072600 f   viddecoderwrapper.obj
 0002:000707a0       ?SetNetFeedbackVideoParam@CVidDecWrapper@@QAEHH@Z 100727a0 f   viddecoderwrapper.obj
 0002:000708a0       ?StartDraw@CVidDecWrapper@@QAEHH@Z 100728a0 f   viddecoderwrapper.obj
 0002:00070990       ?StartHwDec@CVidDecWrapper@@QAEHH@Z 10072990 f   viddecoderwrapper.obj
 0002:00070a50       ?CalcDecThreadCpu@CVidDecWrapper@@QAEXH@Z 10072a50 f   viddecoderwrapper.obj
 0002:00070ba0       ?CalcRecvThreadCpu@CVidDecWrapper@@QAEXH@Z 10072ba0 f   viddecoderwrapper.obj
 0002:00070cf0       ?SetVideoRcvAddress@CVidDecWrapper@@QAEHPBUtagMnetNetParam@@@Z 10072cf0 f   viddecoderwrapper.obj
 0002:00070f70       ?RemoveVideoNetRcvLocalParam@CVidDecWrapper@@QAEHXZ 10072f70 f   viddecoderwrapper.obj
 0002:00071060       ?ResetBwe@CVidDecWrapper@@QAEHH@Z 10073060 f   viddecoderwrapper.obj
 0002:00071160       ?SetMaxDelay@CVidDecWrapper@@QAEHEII@Z 10073160 f   viddecoderwrapper.obj
 0002:00071260       ?SetVideoRcvId@CVidDecWrapper@@QAEHPBDII@Z 10073260 f   viddecoderwrapper.obj
 0002:00071360       ?GetVideoRcvId@CVidDecWrapper@@QAEHPADPAI1@Z 10073360 f   viddecoderwrapper.obj
 0002:00071460       ?VideoRcvEnableKeepAlive@CVidDecWrapper@@QAEHHPBUtagMnetNetParam@@@Z 10073460 f   viddecoderwrapper.obj
 0002:000715b0       ?SetVideoRtcpStatus@CVidDecWrapper@@QAEHW4RTCPSTATUS@@@Z 100735b0 f   viddecoderwrapper.obj
 0002:000716a0       ?ClearWindow@CVidDecWrapper@@QAEGXZ 100736a0 f   viddecoderwrapper.obj
 0002:00071710       ?SaveAsPic@CVidDecWrapper@@QAEGPB_WE@Z 10073710 f   viddecoderwrapper.obj
 0002:00071860       ?GetVidDecoderStatis@CVidDecWrapper@@QAEGAAUKdvDecStatis@@@Z 10073860 f   viddecoderwrapper.obj
 0002:00071ce0       ?PrintStatis@CVidDecWrapper@@QAEXXZ 10073ce0 f   viddecoderwrapper.obj
 0002:000729f0       ?GetPakgeCount@CRecordPakge@@QAEIXZ 100749f0 f i viddecoderwrapper.obj
 0002:00072a20       ?PrintStatus@CVidDecWrapper@@QAEXXZ 10074a20 f   viddecoderwrapper.obj
 0002:00073010       ?SetVidFecEnable@CVidDecWrapper@@QAEHH@Z 10075010 f   viddecoderwrapper.obj
 0002:00073130       ?SetVidDrawDecZoomPolicy@CVidDecWrapper@@QAEHW4enZoomMode@@@Z 10075130 f   viddecoderwrapper.obj
 0002:00073260       ?GetDrawMode@CVidDecWrapper@@QAEHAAW4emDrawMode@@@Z 10075260 f   viddecoderwrapper.obj
 0002:000733b0       ?SetDrawMode@CVidDecWrapper@@QAEHW4emDrawMode@@@Z 100753b0 f   viddecoderwrapper.obj
 0002:00073490       ?SetEnableCrypt@CVidDecWrapper@@QAEHHPATTMnetCryptCfg@@@Z 10075490 f   viddecoderwrapper.obj
 0002:00073590       ?SetMnetCryptCfgInit@CVidDecWrapper@@QAEHPATTMnetCryptCfg@@H@Z 10075590 f   viddecoderwrapper.obj
 0002:000735f0       ?SetMnetCryptCfgSetCipherAlgorithm@CVidDecWrapper@@QAEHPATTMnetCryptCfg@@W4TMnetCryptDataType@@W4TMnetCryptAlgoType@@@Z 100755f0 f   viddecoderwrapper.obj
 0002:00073650       ?SetMnetCryptCfgSetAuthAlgorithm@CVidDecWrapper@@QAEHPATTMnetCryptCfg@@W4TMnetCryptDataType@@W4TMnetCryptAlgoType@@@Z 10075650 f   viddecoderwrapper.obj
 0002:000736b0       ?SetMnetCryptCfgSetMasterKey@CVidDecWrapper@@QAEHPATTMnetCryptCfg@@W4TMnetCryptDataType@@W4TMnetCryptKeyType@@GPAEW4TMnetCrypKeyLen@@4@Z 100756b0 f   viddecoderwrapper.obj
 0002:00073720       ?SetMnetCryptCfgSetCipherKey@CVidDecWrapper@@QAEHPATTMnetCryptCfg@@W4TMnetCryptDataType@@GPAE@Z 10075720 f   viddecoderwrapper.obj
 0002:00073780       ?SetMnetCryptCfgSetAuthKey@CVidDecWrapper@@QAEHPATTMnetCryptCfg@@W4TMnetCryptDataType@@GPAE@Z 10075780 f   viddecoderwrapper.obj
 0002:000737e0       ?SetMnetCryptCfgSetPkt@CVidDecWrapper@@QAEHPATTMnetCryptCfg@@W4TMnetCryptDataType@@W4TMnetCryptPktType@@@Z 100757e0 f   viddecoderwrapper.obj
 0002:00073840       ?SetMnetCryptCfgSetAuthTag@CVidDecWrapper@@QAEHPATTMnetCryptCfg@@W4TMnetCryptDataType@@W4TMnetCryptTagLen@@@Z 10075840 f   viddecoderwrapper.obj
 0002:000738a0       ??_ECVidDecWrapper@@WBA@AEPAXI@Z 100758a0 f i viddecoderwrapper.obj
 0002:000738b0       ?DequeData@CDataListExt@@QAEPAXH@Z 100758b0 f   videncoderwrapper.obj
 0002:00073a00       ?QueFreeData@CDataListExt@@QAEXPAX@Z 10075a00 f   videncoderwrapper.obj
 0002:00073af0       ?DeQueFullData@CDataListExt@@QAEPAXXZ 10075af0 f   videncoderwrapper.obj
 0002:00073c00       ?QueFullData@CDataListExt@@QAEXPAX@Z 10075c00 f   videncoderwrapper.obj
 0002:00073cf0       ?ClearAll@CDataListExt@@QAEXXZ 10075cf0 f   videncoderwrapper.obj
 0002:00073df0       ??0CVidEncWrapper@@QAE@PAUTEncoderRef@@PAUTEncoderStatus@@@Z 10075df0 f   videncoderwrapper.obj
 0002:00074220       ??0CDataListExt@@QAE@XZ    10076220 f i videncoderwrapper.obj
 0002:00074300       ??1CDataListExt@@UAE@XZ    10076300 f i videncoderwrapper.obj
 0002:000743b0       ??_GCDataListExt@@UAEPAXI@Z 100763b0 f i videncoderwrapper.obj
 0002:000743b0       ??_ECDataListExt@@UAEPAXI@Z 100763b0 f i videncoderwrapper.obj
 0002:00074410       ??_ECVidEncWrapper@@UAEPAXI@Z 10076410 f i videncoderwrapper.obj
 0002:00074410       ??_GCVidEncWrapper@@UAEPAXI@Z 10076410 f i videncoderwrapper.obj
 0002:00074470       ??1CVidEncWrapper@@UAE@XZ  10076470 f   videncoderwrapper.obj
 0002:000745a0       ?InitVidEncWrapper@CVidEncWrapper@@QAEGW4em_VidCap_type@@@Z 100765a0 f   videncoderwrapper.obj
 0002:00074a30       ?DestroyWrap@CVidEncWrapper@@QAEGXZ 10076a30 f   videncoderwrapper.obj
 0002:00074e10       ?RealTaskProcess@CVidEncWrapper@@UAEXI@Z 10076e10 f   videncoderwrapper.obj
 0002:00075df0       ?RecvCapData@CVidEncWrapper@@UAEGPAUtagVidDataRaw@@@Z 10077df0 f   videncoderwrapper.obj
 0002:00076300       ?ProcessCapDataToI420@CVidEncWrapper@@IAEGPAUtagVidDataRaw@@0@Z 10078300 f   videncoderwrapper.obj
 0002:000765d0       ?InitMjpegDecoder@CVidEncWrapper@@IAEHII@Z 100785d0 f   videncoderwrapper.obj
 0002:00076df0       ?SetPlayWnd@CVidEncWrapper@@QAEXPAX@Z 10078df0 f   videncoderwrapper.obj
 0002:00076eb0       ?SetDrawMode@CVidEncWrapper@@QAEHW4emDrawMode@@@Z 10078eb0 f   videncoderwrapper.obj
 0002:00076f80       ?GetDrawMode@CVidEncWrapper@@QAEHAAW4emDrawMode@@@Z 10078f80 f   videncoderwrapper.obj
 0002:00077020       ?StartEnc@CVidEncWrapper@@QAEXH@Z 10079020 f   videncoderwrapper.obj
 0002:000770c0       ?StartCap@CVidEncWrapper@@QAEGH@Z 100790c0 f   videncoderwrapper.obj
 0002:00077260       ?StartDraw@CVidEncWrapper@@QAEHH@Z 10079260 f   videncoderwrapper.obj
 0002:00077330       ?StartHwEnc@CVidEncWrapper@@QAEHH@Z 10079330 f   videncoderwrapper.obj
 0002:00077420       ?CalcEncThreadCpu@CVidEncWrapper@@QAEXH@Z 10079420 f   videncoderwrapper.obj
 0002:00077570       ?CalcCapThreadCpu@CVidEncWrapper@@QAEXH@Z 10079570 f   videncoderwrapper.obj
 0002:000776c0       ?OpenEncFile@CVidEncWrapper@@QAEHH@Z 100796c0 f   videncoderwrapper.obj
 0002:00077a20       ?ReadEncFile@CVidEncWrapper@@QAEHPAUtagFrameHdr@@@Z 10079a20 f   videncoderwrapper.obj
 0002:00077ba0       ?CreateNetSnd@CVidEncWrapper@@QAEHEI@Z 10079ba0 f   videncoderwrapper.obj
 0002:000781f0       ?SetNetSndBand@CVidEncWrapper@@QAEHI@Z 1007a1f0 f   videncoderwrapper.obj
 0002:00078480       ?SetNetFeedbackVideoParam@CVidEncWrapper@@QAEHGH@Z 1007a480 f   videncoderwrapper.obj
 0002:00078660       ?SetNetSndVideoParam@CVidEncWrapper@@QAEHPBUtagMnetNetParam@@H@Z 1007a660 f   videncoderwrapper.obj
 0002:00078ab0       ?RemoveVideoNetSndLocalParam@CVidEncWrapper@@QAEHXZ 1007aab0 f   videncoderwrapper.obj
 0002:00078cf0       ?SetVideoSendId@CVidEncWrapper@@QAEHPBDII@Z 1007acf0 f   videncoderwrapper.obj
 0002:00078eb0       ?GetVideoSendId@CVidEncWrapper@@QAEHPADPAI1@Z 1007aeb0 f   videncoderwrapper.obj
 0002:00079060       ?VideoSendEnableKeepAlive@CVidEncWrapper@@QAEHHPBUtagMnetNetParam@@@Z 1007b060 f   videncoderwrapper.obj
 0002:00079270       ?VideoEnableRtpExStrip@CVidEncWrapper@@QAEHH@Z 1007b270 f   videncoderwrapper.obj
 0002:00079420       ?SetVideoRtcpStatus@CVidEncWrapper@@QAEHW4RTCPSTATUS@@@Z 1007b420 f   videncoderwrapper.obj
 0002:000795d0       ?SetVideoActivePT@CVidEncWrapper@@QAEGEE@Z 1007b5d0 f   videncoderwrapper.obj
 0002:000797a0       ?SetVidEncryptKey@CVidEncWrapper@@QAEHPADGE@Z 1007b7a0 f   videncoderwrapper.obj
 0002:000799f0       ?SetVidFecEnable@CVidEncWrapper@@QAEHH@Z 1007b9f0 f   videncoderwrapper.obj
 0002:00079bf0       ?SetVidFecPackLen@CVidEncWrapper@@QAEHG@Z 1007bbf0 f   videncoderwrapper.obj
 0002:00079c30       ?SetVidFecIntraFrame@CVidEncWrapper@@QAEHH@Z 1007bc30 f   videncoderwrapper.obj
 0002:00079c70       ?SetVidFecMode@CVidEncWrapper@@QAEHE@Z 1007bc70 f   videncoderwrapper.obj
 0002:00079cb0       ?SetVidFecXY@CVidEncWrapper@@QAEHHH@Z 1007bcb0 f   videncoderwrapper.obj
 0002:00079cf0       ?StartSendVideo@CVidEncWrapper@@QAEHI@Z 1007bcf0 f   videncoderwrapper.obj
 0002:00079ea0       ?StopSendVideo@CVidEncWrapper@@QAEHXZ 1007bea0 f   videncoderwrapper.obj
 0002:00079f80       ?SetVideoEncParam@CVidEncWrapper@@UAEGAAUVideoEncParam@@@Z 1007bf80 f   videncoderwrapper.obj
 0002:0007a0a0       ?FilterImage@CVidEncWrapper@@IAEPAEPAEII@Z 1007c0a0 f   videncoderwrapper.obj
 0002:0007a7c0       ?SetStatic@CVidEncWrapper@@QAEGHHPA_WH@Z 1007c7c0 f   videncoderwrapper.obj
 0002:0007a8d0       ?SaveAsPic@CVidEncWrapper@@QAEGPB_WE@Z 1007c8d0 f   videncoderwrapper.obj
 0002:0007aa40       ?GetBweStatus@CVidEncWrapper@@QAEHPAIPAUTBweReceiver@@0@Z 1007ca40 f   videncoderwrapper.obj
 0002:0007ac20       ?ResetBwe@CVidEncWrapper@@QAEHHIII@Z 1007cc20 f   videncoderwrapper.obj
 0002:0007ae00       ?PrintStatis@CVidEncWrapper@@QAEXXZ 1007ce00 f   videncoderwrapper.obj
 0002:0007b110       ?PrintStatus@CVidEncWrapper@@QAEXXZ 1007d110 f   videncoderwrapper.obj
 0002:0007bff0       ?FrameAdjust@CVidEncWrapper@@IAEHII@Z 1007dff0 f   videncoderwrapper.obj
 0002:0007c1c0       ?SetVidCapToEncZoomPolicy@CVidEncWrapper@@QAEGW4enZoomMode@@@Z 1007e1c0 f   videncoderwrapper.obj
 0002:0007c240       ?SetVidCapToEncZoomPolicy@CKdvVidEncCodec@@QAEXW4TPicZoomStyle@@@Z 1007e240 f i videncoderwrapper.obj
 0002:0007c280       ?SetEnableCrypt@CVidEncWrapper@@QAEHHPATTMnetCryptCfg@@@Z 1007e280 f   videncoderwrapper.obj
 0002:0007c3e0       ?SetMnetCryptCfgInit@CVidEncWrapper@@QAEHPATTMnetCryptCfg@@H@Z 1007e3e0 f   videncoderwrapper.obj
 0002:0007c440       ?SetMnetCryptCfgSetCipherAlgorithm@CVidEncWrapper@@QAEHPATTMnetCryptCfg@@W4TMnetCryptDataType@@W4TMnetCryptAlgoType@@@Z 1007e440 f   videncoderwrapper.obj
 0002:0007c4a0       ?SetMnetCryptCfgSetAuthAlgorithm@CVidEncWrapper@@QAEHPATTMnetCryptCfg@@W4TMnetCryptDataType@@W4TMnetCryptAlgoType@@@Z 1007e4a0 f   videncoderwrapper.obj
 0002:0007c500       ?SetMnetCryptCfgSetMasterKey@CVidEncWrapper@@QAEHPATTMnetCryptCfg@@W4TMnetCryptDataType@@W4TMnetCryptKeyType@@GPAEW4TMnetCrypKeyLen@@4@Z 1007e500 f   videncoderwrapper.obj
 0002:0007c570       ?SetMnetCryptCfgSetCipherKey@CVidEncWrapper@@QAEHPATTMnetCryptCfg@@W4TMnetCryptDataType@@GPAE@Z 1007e570 f   videncoderwrapper.obj
 0002:0007c5d0       ?SetMnetCryptCfgSetAuthKey@CVidEncWrapper@@QAEHPATTMnetCryptCfg@@W4TMnetCryptDataType@@GPAE@Z 1007e5d0 f   videncoderwrapper.obj
 0002:0007c630       ?SetMnetCryptCfgSetPkt@CVidEncWrapper@@QAEHPATTMnetCryptCfg@@W4TMnetCryptDataType@@W4TMnetCryptPktType@@@Z 1007e630 f   videncoderwrapper.obj
 0002:0007c690       ?SetMnetCryptCfgSetAuthTag@CVidEncWrapper@@QAEHPATTMnetCryptCfg@@W4TMnetCryptDataType@@W4TMnetCryptTagLen@@@Z 1007e690 f   videncoderwrapper.obj
 0002:0007c6f0       ?GetVidTransportOverhead@CVidEncWrapper@@QAEGPAE@Z 1007e6f0 f   videncoderwrapper.obj
 0002:0007c820       ?GetVidSndStatus@CVidEncWrapper@@QAEGAAUtagKdvSndStatus@@@Z 1007e820 f   videncoderwrapper.obj
 0002:0007c930       ?GetVidSndStatis@CVidEncWrapper@@QAEGAAUtagKdvSndStatistics@@@Z 1007e930 f   videncoderwrapper.obj
 0002:0007ca60       ?EnableSingleSlice@CVidEncWrapper@@QAEHH@Z 1007ea60 f   videncoderwrapper.obj
 0002:0007cab0       ?GetSingleSliceStatus@CVidEncWrapper@@QAEXAAH@Z 1007eab0 f   videncoderwrapper.obj
 0002:0007caf0       ?GetVidCapParam@CVidEncWrapper@@QAEXAAI0@Z 1007eaf0 f   videncoderwrapper.obj
 0002:0007cb40       ?SetVideoCapStdCallBack@CVidEncWrapper@@QAEGP6AXIII@ZI@Z 1007eb40 f   videncoderwrapper.obj
 0002:0007cbf0       ?SetCapYuvDetectCB@CVidEncWrapper@@QAEGP6AXHI@ZI@Z 1007ebf0 f   videncoderwrapper.obj
 0002:0007cca0       ?GetCapYuvDetectStatus@CVidEncWrapper@@QAEGPAEIIAAH@Z 1007eca0 f   videncoderwrapper.obj
 0002:0007cdc0       ?SetDeskShareFramerate@CVidEncWrapper@@QAEGI@Z 1007edc0 f   videncoderwrapper.obj
 0002:0007ce50       ?SetVidDeskSharedCallBack@CVidEncWrapper@@QAEGP6AXPAXI@ZI@Z 1007ee50 f   videncoderwrapper.obj
 0002:0007cf00       ?GetDeskShareLibVersion@CVidEncWrapper@@QAEGPAD@Z 1007ef00 f   videncoderwrapper.obj
 0002:0007cf60       ?SelectCaptureScreen@CVidEncWrapper@@QAEGIH@Z 1007ef60 f   videncoderwrapper.obj
 0002:0007cfc0       ?EnableCpuAdjust@CVidEncWrapper@@QAEGH@Z 1007efc0 f   videncoderwrapper.obj
 0002:0007d000       ?GetCpuAdjustStatus@CVidEncWrapper@@QAEGAAH@Z 1007f000 f   videncoderwrapper.obj
 0002:0007d040       ??_ECVidEncWrapper@@WLNE@AEPAXI@Z 1007f040 f i videncoderwrapper.obj
 0002:0007d050       ??_ECVidEncWrapper@@WLCI@AEPAXI@Z 1007f050 f i videncoderwrapper.obj
 0002:0007d060       ??0CVidCapCom@@QAE@XZ      1007f060 f   videocap.obj
 0002:0007d200       ?RecvCapData@CVidCapCom@@UAEGPAUtagVidDataRaw@@@Z 1007f200 f i videocap.obj
 0002:0007d230       ??_ECVidCapCom@@UAEPAXI@Z  1007f230 f i videocap.obj
 0002:0007d230       ??_GCVidCapCom@@UAEPAXI@Z  1007f230 f i videocap.obj
 0002:0007d290       ??1CVidCapCom@@UAE@XZ      1007f290 f   videocap.obj
 0002:0007d340       ?InitCapType@CVidCapCom@@QAEGW4em_VidCap_type@@@Z 1007f340 f   videocap.obj
 0002:0007d580       ?DestoryCap@CVidCapCom@@QAEIXZ 1007f580 f   videocap.obj
 0002:0007d790       ?SetDeskDrawHwnd@CVidCapCom@@QAEGPAUHWND__@@@Z 1007f790 f   videocap.obj
 0002:0007d7e0       ?SelectSource@CVidCapCom@@QAEGPB_W0PAUVideoCaptureCapability@@@Z 1007f7e0 f   videocap.obj
 0002:0007dca0       ?GetCapMatchCapability@CVidCapManDS@@QAEXAAUVideoCaptureCapability@@@Z 1007fca0 f i videocap.obj
 0002:0007dce0       ?GetCurVidCapDev@CVidCapCom@@QAEGAAUtagVidCapNameInfo@@@Z 1007fce0 f   videocap.obj
 0002:0007dd40       ?StartCapture@CVidCapCom@@QAEGH@Z 1007fd40 f   videocap.obj
 0002:0007e060       ?CaptureDesktop@CVidCapCom@@QAEHXZ 10080060 f   videocap.obj
 0002:0007f3c0       ?CBVideoProc@CVidCapCom@@SAXPAEHHHPAXH@Z 100813c0 f   videocap.obj
 0002:0007f670       ?SetDeskSharedFramerates@CVidCapCom@@QAEGI@Z 10081670 f   videocap.obj
 0002:0007f6e0       ?GetDeskSharedLibVers@CVidCapCom@@QAEGPAD@Z 100816e0 f   videocap.obj
 0002:0007f780       ?SelectCaptureScreenNum@CVidCapCom@@QAEGIH@Z 10081780 f   videocap.obj
 0002:0007fa70       ?IsMainVidDecoder@@YAHPAVCVidDecWrapper@@@Z 10081a70 f   videocommand.obj
 0002:0007fad0       ?GetVidEncoderIndex@@YAHPAVCVidEncWrapper@@@Z 10081ad0 f   videocommand.obj
 0002:0007fbb0       ?GetVidDecoderIndex@@YAHPAVCVidDecWrapper@@@Z 10081bb0 f   videocommand.obj
 0002:0007fc90       _RegisVidEncoder           10081c90 f   videocommand.obj
 0002:0007fce0       _UnRegisVidEncoder         10081ce0 f   videocommand.obj
 0002:0007fdd0       _RegisVidDecoder           10081dd0 f   videocommand.obj
 0002:0007fe20       _UnRegisVidDecoder         10081e20 f   videocommand.obj
 0002:0007ff10       _cpustatus                 10081f10 f   videocommand.obj
 0002:00080000       _vidthreadid               10082000 f   videocommand.obj
 0002:00080280       ?GetThreadId@CVidEncWrapper@@QAEXAAI0@Z 10082280 f i videocommand.obj
 0002:000802d0       ?GetThreadId@CVidDecWrapper@@QAEXAAI0@Z 100822d0 f i videocommand.obj
 0002:00080320       _threadid                  10082320 f   videocommand.obj
 0002:00080360       _vidthreadcpu              10082360 f   videocommand.obj
 0002:00080440       ?StartCalcThreadCpu@CVidEncWrapper@@QAEXH@Z 10082440 f i videocommand.obj
 0002:00080480       ?StartCalcThreadCpu@CVidDecWrapper@@QAEXH@Z 10082480 f i videocommand.obj
 0002:000804c0       _threadcpu                 100824c0 f   videocommand.obj
 0002:00080510       _setconfigpath             10082510 f   videocommand.obj
 0002:00080600       _setprt                    10082600 f   videocommand.obj
 0002:000806a0       _setptlevel                100826a0 f   videocommand.obj
 0002:00080750       _initmediasdk              10082750 f   videocommand.obj
 0002:000807c0       _initgloble                100827c0 f   videocommand.obj
 0002:00080890       _unitglobe                 10082890 f   videocommand.obj
 0002:000808f0       _venchelp                  100828f0 f   videocommand.obj
 0002:000811a0       _vdechelp                  100831a0 f   videocommand.obj
 0002:00081690       _logonhelp                 10083690 f   videocommand.obj
 0002:00081c50       _codechelp                 10083c50 f   videocommand.obj
 0002:00081e30       _createviddecwrapper       10083e30 f   videocommand.obj
 0002:00081fc0       _destoryviddecwrapper      10083fc0 f   videocommand.obj
 0002:000820f0       _startviddec               100840f0 f   videocommand.obj
 0002:000821a0       _starthwdec                100841a0 f   videocommand.obj
 0002:00082250       _startdecdraw              10084250 f   videocommand.obj
 0002:00082300       _savevdec                  10084300 f   videocommand.obj
 0002:00082480       _opendecfile               10084480 f   videocommand.obj
 0002:00082570       _setvdecplaywnd            10084570 f   videocommand.obj
 0002:00082620       _clearwnd                  10084620 f   videocommand.obj
 0002:000826d0       _waitkeyframe              100846d0 f   videocommand.obj
 0002:00082780       _setonlykeyframe           10084780 f   videocommand.obj
 0002:00082830       _vdecsnapshot              10084830 f   videocommand.obj
 0002:00082a10       ?swprintf@@YAHPA_WPB_WZZ   10084a10 f i videocommand.obj
 0002:00082a80       _setvidrecvparam           10084a80 f   videocommand.obj
 0002:00082fd0       _setvidrecvpayload         10084fd0 f   videocommand.obj
 0002:00083080       _setviddecfecenable        10085080 f   videocommand.obj
 0002:00083170       _setdeczoom                10085170 f   videocommand.obj
 0002:00083260       _startvidrecv              10085260 f   videocommand.obj
 0002:00083320       _vdecstatis                10085320 f   videocommand.obj
 0002:000833d0       _vdecstatus                100853d0 f   videocommand.obj
 0002:00083480       _setviddecpt               10085480 f   videocommand.obj
 0002:00083530       _setvdecdrawmode           10085530 f   videocommand.obj
 0002:000835e0       _setcleartime              100855e0 f   videocommand.obj
 0002:00083690       ?SetClearScreenInterval@CVidDecWrapper@@QAEXI@Z 10085690 f i videocommand.obj
 0002:000836d0       _starthwlog                100856d0 f   videocommand.obj
 0002:00083780       _createvidencwrapper       10085780 f   videocommand.obj
 0002:00083910       _destoryvidencwrapper      10085910 f   videocommand.obj
 0002:00083a40       _openencfile               10085a40 f   videocommand.obj
 0002:00083b30       _setencplaywnd             10085b30 f   videocommand.obj
 0002:00083c20       _setvidsndbwe              10085c20 f   videocommand.obj
 0002:00083cd0       _setdrawhwd                10085cd0 f   videocommand.obj
 0002:00083d80       _setencsize                10085d80 f   videocommand.obj
 0002:00083ec0       ?GetVideoEncParam@CKdvVidEncCodec@@QAEXAAUVideoEncParam@@@Z 10085ec0 f i videocommand.obj
 0002:00083f10       _setencframerate           10085f10 f   videocommand.obj
 0002:00084050       _setencbitrate             10086050 f   videocommand.obj
 0002:000841f0       _setencmaxbitrate          100861f0 f   videocommand.obj
 0002:00084350       _setencmaxkeyinterval      10086350 f   videocommand.obj
 0002:00084490       _setencqp                  10086490 f   videocommand.obj
 0002:000845d0       _setiqp                    100865d0 f   videocommand.obj
 0002:00084680       ?SetKeyFrameQp@CKdvVidEncCodec@@QAEXI@Z 10086680 f i videocommand.obj
 0002:00084700       _fixiqp                    10086700 f   videocommand.obj
 0002:000847b0       ?EnableReduceIDRFrameQuality@CKdvVidEncCodec@@QAEXH@Z 100867b0 f i videocommand.obj
 0002:00084880       _setenclevel               10086880 f   videocommand.obj
 0002:000849c0       _addlogo                   100869c0 f   videocommand.obj
 0002:00084b80       _setvenctype               10086b80 f   videocommand.obj
 0002:00084cc0       _setdefaultparam           10086cc0 f   videocommand.obj
 0002:00085030       _startvidenc               10087030 f   videocommand.obj
 0002:000850e0       _setencpt                  100870e0 f   videocommand.obj
 0002:00085190       _startvidcap               10087190 f   videocommand.obj
 0002:00085240       _startcapdraw              10087240 f   videocommand.obj
 0002:000852f0       _getdeskversion            100872f0 f   videocommand.obj
 0002:00085400       _enablelogo                10087400 f   videocommand.obj
 0002:000854b0       _selectcam                 100874b0 f   videocommand.obj
 0002:000856e0       _getdefaultcampa           100876e0 f   videocommand.obj
 0002:00085880       _getcurcampa               10087880 f   videocommand.obj
 0002:000859d0       _setcurcampa               100879d0 f   videocommand.obj
 0002:00085ad0       _enclogon                  10087ad0 f   videocommand.obj
 0002:00085b00       _declogon                  10087b00 f   videocommand.obj
 0002:00085b30       _starthwenc                10087b30 f   videocommand.obj
 0002:00085be0       _savevenc                  10087be0 f   videocommand.obj
 0002:00085d50       _setvidsendparam           10087d50 f   videocommand.obj
 0002:000862d0       _startvidsend              100882d0 f   videocommand.obj
 0002:00086390       _setstaticbmp              10088390 f   videocommand.obj
 0002:00086450       _vencsnapshot              10088450 f   videocommand.obj
 0002:00086630       _vencstatus                10088630 f   videocommand.obj
 0002:000866e0       _vencstatis                100886e0 f   videocommand.obj
 0002:00086790       _deskcapstatus             10088790 f   videocommand.obj
 0002:00086900       _fastupdate                10088900 f   videocommand.obj
 0002:000869b0       _setprewnd                 100889b0 f   videocommand.obj
 0002:00086a60       _startresnd                10088a60 f   videocommand.obj
 0002:00086b10       _setcapzoommode            10088b10 f   videocommand.obj
 0002:00086bc0       _enablesingleslice         10088bc0 f   videocommand.obj
 0002:00086c70       _getsingleslicestatus      10088c70 f   videocommand.obj
 0002:00086d80       _printallcameras           10088d80 f   videocommand.obj
 0002:00087000       _getcurcamera              10089000 f   videocommand.obj
 0002:00087260       _setvidencfecenable        10089260 f   videocommand.obj
 0002:00087350       _getnetpercent             10089350 f   videocommand.obj
 0002:00087460       _selectcapscreen           10089460 f   videocommand.obj
 0002:00087520       _cpuadjust                 10089520 f   videocommand.obj
 0002:000875e0       _setdesksharefps           100895e0 f   videocommand.obj
 0002:000876a0       _cpuadjuststatus           100896a0 f   videocommand.obj
 0002:000877b0       _getnetstatus              100897b0 f   videocommand.obj
 0002:00087950       _setvencdrawmode           10089950 f   videocommand.obj
 0002:00087a40       ?VideoDeviceChangeTestFunc@@YAXIABV?$vector@UTDevNameInfo@@V?$allocator@UTDevNameInfo@@@std@@@std@@0@Z 10089a40 f   videocommand.obj
 0002:00087d10       ?AudioDeviceChangeTestFunc@@YAXIABV?$vector@UTDevNameInfo@@V?$allocator@UTDevNameInfo@@@std@@@std@@0@Z 10089d10 f   videocommand.obj
 0002:00087fe0       ?InitVideoDriverInst@@YAXXZ 10089fe0 f   videocommand.obj
 0002:00088130       ?DeInitVideoDriverInst@@YAXXZ 1008a130 f   videocommand.obj
 0002:00088230       ?LoadDll@@YAHXZ            1008a230 f   videocommand.obj
 0002:00088e50       ?UnloadDll@@YAXXZ          1008ae50 f   videocommand.obj
 0002:00088ee0       _DllMain@12                1008aee0 f   videocommand.obj
 0002:00088fe0       ?MediaSDKInitial@@YAGXZ    1008afe0 f   videocommand.obj
 0002:00089070       ?begin@?$vector@PAVCVidEncWrapper@@V?$allocator@PAVCVidEncWrapper@@@std@@@std@@QAE?AV?$_Vector_iterator@V?$_Vector_val@PAVCVidEncWrapper@@V?$allocator@PAVCVidEncWrapper@@@std@@@std@@@2@XZ 1008b070 f i videocommand.obj
 0002:000890c0       ?end@?$vector@PAVCVidEncWrapper@@V?$allocator@PAVCVidEncWrapper@@@std@@@std@@QAE?AV?$_Vector_iterator@V?$_Vector_val@PAVCVidEncWrapper@@V?$allocator@PAVCVidEncWrapper@@@std@@@std@@@2@XZ 1008b0c0 f i videocommand.obj
 0002:00089110       ?size@?$vector@PAVCVidEncWrapper@@V?$allocator@PAVCVidEncWrapper@@@std@@@std@@QBEIXZ 1008b110 f i videocommand.obj
 0002:00089150       ??A?$vector@PAVCVidEncWrapper@@V?$allocator@PAVCVidEncWrapper@@@std@@@std@@QAEAAPAVCVidEncWrapper@@I@Z 1008b150 f i videocommand.obj
 0002:00089190       ?push_back@?$vector@PAVCVidEncWrapper@@V?$allocator@PAVCVidEncWrapper@@@std@@@std@@QAEXABQAVCVidEncWrapper@@@Z 1008b190 f i videocommand.obj
 0002:000892c0       ?erase@?$vector@PAVCVidEncWrapper@@V?$allocator@PAVCVidEncWrapper@@@std@@@std@@QAE?AV?$_Vector_iterator@V?$_Vector_val@PAVCVidEncWrapper@@V?$allocator@PAVCVidEncWrapper@@@std@@@std@@@2@V?$_Vector_const_iterator@V?$_Vector_val@PAVCVidEncWrapper@@V?$allocator@PAVCVidEncWrapper@@@std@@@std@@@2@@Z 1008b2c0 f i videocommand.obj
 0002:00089350       ?begin@?$vector@PAVCVidDecWrapper@@V?$allocator@PAVCVidDecWrapper@@@std@@@std@@QAE?AV?$_Vector_iterator@V?$_Vector_val@PAVCVidDecWrapper@@V?$allocator@PAVCVidDecWrapper@@@std@@@std@@@2@XZ 1008b350 f i videocommand.obj
 0002:000893a0       ?end@?$vector@PAVCVidDecWrapper@@V?$allocator@PAVCVidDecWrapper@@@std@@@std@@QAE?AV?$_Vector_iterator@V?$_Vector_val@PAVCVidDecWrapper@@V?$allocator@PAVCVidDecWrapper@@@std@@@std@@@2@XZ 1008b3a0 f i videocommand.obj
 0002:000893f0       ?size@?$vector@PAVCVidDecWrapper@@V?$allocator@PAVCVidDecWrapper@@@std@@@std@@QBEIXZ 1008b3f0 f i videocommand.obj
 0002:00089430       ??A?$vector@PAVCVidDecWrapper@@V?$allocator@PAVCVidDecWrapper@@@std@@@std@@QAEAAPAVCVidDecWrapper@@I@Z 1008b430 f i videocommand.obj
 0002:00089470       ?push_back@?$vector@PAVCVidDecWrapper@@V?$allocator@PAVCVidDecWrapper@@@std@@@std@@QAEXABQAVCVidDecWrapper@@@Z 1008b470 f i videocommand.obj
 0002:000895a0       ?erase@?$vector@PAVCVidDecWrapper@@V?$allocator@PAVCVidDecWrapper@@@std@@@std@@QAE?AV?$_Vector_iterator@V?$_Vector_val@PAVCVidDecWrapper@@V?$allocator@PAVCVidDecWrapper@@@std@@@std@@@2@V?$_Vector_const_iterator@V?$_Vector_val@PAVCVidDecWrapper@@V?$allocator@PAVCVidDecWrapper@@@std@@@std@@@2@@Z 1008b5a0 f i videocommand.obj
 0002:00089630       ??0?$_Vector_iterator@V?$_Vector_val@PAVCVidEncWrapper@@V?$allocator@PAVCVidEncWrapper@@@std@@@std@@@std@@QAE@XZ 1008b630 f i videocommand.obj
 0002:00089680       ??D?$_Vector_iterator@V?$_Vector_val@PAVCVidEncWrapper@@V?$allocator@PAVCVidEncWrapper@@@std@@@std@@@std@@QBEAAPAVCVidEncWrapper@@XZ 1008b680 f i videocommand.obj
 0002:000896c0       ??E?$_Vector_iterator@V?$_Vector_val@PAVCVidEncWrapper@@V?$allocator@PAVCVidEncWrapper@@@std@@@std@@@std@@QAE?AV01@H@Z 1008b6c0 f i videocommand.obj
 0002:00089750       ??9?$_Vector_const_iterator@V?$_Vector_val@PAVCVidEncWrapper@@V?$allocator@PAVCVidEncWrapper@@@std@@@std@@@std@@QBE_NABV01@@Z 1008b750 f i videocommand.obj
 0002:000897a0       ??0?$_Vector_iterator@V?$_Vector_val@PAVCVidDecWrapper@@V?$allocator@PAVCVidDecWrapper@@@std@@@std@@@std@@QAE@XZ 1008b7a0 f i videocommand.obj
 0002:000897f0       ??D?$_Vector_iterator@V?$_Vector_val@PAVCVidDecWrapper@@V?$allocator@PAVCVidDecWrapper@@@std@@@std@@@std@@QBEAAPAVCVidDecWrapper@@XZ 1008b7f0 f i videocommand.obj
 0002:00089830       ??E?$_Vector_iterator@V?$_Vector_val@PAVCVidDecWrapper@@V?$allocator@PAVCVidDecWrapper@@@std@@@std@@@std@@QAE?AV01@H@Z 1008b830 f i videocommand.obj
 0002:000898c0       ??9?$_Vector_const_iterator@V?$_Vector_val@PAVCVidDecWrapper@@V?$allocator@PAVCVidDecWrapper@@@std@@@std@@@std@@QBE_NABV01@@Z 1008b8c0 f i videocommand.obj
 0002:00089910       ??A?$vector@UTDevNameInfo@@V?$allocator@UTDevNameInfo@@@std@@@std@@QBEABUTDevNameInfo@@I@Z 1008b910 f i videocommand.obj
 0002:00089950       ?_Make_iter@?$vector@PAVCVidEncWrapper@@V?$allocator@PAVCVidEncWrapper@@@std@@@std@@QBE?AV?$_Vector_iterator@V?$_Vector_val@PAVCVidEncWrapper@@V?$allocator@PAVCVidEncWrapper@@@std@@@std@@@2@V?$_Vector_const_iterator@V?$_Vector_val@PAVCVidEncWrapper@@V?$allocator@PAVCVidEncWrapper@@@std@@@std@@@2@@Z 1008b950 f i videocommand.obj
 0002:000899a0       ?_Destroy@?$vector@PAVCVidEncWrapper@@V?$allocator@PAVCVidEncWrapper@@@std@@@std@@IAEXPAPAVCVidEncWrapper@@0@Z 1008b9a0 f i videocommand.obj
 0002:000899f0       ?_Inside@?$vector@PAVCVidEncWrapper@@V?$allocator@PAVCVidEncWrapper@@@std@@@std@@IBE_NPBQAVCVidEncWrapper@@@Z 1008b9f0 f i videocommand.obj
 0002:00089a50       ?_Reserve@?$vector@PAVCVidEncWrapper@@V?$allocator@PAVCVidEncWrapper@@@std@@@std@@IAEXI@Z 1008ba50 f i videocommand.obj
 0002:00089ae0       ?_Orphan_range@?$vector@PAVCVidEncWrapper@@V?$allocator@PAVCVidEncWrapper@@@std@@@std@@IBEXPAPAVCVidEncWrapper@@0@Z 1008bae0 f i videocommand.obj
 0002:00089b10       ?_Make_iter@?$vector@PAVCVidDecWrapper@@V?$allocator@PAVCVidDecWrapper@@@std@@@std@@QBE?AV?$_Vector_iterator@V?$_Vector_val@PAVCVidDecWrapper@@V?$allocator@PAVCVidDecWrapper@@@std@@@std@@@2@V?$_Vector_const_iterator@V?$_Vector_val@PAVCVidDecWrapper@@V?$allocator@PAVCVidDecWrapper@@@std@@@std@@@2@@Z 1008bb10 f i videocommand.obj
 0002:00089b60       ?_Destroy@?$vector@PAVCVidDecWrapper@@V?$allocator@PAVCVidDecWrapper@@@std@@@std@@IAEXPAPAVCVidDecWrapper@@0@Z 1008bb60 f i videocommand.obj
 0002:00089bb0       ?_Inside@?$vector@PAVCVidDecWrapper@@V?$allocator@PAVCVidDecWrapper@@@std@@@std@@IBE_NPBQAVCVidDecWrapper@@@Z 1008bbb0 f i videocommand.obj
 0002:00089c10       ?_Reserve@?$vector@PAVCVidDecWrapper@@V?$allocator@PAVCVidDecWrapper@@@std@@@std@@IAEXI@Z 1008bc10 f i videocommand.obj
 0002:00089ca0       ?_Orphan_range@?$vector@PAVCVidDecWrapper@@V?$allocator@PAVCVidDecWrapper@@@std@@@std@@IBEXPAPAVCVidDecWrapper@@0@Z 1008bca0 f i videocommand.obj
 0002:00089cd0       ??0?$_Vector_iterator@V?$_Vector_val@PAVCVidEncWrapper@@V?$allocator@PAVCVidEncWrapper@@@std@@@std@@@std@@QAE@PAPAVCVidEncWrapper@@PBU_Container_base0@1@@Z 1008bcd0 f i videocommand.obj
 0002:00089d20       ??E?$_Vector_iterator@V?$_Vector_val@PAVCVidEncWrapper@@V?$allocator@PAVCVidEncWrapper@@@std@@@std@@@std@@QAEAAV01@XZ 1008bd20 f i videocommand.obj
 0002:00089d70       ??0?$_Vector_const_iterator@V?$_Vector_val@PAVCVidEncWrapper@@V?$allocator@PAVCVidEncWrapper@@@std@@@std@@@std@@QAE@XZ 1008bd70 f i videocommand.obj
 0002:00089db0       ??D?$_Vector_const_iterator@V?$_Vector_val@PAVCVidEncWrapper@@V?$allocator@PAVCVidEncWrapper@@@std@@@std@@@std@@QBEABQAVCVidEncWrapper@@XZ 1008bdb0 f i videocommand.obj
 0002:00089df0       ??8?$_Vector_const_iterator@V?$_Vector_val@PAVCVidEncWrapper@@V?$allocator@PAVCVidEncWrapper@@@std@@@std@@@std@@QBE_NABV01@@Z 1008bdf0 f i videocommand.obj
 0002:00089e50       ??0?$_Vector_iterator@V?$_Vector_val@PAVCVidDecWrapper@@V?$allocator@PAVCVidDecWrapper@@@std@@@std@@@std@@QAE@PAPAVCVidDecWrapper@@PBU_Container_base0@1@@Z 1008be50 f i videocommand.obj
 0002:00089ea0       ??E?$_Vector_iterator@V?$_Vector_val@PAVCVidDecWrapper@@V?$allocator@PAVCVidDecWrapper@@@std@@@std@@@std@@QAEAAV01@XZ 1008bea0 f i videocommand.obj
 0002:00089ef0       ??0?$_Vector_const_iterator@V?$_Vector_val@PAVCVidDecWrapper@@V?$allocator@PAVCVidDecWrapper@@@std@@@std@@@std@@QAE@XZ 1008bef0 f i videocommand.obj
 0002:00089f30       ??D?$_Vector_const_iterator@V?$_Vector_val@PAVCVidDecWrapper@@V?$allocator@PAVCVidDecWrapper@@@std@@@std@@@std@@QBEABQAVCVidDecWrapper@@XZ 1008bf30 f i videocommand.obj
 0002:00089f70       ??8?$_Vector_const_iterator@V?$_Vector_val@PAVCVidDecWrapper@@V?$allocator@PAVCVidDecWrapper@@@std@@@std@@@std@@QBE_NABV01@@Z 1008bf70 f i videocommand.obj
 0002:00089fd0       ?reserve@?$vector@PAVCVidEncWrapper@@V?$allocator@PAVCVidEncWrapper@@@std@@@std@@QAEXI@Z 1008bfd0 f i videocommand.obj
 0002:0008a150       ?capacity@?$vector@PAVCVidEncWrapper@@V?$allocator@PAVCVidEncWrapper@@@std@@@std@@QBEIXZ 1008c150 f i videocommand.obj
 0002:0008a190       ?max_size@?$vector@PAVCVidEncWrapper@@V?$allocator@PAVCVidEncWrapper@@@std@@@std@@QBEIXZ 1008c190 f i videocommand.obj
 0002:0008a1e0       ?_Grow_to@?$vector@PAVCVidEncWrapper@@V?$allocator@PAVCVidEncWrapper@@@std@@@std@@IBEII@Z 1008c1e0 f i videocommand.obj
 0002:0008a270       ?_Xlen@?$vector@PAVCVidEncWrapper@@V?$allocator@PAVCVidEncWrapper@@@std@@@std@@IBEXXZ 1008c270 f i videocommand.obj
 0002:0008a2c0       ?deallocate@?$allocator@PAVCVidEncWrapper@@@std@@QAEXPAPAVCVidEncWrapper@@I@Z 1008c2c0 f i videocommand.obj
 0002:0008a310       ?reserve@?$vector@PAVCVidDecWrapper@@V?$allocator@PAVCVidDecWrapper@@@std@@@std@@QAEXI@Z 1008c310 f i videocommand.obj
 0002:0008a490       ?capacity@?$vector@PAVCVidDecWrapper@@V?$allocator@PAVCVidDecWrapper@@@std@@@std@@QBEIXZ 1008c490 f i videocommand.obj
 0002:0008a4d0       ?max_size@?$vector@PAVCVidDecWrapper@@V?$allocator@PAVCVidDecWrapper@@@std@@@std@@QBEIXZ 1008c4d0 f i videocommand.obj
 0002:0008a520       ?_Grow_to@?$vector@PAVCVidDecWrapper@@V?$allocator@PAVCVidDecWrapper@@@std@@@std@@IBEII@Z 1008c520 f i videocommand.obj
 0002:0008a5b0       ?_Xlen@?$vector@PAVCVidDecWrapper@@V?$allocator@PAVCVidDecWrapper@@@std@@@std@@IBEXXZ 1008c5b0 f i videocommand.obj
 0002:0008a600       ?deallocate@?$allocator@PAVCVidDecWrapper@@@std@@QAEXPAPAVCVidDecWrapper@@I@Z 1008c600 f i videocommand.obj
 0002:0008a650       ??0?$_Vector_const_iterator@V?$_Vector_val@PAVCVidEncWrapper@@V?$allocator@PAVCVidEncWrapper@@@std@@@std@@@std@@QAE@PAPAVCVidEncWrapper@@PBU_Container_base0@1@@Z 1008c650 f i videocommand.obj
 0002:0008a6a0       ??E?$_Vector_const_iterator@V?$_Vector_val@PAVCVidEncWrapper@@V?$allocator@PAVCVidEncWrapper@@@std@@@std@@@std@@QAEAAV01@XZ 1008c6a0 f i videocommand.obj
 0002:0008a6e0       ?_Compat@?$_Vector_const_iterator@V?$_Vector_val@PAVCVidEncWrapper@@V?$allocator@PAVCVidEncWrapper@@@std@@@std@@@std@@QBEXABV12@@Z 1008c6e0 f i videocommand.obj
 0002:0008a710       ??0?$_Vector_const_iterator@V?$_Vector_val@PAVCVidDecWrapper@@V?$allocator@PAVCVidDecWrapper@@@std@@@std@@@std@@QAE@PAPAVCVidDecWrapper@@PBU_Container_base0@1@@Z 1008c710 f i videocommand.obj
 0002:0008a760       ??E?$_Vector_const_iterator@V?$_Vector_val@PAVCVidDecWrapper@@V?$allocator@PAVCVidDecWrapper@@@std@@@std@@@std@@QAEAAV01@XZ 1008c760 f i videocommand.obj
 0002:0008a7a0       ?_Compat@?$_Vector_const_iterator@V?$_Vector_val@PAVCVidDecWrapper@@V?$allocator@PAVCVidDecWrapper@@@std@@@std@@@std@@QBEXABV12@@Z 1008c7a0 f i videocommand.obj
 0002:0008a7d0       ?allocate@?$allocator@PAVCVidEncWrapper@@@std@@QAEPAPAVCVidEncWrapper@@I@Z 1008c7d0 f i videocommand.obj
 0002:0008a820       ?max_size@?$allocator@PAVCVidEncWrapper@@@std@@QBEIXZ 1008c820 f i videocommand.obj
 0002:0008a880       ?allocate@?$allocator@PAVCVidDecWrapper@@@std@@QAEPAPAVCVidDecWrapper@@I@Z 1008c880 f i videocommand.obj
 0002:0008a8d0       ?max_size@?$allocator@PAVCVidDecWrapper@@@std@@QBEIXZ 1008c8d0 f i videocommand.obj
 0002:0008a930       ??$addressof@QAVCVidEncWrapper@@@std@@YAPBQAVCVidEncWrapper@@ABQAV1@@Z 1008c930 f i videocommand.obj
 0002:0008a960       ??$_Cons_val@V?$allocator@PAVCVidEncWrapper@@@std@@PAVCVidEncWrapper@@AAPAV3@@std@@YAXAAV?$allocator@PAVCVidEncWrapper@@@0@PAPAVCVidEncWrapper@@AAPAV2@@Z 1008c960 f i videocommand.obj
 0002:0008a9b0       ??$_Cons_val@V?$allocator@PAVCVidEncWrapper@@@std@@PAVCVidEncWrapper@@ABQAV3@@std@@YAXAAV?$allocator@PAVCVidEncWrapper@@@0@PAPAVCVidEncWrapper@@ABQAV2@@Z 1008c9b0 f i videocommand.obj
 0002:0008aa00       ??$_Move@PAPAVCVidEncWrapper@@PAPAV1@@std@@YAPAPAVCVidEncWrapper@@PAPAV1@00@Z 1008ca00 f i videocommand.obj
 0002:0008aa70       ??$addressof@QAVCVidDecWrapper@@@std@@YAPBQAVCVidDecWrapper@@ABQAV1@@Z 1008ca70 f i videocommand.obj
 0002:0008aaa0       ??$_Cons_val@V?$allocator@PAVCVidDecWrapper@@@std@@PAVCVidDecWrapper@@AAPAV3@@std@@YAXAAV?$allocator@PAVCVidDecWrapper@@@0@PAPAVCVidDecWrapper@@AAPAV2@@Z 1008caa0 f i videocommand.obj
 0002:0008aaf0       ??$_Cons_val@V?$allocator@PAVCVidDecWrapper@@@std@@PAVCVidDecWrapper@@ABQAV3@@std@@YAXAAV?$allocator@PAVCVidDecWrapper@@@0@PAPAVCVidDecWrapper@@ABQAV2@@Z 1008caf0 f i videocommand.obj
 0002:0008ab40       ??$_Move@PAPAVCVidDecWrapper@@PAPAV1@@std@@YAPAPAVCVidDecWrapper@@PAPAV1@00@Z 1008cb40 f i videocommand.obj
 0002:0008abb0       ??$_Destroy_range@V?$allocator@PAVCVidEncWrapper@@@std@@@std@@YAXPAPAVCVidEncWrapper@@0AAV?$allocator@PAVCVidEncWrapper@@@0@@Z 1008cbb0 f i videocommand.obj
 0002:0008ac20       ??$_Destroy_range@V?$allocator@PAVCVidDecWrapper@@@std@@@std@@YAXPAPAVCVidDecWrapper@@0AAV?$allocator@PAVCVidDecWrapper@@@0@@Z 1008cc20 f i videocommand.obj
 0002:0008ac90       ??$_Umove@PAPAVCVidEncWrapper@@@?$vector@PAVCVidEncWrapper@@V?$allocator@PAVCVidEncWrapper@@@std@@@std@@IAEPAPAVCVidEncWrapper@@PAPAV2@00@Z 1008cc90 f i videocommand.obj
 0002:0008acf0       ??$_Umove@PAPAVCVidDecWrapper@@@?$vector@PAVCVidDecWrapper@@V?$allocator@PAVCVidDecWrapper@@@std@@@std@@IAEPAPAVCVidDecWrapper@@PAPAV2@00@Z 1008ccf0 f i videocommand.obj
 0002:0008ad50       ??$_Allocate@PAVCVidEncWrapper@@@std@@YAPAPAVCVidEncWrapper@@IPAPAV1@@Z 1008cd50 f i videocommand.obj
 0002:0008ade0       ??$_Allocate@PAVCVidDecWrapper@@@std@@YAPAPAVCVidDecWrapper@@IPAPAV1@@Z 1008cde0 f i videocommand.obj
 0002:0008ae70       ?construct@?$allocator@PAVCVidEncWrapper@@@std@@QAEXPAPAVCVidEncWrapper@@ABQAV3@@Z 1008ce70 f i videocommand.obj
 0002:0008aec0       ?construct@?$allocator@PAVCVidDecWrapper@@@std@@QAEXPAPAVCVidDecWrapper@@ABQAV3@@Z 1008cec0 f i videocommand.obj
 0002:0008af10       ??$forward@AAPAVCVidEncWrapper@@@std@@YAAAPAVCVidEncWrapper@@AAPAV1@@Z 1008cf10 f i videocommand.obj
 0002:0008af40       ??$construct@AAPAVCVidEncWrapper@@@?$allocator@PAVCVidEncWrapper@@@std@@QAEXPAPAVCVidEncWrapper@@AAPAV2@@Z 1008cf40 f i videocommand.obj
 0002:0008b010       ??$forward@ABQAVCVidEncWrapper@@@std@@YAABQAVCVidEncWrapper@@ABQAV1@@Z 1008d010 f i videocommand.obj
 0002:0008b040       ??$_Ptr_cat@PAVCVidEncWrapper@@PAV1@@std@@YA?AU_Scalar_ptr_iterator_tag@0@PAPAVCVidEncWrapper@@0@Z 1008d040 f i videocommand.obj
 0002:0008b0a0       ??$_Move@PAPAVCVidEncWrapper@@PAPAV1@@std@@YAPAPAVCVidEncWrapper@@PAPAV1@00U_Scalar_ptr_iterator_tag@0@@Z 1008d0a0 f i videocommand.obj
 0002:0008b110       ??$forward@AAPAVCVidDecWrapper@@@std@@YAAAPAVCVidDecWrapper@@AAPAV1@@Z 1008d110 f i videocommand.obj
 0002:0008b140       ??$construct@AAPAVCVidDecWrapper@@@?$allocator@PAVCVidDecWrapper@@@std@@QAEXPAPAVCVidDecWrapper@@AAPAV2@@Z 1008d140 f i videocommand.obj
 0002:0008b210       ??$forward@ABQAVCVidDecWrapper@@@std@@YAABQAVCVidDecWrapper@@ABQAV1@@Z 1008d210 f i videocommand.obj
 0002:0008b240       ??$_Ptr_cat@PAVCVidDecWrapper@@PAV1@@std@@YA?AU_Scalar_ptr_iterator_tag@0@PAPAVCVidDecWrapper@@0@Z 1008d240 f i videocommand.obj
 0002:0008b2a0       ??$_Move@PAPAVCVidDecWrapper@@PAPAV1@@std@@YAPAPAVCVidDecWrapper@@PAPAV1@00U_Scalar_ptr_iterator_tag@0@@Z 1008d2a0 f i videocommand.obj
 0002:0008b310       ??$_Destroy_range@V?$allocator@PAVCVidEncWrapper@@@std@@@std@@YAXPAPAVCVidEncWrapper@@0AAV?$allocator@PAVCVidEncWrapper@@@0@U_Scalar_ptr_iterator_tag@0@@Z 1008d310 f i videocommand.obj
 0002:0008b340       ??$_Destroy_range@V?$allocator@PAVCVidDecWrapper@@@std@@@std@@YAXPAPAVCVidDecWrapper@@0AAV?$allocator@PAVCVidDecWrapper@@@0@U_Scalar_ptr_iterator_tag@0@@Z 1008d340 f i videocommand.obj
 0002:0008b370       ??$_Uninitialized_move@PAPAVCVidEncWrapper@@PAPAV1@V?$allocator@PAVCVidEncWrapper@@@std@@@std@@YAPAPAVCVidEncWrapper@@PAPAV1@00AAV?$allocator@PAVCVidEncWrapper@@@0@@Z 1008d370 f i videocommand.obj
 0002:0008b3f0       ??$_Uninitialized_move@PAPAVCVidDecWrapper@@PAPAV1@V?$allocator@PAVCVidDecWrapper@@@std@@@std@@YAPAPAVCVidDecWrapper@@PAPAV1@00AAV?$allocator@PAVCVidDecWrapper@@@0@@Z 1008d3f0 f i videocommand.obj
 0002:0008b470       ??$_Construct@PAVCVidEncWrapper@@ABQAV1@@std@@YAXPAPAVCVidEncWrapper@@ABQAV1@@Z 1008d470 f i videocommand.obj
 0002:0008b540       ??$_Construct@PAVCVidDecWrapper@@ABQAV1@@std@@YAXPAPAVCVidDecWrapper@@ABQAV1@@Z 1008d540 f i videocommand.obj
 0002:0008b610       ??$_Val_type@PAPAVCVidEncWrapper@@@std@@YAPAPAVCVidEncWrapper@@PAPAV1@@Z 1008d610 f i videocommand.obj
 0002:0008b640       ??$_Uninit_move@PAVCVidEncWrapper@@PAV1@PAV1@@std@@YAPAPAVCVidEncWrapper@@PAPAV1@00AAV?$allocator@PAVCVidEncWrapper@@@0@0U_Scalar_ptr_iterator_tag@0@@Z 1008d640 f i videocommand.obj
 0002:0008b6b0       ??$_Val_type@PAPAVCVidDecWrapper@@@std@@YAPAPAVCVidDecWrapper@@PAPAV1@@Z 1008d6b0 f i videocommand.obj
 0002:0008b6e0       ??$_Uninit_move@PAVCVidDecWrapper@@PAV1@PAV1@@std@@YAPAPAVCVidDecWrapper@@PAPAV1@00AAV?$allocator@PAVCVidDecWrapper@@@0@0U_Scalar_ptr_iterator_tag@0@@Z 1008d6e0 f i videocommand.obj
 0002:0008b750       ??0?$vector@PAVCVidEncWrapper@@V?$allocator@PAVCVidEncWrapper@@@std@@@std@@QAE@XZ 1008d750 f i videocommand.obj
 0002:0008b7a0       ??0?$_Vector_val@PAVCVidEncWrapper@@V?$allocator@PAVCVidEncWrapper@@@std@@@std@@QAE@V?$allocator@PAVCVidEncWrapper@@@1@@Z 1008d7a0 f i videocommand.obj
 0002:0008b810       ??0?$allocator@PAVCVidEncWrapper@@@std@@QAE@XZ 1008d810 f i videocommand.obj
 0002:0008b840       ??0?$allocator@PAVCVidEncWrapper@@@std@@QAE@ABV01@@Z 1008d840 f i videocommand.obj
 0002:0008b870       ??0?$vector@PAVCVidDecWrapper@@V?$allocator@PAVCVidDecWrapper@@@std@@@std@@QAE@XZ 1008d870 f i videocommand.obj
 0002:0008b8c0       ??0?$_Vector_val@PAVCVidDecWrapper@@V?$allocator@PAVCVidDecWrapper@@@std@@@std@@QAE@V?$allocator@PAVCVidDecWrapper@@@1@@Z 1008d8c0 f i videocommand.obj
 0002:0008b930       ??0?$allocator@PAVCVidDecWrapper@@@std@@QAE@XZ 1008d930 f i videocommand.obj
 0002:0008b960       ??0?$allocator@PAVCVidDecWrapper@@@std@@QAE@ABV01@@Z 1008d960 f i videocommand.obj
 0002:0008b990       ??1?$vector@PAVCVidEncWrapper@@V?$allocator@PAVCVidEncWrapper@@@std@@@std@@QAE@XZ 1008d990 f i videocommand.obj
 0002:0008ba10       ?_Tidy@?$vector@PAVCVidEncWrapper@@V?$allocator@PAVCVidEncWrapper@@@std@@@std@@IAEXXZ 1008da10 f i videocommand.obj
 0002:0008bac0       ??1?$_Vector_val@PAVCVidEncWrapper@@V?$allocator@PAVCVidEncWrapper@@@std@@@std@@QAE@XZ 1008dac0 f i videocommand.obj
 0002:0008baf0       ??1?$vector@PAVCVidDecWrapper@@V?$allocator@PAVCVidDecWrapper@@@std@@@std@@QAE@XZ 1008daf0 f i videocommand.obj
 0002:0008bb70       ?_Tidy@?$vector@PAVCVidDecWrapper@@V?$allocator@PAVCVidDecWrapper@@@std@@@std@@IAEXXZ 1008db70 f i videocommand.obj
 0002:0008bc20       ??1?$_Vector_val@PAVCVidDecWrapper@@V?$allocator@PAVCVidDecWrapper@@@std@@@std@@QAE@XZ 1008dc20 f i videocommand.obj
 0002:0008bc50       ?BmpHeight@@YAIPAE@Z       1008dc50 f   videocommon.obj
 0002:0008bcb0       ?BmpWidth@@YAIPAE@Z        1008dcb0 f   videocommon.obj
 0002:0008bd10       ?BmpBitCount@@YAIPAE@Z     1008dd10 f   videocommon.obj
 0002:0008bd60       ?ReInitRawYuvData@@YAGPAUtagVidDataRaw@@I@Z 1008dd60 f   videocommon.obj
 0002:0008be60       ?ReleaseYuvRaw@@YAGPAUtagVidDataRaw@@@Z 1008de60 f   videocommon.obj
 0002:0008bef0       ?yuyv2yuv@@YAXPAE0II@Z     1008def0 f   videocommon.obj
 0002:0008bfe0       ?ReadYuvDataFromBmp@@YAGAAUtagVidDataRaw@@PA_W@Z 1008dfe0 f   videocommon.obj
 0002:0008c290       ?SaveRawDataToFile@@YAGPAUtagVidDataRaw@@PA_WE@Z 1008e290 f   videocommon.obj
 0002:0008c940       ?GetMediaTypeName@@YAPADI@Z 1008e940 f   videocommon.obj
 0002:0008ca80       ??0CKdvVidDecCodec@@QAE@XZ 1008ea80 f   videodec.obj
 0002:0008ccf0       ??_ECKdvVidDecCodec@@UAEPAXI@Z 1008ecf0 f i videodec.obj
 0002:0008ccf0       ??_GCKdvVidDecCodec@@UAEPAXI@Z 1008ecf0 f i videodec.obj
 0002:0008cd50       ??1CKdvVidDecCodec@@UAE@XZ 1008ed50 f   videodec.obj
 0002:0008cef0       ?Convert@CKdvVidDecCodec@@QAEHPAEHPAPAEAAHHH@Z 1008eef0 f   videodec.obj
 0002:0008d1d0       ?SetRatio@CKdvVidDecCodec@@QAEHPAUTDecoderRef@@PAUTDecoderStatus@@HHHAAHH@Z 1008f1d0 f   videodec.obj
 0002:0008dac0       ?SaveDecData@CKdvVidDecCodec@@QAEHPBDI@Z 1008fac0 f   videodec.obj
 0002:0008dc10       ?CalcStatis@CKdvVidDecCodec@@QAEXI@Z 1008fc10 f   videodec.obj
 0002:0008dee0       ?HWFree@CKdvVidDecCodec@@QAEHXZ 1008fee0 f   videodec.obj
 0002:0008e020       ?HWGetDrawMode@CKdvVidDecCodec@@QAEHAAH@Z 10090020 f   videodec.obj
 0002:0008e230       ?HWSetRatio@CKdvVidDecCodec@@QAEGPAUHWND__@@HH@Z 10090230 f   videodec.obj
 0002:0008e960       ?HWDecode@CKdvVidDecCodec@@QAEGPAUtagVidDataStream@@@Z 10090960 f   videodec.obj
 0002:0008ed00       ?HWSaveSnapshot@CKdvVidDecCodec@@QAEGPBDW4__tEImageType@@@Z 10090d00 f   videodec.obj
 0002:0008eeb0       ?HWGetDecoderStatis@CKdvVidDecCodec@@QAEGPAUtagDecStatis@@@Z 10090eb0 f   videodec.obj
 0002:0008f020       ?HWDecoderErrorCB@CKdvVidDecCodec@@SGXHPAUKDRunTimeInfo@@PAX@Z 10091020 f   videodec.obj
 0002:0008f1a0       ?HWSetPlayWnd@CKdvVidDecCodec@@QAEFPAUHWND__@@@Z 100911a0 f   videodec.obj
 0002:0008f4e0       ?HWStartLog@CKdvVidDecCodec@@QAEFH@Z 100914e0 f   videodec.obj
 0002:0008f600       ??0CKdvVidEncCodec@@QAE@XZ 10091600 f   videoenc.obj
 0002:0008fa50       ??_GCKdvVidEncCodec@@UAEPAXI@Z 10091a50 f i videoenc.obj
 0002:0008fa50       ??_ECKdvVidEncCodec@@UAEPAXI@Z 10091a50 f i videoenc.obj
 0002:0008fab0       ??1CKdvVidEncCodec@@UAE@XZ 10091ab0 f   videoenc.obj
 0002:0008fbf0       ?InitRMP4Encoder@CKdvVidEncCodec@@IAEHABUVideoEncParam@@@Z 10091bf0 f   videoenc.obj
 0002:0008fd90       ?InitH261Encoder@CKdvVidEncCodec@@IAEHABUVideoEncParam@@@Z 10091d90 f   videoenc.obj
 0002:0008fef0       ?InitH263Encoder@CKdvVidEncCodec@@IAEHABUVideoEncParam@@@Z 10091ef0 f   videoenc.obj
 0002:00090030       ?InitH264Encoder@CKdvVidEncCodec@@IAEHABUVideoEncParam@@@Z 10092030 f   videoenc.obj
 0002:00090620       ?InitRMP2Encoder@CKdvVidEncCodec@@IAEHABUVideoEncParam@@@Z 10092620 f   videoenc.obj
 0002:00090750       ?InitH265Encoder@CKdvVidEncCodec@@IAEHABUVideoEncParam@@@Z 10092750 f   videoenc.obj
 0002:00090be0       ?InitSoftEncoder@CKdvVidEncCodec@@IAEHABUVideoEncParam@@@Z 10092be0 f   videoenc.obj
 0002:00091240       ?ResizeAndEncode@CKdvVidEncCodec@@QAEGAAUtagEncInputStruct@@AAUtagEncOutputStruct@@@Z 10093240 f   videoenc.obj
 0002:00092330       ?SetVideoEncParam@CKdvVidEncCodec@@UAEGAAUVideoEncParam@@@Z 10094330 f   videoenc.obj
 0002:00092850       ?InitCodec@CKdvVidEncCodec@@QAEXPAUTEncoderRef@@PAUTEncoderStatus@@W4em_VidCap_type@@@Z 10094850 f   videoenc.obj
 0002:000929b0       ?DestroyCodec@CKdvVidEncCodec@@QAEXXZ 100949b0 f   videoenc.obj
 0002:00092b50       ?SaveEncData@CKdvVidEncCodec@@QAEXPBDI@Z 10094b50 f   videoenc.obj
 0002:00092ca0       ?CalcStatis@CKdvVidEncCodec@@QAEXI@Z 10094ca0 f   videoenc.obj
 0002:00092f70       ?DrawLogoI420@CKdvVidEncCodec@@QAEXPAEIIW4em_Logo_Place@@@Z 10094f70 f   videoenc.obj
 0002:00093420       ?BmpLogoSetting@CKdvVidEncCodec@@QAEXPAUTFullLogoParam@@@Z 10095420 f   videoenc.obj
 0002:00093860       ?StartBmpLogo@CKdvVidEncCodec@@QAEHIIAAUtagLogoInfo@@@Z 10095860 f   videoenc.obj
 0002:000941e0       ?SetFastUpdate@CKdvVidEncCodec@@QAEXXZ 100961e0 f   videoenc.obj
 0002:00094250       ?InitX264Encoder@CKdvVidEncCodec@@IAEHABUVideoEncParam@@@Z 10096250 f   videoenc.obj
 0002:000944a0       ?InitHwEncoder@CKdvVidEncCodec@@IAEHABUVideoEncParam@@@Z 100964a0 f   videoenc.obj
 0002:000946f0       ?HwEncode@CKdvVidEncCodec@@IAEGPAEI0AAIHAAH@Z 100966f0 f   videoenc.obj
 0002:00094a10       ?BmpNeedSizeChange@CKdvVidEncCodec@@QAEHPAUtagScaleParam@@IPAE@Z 10096a10 f   videoenc.obj
 0002:000950c0       ?IsEnableSingleSlice@CKdvVidEncCodec@@QAEXH@Z 100970c0 f   videoenc.obj
 0002:00095100       ?SetMediaSdkConfigPath@@YAGPA_W@Z 10097100 f   videointerfaceimp.obj
 0002:00095260       ??0CKdvEncoder@@QAE@XZ     10097260 f   videointerfaceimp.obj
 0002:000953b0       ??1CKdvEncoder@@UAE@XZ     100973b0 f   videointerfaceimp.obj
 0002:00095460       ?GetEncoderStatus@CKdvEncoder@@QAEGAAUKdvEncStatus@@@Z 10097460 f   videointerfaceimp.obj
 0002:000954f0       ?GetEncoderStatis@CKdvEncoder@@QAEGAAUKdvEncStatis@@@Z 100974f0 f   videointerfaceimp.obj
 0002:00095590       ?GetVidCapParam@CKdvEncoder@@QAEGAAI0@Z 10097590 f   videointerfaceimp.obj
 0002:00095620       ?SetVideoCapStdCB@CKdvEncoder@@QAEGP6AXIII@ZI@Z 10097620 f   videointerfaceimp.obj
 0002:00095740       ?SetCapYuvDetectCB@CKdvEncoder@@QAEGP6AXHI@ZI@Z 10097740 f   videointerfaceimp.obj
 0002:00095860       ?InitialVideoEncoder@CKdvEncoder@@QAEGABUtagInitVidEncoder@@@Z 10097860 f   videointerfaceimp.obj
 0002:00095b00       ?SetPreviewHwnd@CKdvEncoder@@QAEGPAUHWND__@@@Z 10097b00 f   videointerfaceimp.obj
 0002:00095c40       ?SetDeskDrawHwnd@CKdvEncoder@@QAEGPAUHWND__@@@Z 10097c40 f   videointerfaceimp.obj
 0002:00095d60       ?DestroyVideoEncoder@CKdvEncoder@@IAEXXZ 10097d60 f   videointerfaceimp.obj
 0002:00095e00       ?RefreshVidCapDevList@CKdvEncoder@@QAEXAAV?$vector@UTDevNameInfo@@V?$allocator@UTDevNameInfo@@@std@@@std@@AAI@Z 10097e00 f   videointerfaceimp.obj
 0002:00096000       ?GetCurVidCapDev@CKdvEncoder@@QAEGAAUTDevNameInfo@@@Z 10098000 f   videointerfaceimp.obj
 0002:000961a0       ?SelectVideoSource@CKdvEncoder@@QAEGPBUVideoCapParam@@PB_W1@Z 100981a0 f   videointerfaceimp.obj
 0002:00096550       ?ChangeCameraParam@CKdvEncoder@@QAEGEIH@Z 10098550 f   videointerfaceimp.obj
 0002:00096620       ?GetCameraParam@CKdvEncoder@@QAEGEAAIAAH@Z 10098620 f   videointerfaceimp.obj
 0002:000966b0       ?GetDefaultCameraParam@CKdvEncoder@@QAEGEAAI000@Z 100986b0 f   videointerfaceimp.obj
 0002:00096750       ?SetVideoIcon@CKdvEncoder@@QAEGH@Z 10098750 f   videointerfaceimp.obj
 0002:000967d0       ?SaveAsPic@CKdvEncoder@@QAEGPB_WE@Z 100987d0 f   videointerfaceimp.obj
 0002:00096900       ?ShowPreview@CKdvEncoder@@QAEGH@Z 10098900 f   videointerfaceimp.obj
 0002:00096980       ?SetEnableHwEnc@CKdvEncoder@@QAEGH@Z 10098980 f   videointerfaceimp.obj
 0002:00096ad0       ?StartVideoCap@CKdvEncoder@@QAEGXZ 10098ad0 f   videointerfaceimp.obj
 0002:00096be0       ?StopVideoCap@CKdvEncoder@@QAEGXZ 10098be0 f   videointerfaceimp.obj
 0002:00096cf0       ?SetVideoEncParam@CKdvEncoder@@QAEGPBUVideoEncParam@@@Z 10098cf0 f   videointerfaceimp.obj
 0002:00097170       ?SetVidCapToEncZoomPolicy@CKdvEncoder@@QAEGW4enZoomMode@@@Z 10099170 f   videointerfaceimp.obj
 0002:00097290       ?GetVideoEncParam@CKdvEncoder@@QAEGAAUVideoEncParam@@@Z 10099290 f   videointerfaceimp.obj
 0002:00097320       ?StartVideoEnc@CKdvEncoder@@QAEGXZ 10099320 f   videointerfaceimp.obj
 0002:000973e0       ?EnableReduceIDRFrameQuality@CKdvEncoder@@QAEGH@Z 100993e0 f   videointerfaceimp.obj
 0002:000974d0       ?StopVideoEnc@CKdvEncoder@@QAEGXZ 100994d0 f   videointerfaceimp.obj
 0002:00097590       ?SetNetSndVideoParam@CKdvEncoder@@QAEGPBUtagMnetNetParam@@@Z 10099590 f   videointerfaceimp.obj
 0002:000977e0       ?RemoveVideoNetSndLocalParam@CKdvEncoder@@QAEGXZ 100997e0 f   videointerfaceimp.obj
 0002:000978f0       ?SetVideoSendId@CKdvEncoder@@QAEGPBDII@Z 100998f0 f   videointerfaceimp.obj
 0002:00097a10       ?GetVideoSendId@CKdvEncoder@@QAEGPADPAI1@Z 10099a10 f   videointerfaceimp.obj
 0002:00097ab0       ?VideoSendEnableKeepAlive@CKdvEncoder@@QAEGHPBUtagMnetNetParam@@@Z 10099ab0 f   videointerfaceimp.obj
 0002:00097c10       ?VideoEnableRtpExStrip@CKdvEncoder@@QAEGH@Z 10099c10 f   videointerfaceimp.obj
 0002:00097cb0       ?SetVideoRtcpStatus@CKdvEncoder@@QAEGW4RTCPSTATUS@@@Z 10099cb0 f   videointerfaceimp.obj
 0002:00097dd0       ?ResetBwe@CKdvEncoder@@QAEGHIII@Z 10099dd0 f   videointerfaceimp.obj
 0002:00097f40       ?GetBweStatus@CKdvEncoder@@QAEGPAIPAUTBweReceiver@@0@Z 10099f40 f   videointerfaceimp.obj
 0002:00097fe0       ?StartSendVideo@CKdvEncoder@@QAEGH@Z 10099fe0 f   videointerfaceimp.obj
 0002:00098100       ?StopSendVideo@CKdvEncoder@@QAEGXZ 1009a100 f   videointerfaceimp.obj
 0002:000981d0       ?SetVidFecEnable@CKdvEncoder@@QAEGH@Z 1009a1d0 f   videointerfaceimp.obj
 0002:00098330       ?SetVidFecPackLen@CKdvEncoder@@QAEGG@Z 1009a330 f   videointerfaceimp.obj
 0002:000983d0       ?SetVidFecIntraFrame@CKdvEncoder@@QAEGH@Z 1009a3d0 f   videointerfaceimp.obj
 0002:00098470       ?SetVidFecMode@CKdvEncoder@@QAEGE@Z 1009a470 f   videointerfaceimp.obj
 0002:00098510       ?SetVidFecXY@CKdvEncoder@@QAEGHH@Z 1009a510 f   videointerfaceimp.obj
 0002:000985b0       ?SetFastUpdate@CKdvEncoder@@QAEGH@Z 1009a5b0 f   videointerfaceimp.obj
 0002:00098670       ?SetVidEncryptKey@CKdvEncoder@@QAEGPADGE@Z 1009a670 f   videointerfaceimp.obj
 0002:00098790       ?SetVideoActivePT@CKdvEncoder@@QAEGEE@Z 1009a790 f   videointerfaceimp.obj
 0002:000988c0       ?SendStaticPicture@CKdvEncoder@@QAEGHPA_W@Z 1009a8c0 f   videointerfaceimp.obj
 0002:000989f0       ?SetVideoDeviceCheckCB@CKdvEncoder@@QAEGP6AXIABV?$vector@UTDevNameInfo@@V?$allocator@UTDevNameInfo@@@std@@@std@@0@ZI@Z 1009a9f0 f   videointerfaceimp.obj
 0002:00098b10       ?SetAddLogoIntoEncStream@CKdvEncoder@@QAEGPAUTFullLogoParam@@@Z 1009ab10 f   videointerfaceimp.obj
 0002:00098be0       ?SetVidEnableCrypt@CKdvEncoder@@QAEGHPATTMnetCryptCfg@@@Z 1009abe0 f   videointerfaceimp.obj
 0002:00098d40       ?SetVidMnetCryptCfgInit@CKdvEncoder@@QAEGPATTMnetCryptCfg@@H@Z 1009ad40 f   videointerfaceimp.obj
 0002:00098de0       ?SetVidMnetCryptCfgSetCipherAlgorithm@CKdvEncoder@@QAEGPATTMnetCryptCfg@@W4TMnetCryptDataType@@W4TMnetCryptAlgoType@@@Z 1009ade0 f   videointerfaceimp.obj
 0002:00098e80       ?SetVidMnetCryptCfgSetAuthAlgorithm@CKdvEncoder@@QAEGPATTMnetCryptCfg@@W4TMnetCryptDataType@@W4TMnetCryptAlgoType@@@Z 1009ae80 f   videointerfaceimp.obj
 0002:00098f20       ?SetVidMnetCryptCfgSetMasterKey@CKdvEncoder@@QAEGPATTMnetCryptCfg@@W4TMnetCryptDataType@@W4TMnetCryptKeyType@@GPAEW4TMnetCrypKeyLen@@4@Z 1009af20 f   videointerfaceimp.obj
 0002:00098fe0       ?SetVidMnetCryptCfgSetCipherKey@CKdvEncoder@@QAEGPATTMnetCryptCfg@@W4TMnetCryptDataType@@GPAE@Z 1009afe0 f   videointerfaceimp.obj
 0002:00099080       ?SetVidMnetCryptCfgSetAuthKey@CKdvEncoder@@QAEGPATTMnetCryptCfg@@W4TMnetCryptDataType@@GPAE@Z 1009b080 f   videointerfaceimp.obj
 0002:00099120       ?SetVidMnetCryptCfgSetPkt@CKdvEncoder@@QAEGPATTMnetCryptCfg@@W4TMnetCryptDataType@@W4TMnetCryptPktType@@@Z 1009b120 f   videointerfaceimp.obj
 0002:000991c0       ?SetVidMnetCryptCfgSetAuthTag@CKdvEncoder@@QAEGPATTMnetCryptCfg@@W4TMnetCryptDataType@@W4TMnetCryptTagLen@@@Z 1009b1c0 f   videointerfaceimp.obj
 0002:00099260       ?GetVidTransportOverhead@CKdvEncoder@@QAEGPAE@Z 1009b260 f   videointerfaceimp.obj
 0002:000992f0       ?EnableSingleSlice@CKdvEncoder@@QAEGH@Z 1009b2f0 f   videointerfaceimp.obj
 0002:00099450       ?SetNetFeedbackVideoParam@CKdvEncoder@@QAEGGH@Z 1009b450 f   videointerfaceimp.obj
 0002:000995b0       ?GrabPic@CKdvEncoder@@QAEXPAUHWND__@@@Z 1009b5b0 f   videointerfaceimp.obj
 0002:000995e0       ?SetDeskSharedVidFrame@CKdvEncoder@@QAEGI@Z 1009b5e0 f   videointerfaceimp.obj
 0002:00099670       ?SetDeskSharedVidCallback@CKdvEncoder@@QAEGP6AXPAXI@ZI@Z 1009b670 f   videointerfaceimp.obj
 0002:00099700       ?SelectCaptureScreen@CKdvEncoder@@QAEGIH@Z 1009b700 f   videointerfaceimp.obj
 0002:00099790       ?GetDeskShareLibVersion@CKdvEncoder@@QAEGPAD@Z 1009b790 f   videointerfaceimp.obj
 0002:00099820       ?EnableCpuAdjust@CKdvEncoder@@QAEGH@Z 1009b820 f   videointerfaceimp.obj
 0002:000998b0       ?GetCpuAdjustStatus@CKdvEncoder@@QAEGAAH@Z 1009b8b0 f   videointerfaceimp.obj
 0002:00099940       ??0CKdvDecoder@@QAE@XZ     1009b940 f   videointerfaceimp.obj
 0002:00099a90       ?DestroyVideoDecoder@CKdvDecoder@@IAEXXZ 1009ba90 f   videointerfaceimp.obj
 0002:00099b30       ??1CKdvDecoder@@UAE@XZ     1009bb30 f   videointerfaceimp.obj
 0002:00099be0       ?InitialVideoDecoder@CKdvDecoder@@QAEGABUtagInitVidDecoder@@@Z 1009bbe0 f   videointerfaceimp.obj
 0002:00099df0       ?GetVidDecoderStatus@CKdvDecoder@@QAEGAAUKdvDecStatus@@@Z 1009bdf0 f   videointerfaceimp.obj
 0002:00099e80       ?GetVidDecoderStatis@CKdvDecoder@@QAEGAAUKdvDecStatis@@@Z 1009be80 f   videointerfaceimp.obj
 0002:00099f10       ?SetEnableHwDec@CKdvDecoder@@QAEGH@Z 1009bf10 f   videointerfaceimp.obj
 0002:0009a000       ?StartVideoDec@CKdvDecoder@@QAEGXZ 1009c000 f   videointerfaceimp.obj
 0002:0009a0c0       ?StopVideoDec@CKdvDecoder@@QAEGXZ 1009c0c0 f   videointerfaceimp.obj
 0002:0009a180       ?StartRcvVideo@CKdvDecoder@@QAEGXZ 1009c180 f   videointerfaceimp.obj
 0002:0009a290       ?StopRcvVideo@CKdvDecoder@@QAEGXZ 1009c290 f   videointerfaceimp.obj
 0002:0009a3a0       ?SetVideoNetRcvParam@CKdvDecoder@@QAEGPBUtagMnetNetParam@@@Z 1009c3a0 f   videointerfaceimp.obj
 0002:0009a5e0       ?RemoveVideoNetRcvLocalParam@CKdvDecoder@@QAEGXZ 1009c5e0 f   videointerfaceimp.obj
 0002:0009a6f0       ?SetNetFeedbackVideoParam@CKdvDecoder@@QAEGH@Z 1009c6f0 f   videointerfaceimp.obj
 0002:0009a850       ?SetVideoRcvId@CKdvDecoder@@QAEGPBDII@Z 1009c850 f   videointerfaceimp.obj
 0002:0009a970       ?GetVideoRcvId@CKdvDecoder@@QAEGPADPAI1@Z 1009c970 f   videointerfaceimp.obj
 0002:0009aa10       ?VideoRcvEnableKeepAlive@CKdvDecoder@@QAEGHPBUtagMnetNetParam@@@Z 1009ca10 f   videointerfaceimp.obj
 0002:0009ab70       ?SetVideoRtcpStatus@CKdvDecoder@@QAEGW4RTCPSTATUS@@@Z 1009cb70 f   videointerfaceimp.obj
 0002:0009ac90       ?ResetBwe@CKdvDecoder@@QAEGH@Z 1009cc90 f   videointerfaceimp.obj
 0002:0009adf0       ?SetMaxDelay@CKdvDecoder@@QAEGEII@Z 1009cdf0 f   videointerfaceimp.obj
 0002:0009af10       ?ClearWindow@CKdvDecoder@@QAEGXZ 1009cf10 f   videointerfaceimp.obj
 0002:0009b020       ?FreezeVideo@CKdvDecoder@@QAEGXZ 1009d020 f   videointerfaceimp.obj
 0002:0009b0d0       ?UnFreezeVideo@CKdvDecoder@@QAEGXZ 1009d0d0 f   videointerfaceimp.obj
 0002:0009b180       ?SetVideoActivePT@CKdvDecoder@@QAEGEE@Z 1009d180 f   videointerfaceimp.obj
 0002:0009b2b0       ?SetVideoActivePT@CKdvDecoder@@QAEGUtagMapSet@@@Z 1009d2b0 f   videointerfaceimp.obj
 0002:0009b410       ?SetVidDecryptKey@CKdvDecoder@@QAEGPADGE@Z 1009d410 f   videointerfaceimp.obj
 0002:0009b530       ?SetVideoDecI420CallBack@CKdvDecoder@@QAEGP6AXPAEHFFI@ZI@Z 1009d530 f   videointerfaceimp.obj
 0002:0009b650       ?SetDrawCallBack@CKdvDecoder@@QAEGP6AXPAUHDC__@@I@ZI@Z 1009d650 f   videointerfaceimp.obj
 0002:0009b770       ?SetReqKeyFrameCB@CKdvDecoder@@QAEGP6AXHI@ZI@Z 1009d770 f   videointerfaceimp.obj
 0002:0009b890       ?SetPlayHwnd@CKdvDecoder@@QAEGPAUHWND__@@H@Z 1009d890 f   videointerfaceimp.obj
 0002:0009b9e0       ?SaveAsPic@CKdvDecoder@@QAEGPB_WE@Z 1009d9e0 f   videointerfaceimp.obj
 0002:0009bb10       ?SetOnlyKeyFrame@CKdvDecoder@@QAEGH@Z 1009db10 f   videointerfaceimp.obj
 0002:0009bba0       ?SetVidDecDblSend@CKdvDecoder@@QAEGPBUtagMnetNetParam@@G@Z 1009dba0 f   videointerfaceimp.obj
 0002:0009bbd0       ?GrabPic@CKdvDecoder@@QAEXPAUHWND__@@@Z 1009dbd0 f   videointerfaceimp.obj
 0002:0009bc00       ?SetVidFecEnable@CKdvDecoder@@QAEGH@Z 1009dc00 f   videointerfaceimp.obj
 0002:0009bd60       ?SetVidDecZoomPolicy@CKdvDecoder@@QAEGW4enZoomMode@@@Z 1009dd60 f   videointerfaceimp.obj
 0002:0009be80       ?SetVidEnableCrypt@CKdvDecoder@@QAEGHPATTMnetCryptCfg@@@Z 1009de80 f   videointerfaceimp.obj
 0002:0009bfe0       ?SetVidMnetCryptCfgInit@CKdvDecoder@@QAEGPATTMnetCryptCfg@@H@Z 1009dfe0 f   videointerfaceimp.obj
 0002:0009c080       ?SetVidMnetCryptCfgSetCipherAlgorithm@CKdvDecoder@@QAEGPATTMnetCryptCfg@@W4TMnetCryptDataType@@W4TMnetCryptAlgoType@@@Z 1009e080 f   videointerfaceimp.obj
 0002:0009c120       ?SetVidMnetCryptCfgSetAuthAlgorithm@CKdvDecoder@@QAEGPATTMnetCryptCfg@@W4TMnetCryptDataType@@W4TMnetCryptAlgoType@@@Z 1009e120 f   videointerfaceimp.obj
 0002:0009c1c0       ?SetVidMnetCryptCfgSetMasterKey@CKdvDecoder@@QAEGPATTMnetCryptCfg@@W4TMnetCryptDataType@@W4TMnetCryptKeyType@@GPAEW4TMnetCrypKeyLen@@4@Z 1009e1c0 f   videointerfaceimp.obj
 0002:0009c270       ?SetVidMnetCryptCfgSetCipherKey@CKdvDecoder@@QAEGPATTMnetCryptCfg@@W4TMnetCryptDataType@@GPAE@Z 1009e270 f   videointerfaceimp.obj
 0002:0009c310       ?SetVidMnetCryptCfgSetAuthKey@CKdvDecoder@@QAEGPATTMnetCryptCfg@@W4TMnetCryptDataType@@GPAE@Z 1009e310 f   videointerfaceimp.obj
 0002:0009c3b0       ?SetVidMnetCryptCfgSetPkt@CKdvDecoder@@QAEGPATTMnetCryptCfg@@W4TMnetCryptDataType@@W4TMnetCryptPktType@@@Z 1009e3b0 f   videointerfaceimp.obj
 0002:0009c450       ?SetVidMnetCryptCfgSetAuthTag@CKdvDecoder@@QAEGPATTMnetCryptCfg@@W4TMnetCryptDataType@@W4TMnetCryptTagLen@@@Z 1009e450 f   videointerfaceimp.obj
 0002:0009c4f0       _CreateMemoryAllocator@4   1009e4f0 f   strmbase:amfilter.obj
 0002:0009c510       _IsEqualGUID@8             1009e510 f i strmbase:amfilter.obj
 0002:0009c590       ?NonDelegatingQueryInterface@CBaseFilter@@UAGJABU_GUID@@PAPAX@Z 1009e590 f   strmbase:amfilter.obj
 0002:0009c660       ?GetState@CBaseFilter@@UAGJKPAW4_FilterState@@@Z 1009e660 f   strmbase:amfilter.obj
 0002:0009c690       ?QueryFilterInfo@CBaseFilter@@UAGJPAU_FilterInfo@@@Z 1009e690 f   strmbase:amfilter.obj
 0002:0009c6f0       ?QueryVendorInfo@CBaseFilter@@UAGJPAPA_W@Z 1009e6f0 f   strmbase:amfilter.obj
 0002:0009c700       ?NotifyEvent@CBaseFilter@@QAEJJJJ@Z 1009e700 f   strmbase:amfilter.obj
 0002:0009c740       ?GetPinVersion@CBaseFilter@@UAEJXZ 1009e740 f   strmbase:amfilter.obj
 0002:0009c750       ??1CAutoLock@@QAE@XZ       1009e750 f i strmbase:amfilter.obj
 0002:0009c760       ??1CUnknown@@UAE@XZ        1009e760 f i strmbase:amfilter.obj
 0002:0009c770       ??1?$CGenericList@VCBasePin@@@@QAE@XZ 1009e770 f i strmbase:amfilter.obj
 0002:0009c780       ??1CEnumPins@@UAE@XZ       1009e780 f   strmbase:amfilter.obj
 0002:0009c7f0       ?QueryInterface@CEnumPins@@UAGJABU_GUID@@PAPAX@Z 1009e7f0 f   strmbase:amfilter.obj
 0002:0009c850       ?AddRef@CEnumPins@@UAGKXZ  1009e850 f   strmbase:amfilter.obj
 0002:0009c870       ?Release@CEnumPins@@UAGKXZ 1009e870 f   strmbase:amfilter.obj
 0002:0009c8a0       ?Reset@CEnumPins@@UAGJXZ   1009e8a0 f   strmbase:amfilter.obj
 0002:0009c8e0       ?Refresh@CEnumPins@@AAGJXZ 1009e8e0 f   strmbase:amfilter.obj
 0002:0009c910       ??1CEnumMediaTypes@@UAE@XZ 1009e910 f   strmbase:amfilter.obj
 0002:0009c930       ?QueryInterface@CEnumMediaTypes@@UAGJABU_GUID@@PAPAX@Z 1009e930 f   strmbase:amfilter.obj
 0002:0009c990       ?AddRef@CEnumMediaTypes@@UAGKXZ 1009e990 f   strmbase:amfilter.obj
 0002:0009c9b0       ?Release@CEnumMediaTypes@@UAGKXZ 1009e9b0 f   strmbase:amfilter.obj
 0002:0009c9e0       ?Reset@CEnumMediaTypes@@UAGJXZ 1009e9e0 f   strmbase:amfilter.obj
 0002:0009ca10       ??1CBasePin@@UAE@XZ        1009ea10 f   strmbase:amfilter.obj
 0002:0009ca80       ?NonDelegatingQueryInterface@CBasePin@@UAGJABU_GUID@@PAPAX@Z 1009ea80 f   strmbase:amfilter.obj
 0002:0009cb10       ?NonDelegatingAddRef@CBasePin@@UAGKXZ 1009eb10 f   strmbase:amfilter.obj
 0002:0009cb30       ?NonDelegatingRelease@CBasePin@@UAGKXZ 1009eb30 f   strmbase:amfilter.obj
 0002:0009cb50       ?CompleteConnect@CBasePin@@UAEJPAUIPin@@@Z 1009eb50 f   strmbase:amfilter.obj
 0002:0009cb60       ?SetMediaType@CBasePin@@UAEJPBVCMediaType@@@Z 1009eb60 f   strmbase:amfilter.obj
 0002:0009cb80       ?CheckConnect@CBasePin@@UAEJPAUIPin@@@Z 1009eb80 f   strmbase:amfilter.obj
 0002:0009cbb0       ?DisconnectInternal@CBasePin@@IAGJXZ 1009ebb0 f   strmbase:amfilter.obj
 0002:0009cbf0       ?ConnectedTo@CBasePin@@UAGJPAPAUIPin@@@Z 1009ebf0 f   strmbase:amfilter.obj
 0002:0009cc30       ?QueryPinInfo@CBasePin@@UAGJPAU_PinInfo@@@Z 1009ec30 f   strmbase:amfilter.obj
 0002:0009ccb0       ?QueryDirection@CBasePin@@UAGJPAW4_PinDirection@@@Z 1009ecb0 f   strmbase:amfilter.obj
 0002:0009cce0       ?QueryAccept@CBasePin@@UAGJPBU_AMMediaType@@@Z 1009ece0 f   strmbase:amfilter.obj
 0002:0009cd10       ?GetMediaTypeVersion@CBasePin@@UAEJXZ 1009ed10 f   strmbase:amfilter.obj
 0002:0009cd20       ?Active@CBasePin@@UAEJXZ   1009ed20 f   strmbase:amfilter.obj
 0002:0009cd30       ?Run@CBasePin@@UAEJ_J@Z    1009ed30 f   strmbase:amfilter.obj
 0002:0009cd40       ?EndOfStream@CBasePin@@UAGJXZ 1009ed40 f   strmbase:amfilter.obj
 0002:0009cd50       ?SetSink@CBasePin@@UAGJPAUIQualityControl@@@Z 1009ed50 f   strmbase:amfilter.obj
 0002:0009cd80       ?NewSegment@CBasePin@@UAGJ_J0N@Z 1009ed80 f   strmbase:amfilter.obj
 0002:0009cdb0       ??1CBaseInputPin@@UAE@XZ   1009edb0 f   strmbase:amfilter.obj
 0002:0009ce20       ?NonDelegatingQueryInterface@CBaseInputPin@@UAGJABU_GUID@@PAPAX@Z 1009ee20 f   strmbase:amfilter.obj
 0002:0009ce80       ?GetAllocator@CBaseInputPin@@UAGJPAPAUIMemAllocator@@@Z 1009ee80 f   strmbase:amfilter.obj
 0002:0009cf40       ?NotifyAllocator@CBaseInputPin@@UAGJPAUIMemAllocator@@H@Z 1009ef40 f   strmbase:amfilter.obj
 0002:0009cfe0       ?BreakConnect@CBaseInputPin@@UAEJXZ 1009efe0 f   strmbase:amfilter.obj
 0002:0009d020       ?Receive@CBaseInputPin@@UAGJPAUIMediaSample@@@Z 1009f020 f   strmbase:amfilter.obj
 0002:0009d190       ?ReceiveMultiple@CBaseInputPin@@UAGJPAPAUIMediaSample@@JPAJ@Z 1009f190 f   strmbase:amfilter.obj
 0002:0009d1e0       ?ReceiveCanBlock@CBaseInputPin@@UAGJXZ 1009f1e0 f   strmbase:amfilter.obj
 0002:0009d2a0       ?BeginFlush@CBaseInputPin@@UAGJXZ 1009f2a0 f   strmbase:amfilter.obj
 0002:0009d2d0       ?EndFlush@CBaseInputPin@@UAGJXZ 1009f2d0 f   strmbase:amfilter.obj
 0002:0009d300       ?Notify@CBaseInputPin@@UAGJPAUIBaseFilter@@UtagQuality@@@Z 1009f300 f   strmbase:amfilter.obj
 0002:0009d320       ?Inactive@CBaseInputPin@@UAEJXZ 1009f320 f   strmbase:amfilter.obj
 0002:0009d350       ?GetAllocatorRequirements@CBaseInputPin@@UAGJPAU_AllocatorProperties@@@Z 1009f350 f   strmbase:amfilter.obj
 0002:0009d360       ?CheckStreaming@CBaseInputPin@@UAEJXZ 1009f360 f   strmbase:amfilter.obj
 0002:0009d390       _AMovieSetupRegisterFilter@12 1009f390 f   strmbase:amfilter.obj
 0002:0009d580       ??1CBaseFilter@@UAE@XZ     1009f580 f   strmbase:amfilter.obj
 0002:0009d600       ?SetSyncSource@CBaseFilter@@UAGJPAUIReferenceClock@@@Z 1009f600 f   strmbase:amfilter.obj
 0002:0009d680       ?GetSyncSource@CBaseFilter@@UAGJPAPAUIReferenceClock@@@Z 1009f680 f   strmbase:amfilter.obj
 0002:0009d710       ?Run@CBaseFilter@@UAGJ_J@Z 1009f710 f   strmbase:amfilter.obj
 0002:0009d830       ?StreamTime@CBaseFilter@@UAEJAAVCRefTime@@@Z 1009f830 f   strmbase:amfilter.obj
 0002:0009d870       ?FindPin@CBaseFilter@@UAGJPB_WPAPAUIPin@@@Z 1009f870 f   strmbase:amfilter.obj
 0002:0009d970       ?JoinFilterGraph@CBaseFilter@@UAGJPAUIFilterGraph@@PB_W@Z 1009f970 f   strmbase:amfilter.obj
 0002:0009da50       ?Register@CBaseFilter@@UAGJXZ 1009fa50 f   strmbase:amfilter.obj
 0002:0009dac0       ?Unregister@CBaseFilter@@UAGJXZ 1009fac0 f   strmbase:amfilter.obj
 0002:0009db40       ??_ECEnumPins@@UAEPAXI@Z   1009fb40 f i strmbase:amfilter.obj
 0002:0009db40       ??_GCEnumPins@@UAEPAXI@Z   1009fb40 f i strmbase:amfilter.obj
 0002:0009db70       ?Next@CEnumPins@@UAGJKPAPAUIPin@@PAK@Z 1009fb70 f   strmbase:amfilter.obj
 0002:0009dc80       ?Skip@CEnumPins@@UAGJK@Z   1009fc80 f   strmbase:amfilter.obj
 0002:0009dcd0       ??_GCEnumMediaTypes@@UAEPAXI@Z 1009fcd0 f i strmbase:amfilter.obj
 0002:0009dcd0       ??_ECEnumMediaTypes@@UAEPAXI@Z 1009fcd0 f i strmbase:amfilter.obj
 0002:0009dd00       ?Next@CEnumMediaTypes@@UAGJKPAPAU_AMMediaType@@PAK@Z 1009fd00 f   strmbase:amfilter.obj
 0002:0009de50       ?Skip@CEnumMediaTypes@@UAGJK@Z 1009fe50 f   strmbase:amfilter.obj
 0002:0009df00       ?AttemptConnection@CBasePin@@IAEJPAUIPin@@PBVCMediaType@@@Z 1009ff00 f   strmbase:amfilter.obj
 0002:0009dfd0       ?TryMediaTypes@CBasePin@@IAEJPAUIPin@@PBVCMediaType@@PAUIEnumMediaTypes@@@Z 1009ffd0 f   strmbase:amfilter.obj
 0002:0009e0b0       ?AgreeMediaType@CBasePin@@IAEJPAUIPin@@PBVCMediaType@@@Z 100a00b0 f   strmbase:amfilter.obj
 0002:0009e190       ?ReceiveConnection@CBasePin@@UAGJPAUIPin@@PBU_AMMediaType@@@Z 100a0190 f   strmbase:amfilter.obj
 0002:0009e340       ?Disconnect@CBasePin@@UAGJXZ 100a0340 f   strmbase:amfilter.obj
 0002:0009e3d0       ?ConnectionMediaType@CBasePin@@UAGJPAU_AMMediaType@@@Z 100a03d0 f   strmbase:amfilter.obj
 0002:0009e480       ?QueryId@CBasePin@@UAGJPAPA_W@Z 100a0480 f   strmbase:amfilter.obj
 0002:0009e4a0       ??0CEnumPins@@QAE@PAVCBaseFilter@@PAV0@@Z 100a04a0 f   strmbase:amfilter.obj
 0002:0009e570       ?Clone@CEnumPins@@UAGJPAPAUIEnumPins@@@Z 100a0570 f   strmbase:amfilter.obj
 0002:0009e620       ??0CEnumMediaTypes@@QAE@PAVCBasePin@@PAV0@@Z 100a0620 f   strmbase:amfilter.obj
 0002:0009e680       ?Clone@CEnumMediaTypes@@UAGJPAPAUIEnumMediaTypes@@@Z 100a0680 f   strmbase:amfilter.obj
 0002:0009e730       ??0CBasePin@@QAE@PA_WPAVCBaseFilter@@PAVCCritSec@@PAJPB_WW4_PinDirection@@@Z 100a0730 f   strmbase:amfilter.obj
 0002:0009e830       ?Connect@CBasePin@@UAGJPAUIPin@@PBU_AMMediaType@@@Z 100a0830 f   strmbase:amfilter.obj
 0002:0009e940       ?EnumMediaTypes@CBasePin@@UAGJPAPAUIEnumMediaTypes@@@Z 100a0940 f   strmbase:amfilter.obj
 0002:0009e9d0       ??0CBaseInputPin@@QAE@PA_WPAVCBaseFilter@@PAVCCritSec@@PAJPB_W@Z 100a09d0 f   strmbase:amfilter.obj
 0002:0009ea20       ??0CBaseFilter@@QAE@PB_WPAUIUnknown@@PAVCCritSec@@ABU_GUID@@@Z 100a0a20 f   strmbase:amfilter.obj
 0002:0009ea80       ?EnumPins@CBaseFilter@@UAGJPAPAUIEnumPins@@@Z 100a0a80 f   strmbase:amfilter.obj
 0002:0009eb10       ?SetType@CMediaType@@QAEXPBU_GUID@@@Z 100a0b10 f   strmbase:mtype.obj
 0002:0009eb30       ?SetSubtype@CMediaType@@QAEXPBU_GUID@@@Z 100a0b30 f   strmbase:mtype.obj
 0002:0009eb60       ?SetVariableSize@CMediaType@@QAEXXZ 100a0b60 f   strmbase:mtype.obj
 0002:0009eb70       ?SetTemporalCompression@CMediaType@@QAEXH@Z 100a0b70 f   strmbase:mtype.obj
 0002:0009eb80       ?SetFormatType@CMediaType@@QAEXPBU_GUID@@@Z 100a0b80 f   strmbase:mtype.obj
 0002:0009ebb0       ?AllocFormatBuffer@CMediaType@@QAEPAEK@Z 100a0bb0 f   strmbase:mtype.obj
 0002:0009ec10       ?InitMediaType@CMediaType@@QAEXXZ 100a0c10 f   strmbase:mtype.obj
 0002:0009ec30       ?IsPartiallySpecified@CMediaType@@QBEHXZ 100a0c30 f   strmbase:mtype.obj
 0002:0009ec60       ?MatchesPartial@CMediaType@@QBEHPBV1@@Z 100a0c60 f   strmbase:mtype.obj
 0002:0009ed30       ?CopyMediaType@@YGJPAU_AMMediaType@@PBU1@@Z 100a0d30 f   strmbase:mtype.obj
 0002:0009eda0       ?FreeMediaType@@YGXAAU_AMMediaType@@@Z 100a0da0 f   strmbase:mtype.obj
 0002:0009ede0       ??1CMediaType@@QAE@XZ      100a0de0 f   strmbase:mtype.obj
 0002:0009edf0       ??0CMediaType@@QAE@XZ      100a0df0 f   strmbase:mtype.obj
 0002:0009ee00       ?Set@CMediaType@@QAEJABU_AMMediaType@@@Z 100a0e00 f   strmbase:mtype.obj
 0002:0009ee40       ?SetSampleSize@CMediaType@@QAEXK@Z 100a0e40 f   strmbase:mtype.obj
 0002:0009ee70       ?DeleteMediaType@@YGXPAU_AMMediaType@@@Z 100a0e70 f   strmbase:mtype.obj
 0002:0009ee90       ?Set@CMediaType@@QAEJABV1@@Z 100a0e90 f   strmbase:mtype.obj
 0002:0009eea0       ??0CBaseObject@@QAE@PB_W@Z 100a0ea0 f   strmbase:combase.obj
 0002:0009eec0       ??1CBaseObject@@QAE@XZ     100a0ec0 f   strmbase:combase.obj
 0002:0009eef0       _GetInterface@8            100a0ef0 f   strmbase:combase.obj
 0002:0009ef20       ??0CUnknown@@QAE@PB_WPAUIUnknown@@@Z 100a0f20 f   strmbase:combase.obj
 0002:0009ef50       ?NonDelegatingQueryInterface@CUnknown@@UAGJABU_GUID@@PAPAX@Z 100a0f50 f   strmbase:combase.obj
 0002:0009efa0       ?NonDelegatingAddRef@CUnknown@@UAGKXZ 100a0fa0 f   strmbase:combase.obj
 0002:0009efd0       ?GetHeadPositionI@CBaseList@@QBEPAU__POSITION@@XZ 100a0fd0 f   strmbase:wxlist.obj
 0002:0009efe0       ??1CNodeCache@CBaseList@@QAE@XZ 100a0fe0 f i strmbase:wxlist.obj
 0002:0009f010       ??0CBaseList@@QAE@PA_W@Z   100a1010 f   strmbase:wxlist.obj
 0002:0009f030       ?RemoveAll@CBaseList@@QAEXXZ 100a1030 f   strmbase:wxlist.obj
 0002:0009f070       ?GetNextI@CBaseList@@IBEPAXAAPAU__POSITION@@@Z 100a1070 f   strmbase:wxlist.obj
 0002:0009f090       ?GetI@CBaseList@@IBEPAXPAU__POSITION@@@Z 100a1090 f   strmbase:wxlist.obj
 0002:0009f0b0       ?FindI@CBaseList@@IBEPAU__POSITION@@PAX@Z 100a10b0 f   strmbase:wxlist.obj
 0002:0009f0f0       ?AddTailI@CBaseList@@IAEPAU__POSITION@@PAX@Z 100a10f0 f   strmbase:wxlist.obj
 0002:0009f160       ?AddTail@CBaseList@@QAEHPAV1@@Z 100a1160 f   strmbase:wxlist.obj
 0002:0009f1b0       ??1CBaseList@@QAE@XZ       100a11b0 f   strmbase:wxlist.obj
 0002:0009f220       _AMGetWideString@8         100a1220 f   strmbase:wxutil.obj
 0002:0009f272       _DirectDrawCreateEx@16     100a1272 f   ddraw:DDRAW.dll
 0002:0009f280       _preprocess                100a1280 f   preprocess:preprocess.obj
 0002:0009f4d0       _yuyv_to_yv12_mmx          100a14d0     preprocess:yuyv_to_yv12_mmx.obj
 0002:0009f610       _uyvy_to_yv12_mmx          100a1610     preprocess:yuyv_to_yv12_mmx.obj
 0002:0009f740       _detect_deinterlacing8_mmx 100a1740     preprocess:deinterlacing_mmx.obj
 0002:0009f880       _detect_deinterlacing8_xmm 100a1880     preprocess:deinterlacing_mmx.obj
 0002:0009f920       _rgb24_to_yv12_c11         100a1920 f   imageprocess:colorspace.obj
 0002:0009fb70       _ImageUnitClose            100a1b70 f   kdimg:kdimg.DLL
 0002:0009fb76       _ImageUnitProcess          100a1b76 f   kdimg:kdimg.DLL
 0002:0009fb7c       _ImageUnitAnalyzeErrorCode 100a1b7c f   kdimg:kdimg.DLL
 0002:0009fb82       _ImageUnitOpen             100a1b82 f   kdimg:kdimg.DLL
 0002:0009fb90       _I420ToNV12                100a1b90 f   libyuv:convert_from.obj
 0002:0009fd00       _I420ToRGB24               100a1d00 f   libyuv:convert_from.obj
 0002:0009fdf0       _InitCpuFlags              100a1df0 f   libyuv:cpu_id.obj
 0002:0009fff0       _CopyPlane                 100a1ff0 f   libyuv:planar_functions.obj
 0002:000a00d0       _I422ToRGB24Row_SSSE3      100a20d0 f   libyuv:row_win.obj
 0002:000a01d0       _MergeUVRow_SSE2           100a21d0 f   libyuv:row_win.obj
 0002:000a0220       _MergeUVRow_Unaligned_SSE2 100a2220 f   libyuv:row_win.obj
 0002:000a0270       _CopyRow_SSE2              100a2270 f   libyuv:row_win.obj
 0002:000a02a0       _CopyRow_ERMS              100a22a0 f   libyuv:row_win.obj
 0002:000a02c0       _CopyRow_X86               100a22c0 f   libyuv:row_win.obj
 0002:000a02e0       _I422ToRGB24Row_C          100a22e0 f   libyuv:row_common.obj
 0002:000a04e0       _MergeUVRow_C              100a24e0 f   libyuv:row_common.obj
 0002:000a0550       _CopyRow_C                 100a2550 f   libyuv:row_common.obj
 0002:000a0570       _I422ToRGB24Row_Any_SSSE3  100a2570 f   libyuv:row_any.obj
 0002:000a05c0       _MergeUVRow_Any_SSE2       100a25c0 f   libyuv:row_any.obj
 0002:000a0600       ??_U@YAPAXI@Z              100a2600 f   msvcprt:newaop_s.obj
 0002:000a060b       __RTC_InitBase             100a260b f   MSVCRT:_init_.obj
 0002:000a0631       __RTC_Shutdown             100a2631 f   MSVCRT:_init_.obj
 0002:000a0643       ??_Etype_info@@UAEPAXI@Z   100a2643 f i MSVCRT:ti_inst.obj
 0002:000a0690       __purecall                 100a2690 f   MSVCRT:MSVCR100.dll
 0002:000a0696       ??3@YAXPAX@Z               100a2696 f   MSVCRT:MSVCR100.dll
 0002:000a069c       __RTC_CheckEsp             100a269c f   MSVCRT:_stack_.obj
 0002:000a06bf       @_RTC_CheckStackVars@8     100a26bf f   MSVCRT:_stack_.obj
 0002:000a071c       ??_V@YAXPAX@Z              100a271c f   MSVCRT:MSVCR100.dll
 0002:000a0722       ?__ArrayUnwind@@YGXPAXIHP6EX0@Z@Z 100a2722 f   MSVCRT:ehvecdtr.obj
 0002:000a0780       ??_M@YGXPAXIHP6EX0@Z@Z     100a2780 f   MSVCRT:ehvecdtr.obj
 0002:000a07e4       ___CxxFrameHandler3        100a27e4 f   MSVCRT:MSVCR100.dll
 0002:000a07ea       @__security_check_cookie@4 100a27ea f   MSVCRT:secchk.obj
 0002:000a07fa       _memcpy                    100a27fa f   MSVCRT:MSVCR100.dll
 0002:000a0800       ??2@YAPAXI@Z               100a2800 f   MSVCRT:MSVCR100.dll
 0002:000a0806       _strcat                    100a2806 f   MSVCRT:MSVCR100.dll
 0002:000a080c       _memset                    100a280c f   MSVCRT:MSVCR100.dll
 0002:000a0812       _printf                    100a2812 f   MSVCRT:MSVCR100.dll
 0002:000a0818       __onexit                   100a2818 f   MSVCRT:atonexit.obj
 0002:000a08b9       _atexit                    100a28b9 f   MSVCRT:atonexit.obj
 0002:000a08d0       _strlen                    100a28d0 f   MSVCRT:MSVCR100.dll
 0002:000a08e0       __alloca_probe             100a28e0     MSVCRT:chkstk.obj
 0002:000a08e0       __chkstk                   100a28e0 f   MSVCRT:chkstk.obj
 0002:000a0910       _strcmp                    100a2910 f   MSVCRT:MSVCR100.dll
 0002:000a0916       _strcpy                    100a2916 f   MSVCRT:MSVCR100.dll
 0002:000a0920       __alldiv                   100a2920 f   MSVCRT:lldiv.obj
 0002:000a09ca       __CxxThrowException@8      100a29ca f   MSVCRT:MSVCR100.dll
 0002:000a09d0       ??0exception@std@@QAE@ABV01@@Z 100a29d0 f   MSVCRT:MSVCR100.dll
 0002:000a09d6       ?what@exception@std@@UBEPBDXZ 100a29d6 f   MSVCRT:MSVCR100.dll
 0002:000a09dc       _log10                     100a29dc f   MSVCRT:MSVCR100.dll
 0002:000a09f0       __ftol2_sse                100a29f0 f   MSVCRT:ftol2.obj
 0002:000a09f9       __ftol2_pentium4           100a29f9 f   MSVCRT:ftol2.obj
 0002:000a0a0c       __ftol2_sse_excpt          100a2a0c f   MSVCRT:ftol2.obj
 0002:000a0a26       __ftol2                    100a2a26 f   MSVCRT:ftol2.obj
 0002:000a0a9c       _memcmp                    100a2a9c f   MSVCRT:MSVCR100.dll
 0002:000a0d5a       ?_RTC_Failure@@YAXPAXH@Z   100a2d5a f   MSVCRT:_error_.obj
 0002:000a0d95       ?_RTC_StackFailure@@YAXPAXPBD@Z 100a2d95 f   MSVCRT:_error_.obj
 0002:000a0e88       __RTC_UninitUse            100a2e88 f   MSVCRT:_error_.obj
 0002:000a0f6a       _wmemcpy_s                 100a2f6a f   MSVCRT:MSVCR100.dll
 0002:000a0f70       _abs                       100a2f70 f   MSVCRT:MSVCR100.dll
 0002:000a0f80       __allshr                   100a2f80 f   MSVCRT:llshr.obj
 0002:000a0fa2       _labs                      100a2fa2 f   MSVCRT:MSVCR100.dll
 0002:000a0fa8       __except_handler4          100a2fa8 f   MSVCRT:chandler4gs.obj
 0002:000a0fd0       __aulldiv                  100a2fd0 f   MSVCRT:ulldiv.obj
 0002:000a1086       __CRT_INIT@12              100a3086 f   MSVCRT:crtdll.obj
 0002:000a13a6       __DllMainCRTStartup@12     100a33a6 f   MSVCRT:crtdll.obj
 0002:000a13d0       __aulldvrm                 100a33d0 f   MSVCRT:ulldvrm.obj
 0002:000a1470       __allmul                   100a3470 f   MSVCRT:llmul.obj
 0002:000a14a4       _getenv                    100a34a4 f   MSVCRT:MSVCR100.dll
 0002:000a14aa       _atoi                      100a34aa f   MSVCRT:MSVCR100.dll
 0002:000a14b0       __RTC_SetErrorFuncW        100a34b0 f   MSVCRT:_userapi_.obj
 0002:000a14cc       ?_RTC_GetErrorFunc@@YAP6AHHPBDH00ZZPBX@Z 100a34cc f   MSVCRT:_userapi_.obj
 0002:000a14d2       ?_RTC_GetErrorFuncW@@YAP6AHHPB_WH00ZZPBX@Z 100a34d2 f   MSVCRT:_userapi_.obj
 0002:000a14d8       __CRT_RTC_INITW            100a34d8 f   MSVCRT:MSVCR100.dll
 0002:000a14de       ?terminate@@YAXXZ          100a34de f   MSVCRT:MSVCR100.dll
 0002:000a14f0       __SEH_prolog4              100a34f0 f   MSVCRT:sehprolg4.obj
 0002:000a1535       __SEH_epilog4              100a3535 f   MSVCRT:sehprolg4.obj
 0002:000a1549       ___report_gsfailure        100a3549 f   MSVCRT:gs_report.obj
 0002:000a1650       __unlock                   100a3650 f   MSVCRT:MSVCR100.dll
 0002:000a1656       ___dllonexit               100a3656 f   MSVCRT:MSVCR100.dll
 0002:000a165c       __lock                     100a365c f   MSVCRT:MSVCR100.dll
 0002:000a1662       ___sse2_available_init     100a3662 f   MSVCRT:cpu_disp.obj
 0002:000a17d1       ?_RTC_GetSrcLine@@YAHPAEPA_WKPAH1K@Z 100a37d1 f   MSVCRT:_pdblkup_.obj
 0002:000a1a5c       __except_handler4_common   100a3a5c f   MSVCRT:MSVCR100.dll
 0002:000a1a62       ___clean_type_info_names   100a3a62 f   MSVCRT:tncleanup.obj
 0002:000a1a6e       __RTC_Initialize           100a3a6e f   MSVCRT:_initsect_.obj
 0002:000a1a94       __RTC_Terminate            100a3a94 f   MSVCRT:_initsect_.obj
 0002:000a1aba       _free                      100a3aba f   MSVCRT:MSVCR100.dll
 0002:000a1ac0       __ValidateImageBase        100a3ac0 f   MSVCRT:pesect.obj
 0002:000a1b00       __FindPESection            100a3b00 f   MSVCRT:pesect.obj
 0002:000a1b50       __IsNonwritableInCurrentImage 100a3b50 f   MSVCRT:pesect.obj
 0002:000a1c0c       __initterm                 100a3c0c f   MSVCRT:MSVCR100.dll
 0002:000a1c12       __initterm_e               100a3c12 f   MSVCRT:MSVCR100.dll
 0002:000a1c18       __amsg_exit                100a3c18 f   MSVCRT:MSVCR100.dll
 0002:000a1c1e       ___CppXcptFilter           100a3c1e f   MSVCRT:MSVCR100.dll
 0002:000a1c24       ___security_init_cookie    100a3c24 f   MSVCRT:gs_support.obj
 0002:000a1cc0       ??1type_info@@UAE@XZ       100a3cc0 f   MSVCRT:MSVCR100.dll
 0002:000a1cc0       ?_type_info_dtor_internal_method@type_info@@QAEXXZ 100a3cc0 f   MSVCRT:MSVCR100.dll
 0002:000a1cc6       __crt_debugger_hook        100a3cc6 f   MSVCRT:MSVCR100.dll
 0002:000a1ccc       ___clean_type_info_names_internal 100a3ccc f   MSVCRT:MSVCR100.dll
 0002:000a1ce0       _hmpv_inprodadd_ps64_ps16  100a3ce0 f   speech_excit:Speech_Excit.obj
 0002:000a1d90       _SpeechExcitInit           100a3d90 f   speech_excit:Speech_Excit.obj
 0002:000a1dd0       _SpeechExcitClose          100a3dd0 f   speech_excit:Speech_Excit.obj
 0002:000a1de0       _SetSeSpLevel              100a3de0 f   speech_excit:Speech_Excit.obj
 0002:000a1e10       _SpeechExcitProc           100a3e10 f   speech_excit:Speech_Excit.obj
 0002:000a2000       _SetMp3SpeechFlg           100a4000 f   speech_excit:Speech_Excit.obj
 0002:000a2030       _DrawDibOpen@0             100a4030 f   vfw32:MSVFW32.dll
 0002:000a2036       _DrawDibClose@4            100a4036 f   vfw32:MSVFW32.dll
 0002:000a203c       _DrawDibBegin@32           100a403c f   vfw32:MSVFW32.dll
 0002:000a2042       _DrawDibDraw@52            100a4042 f   vfw32:MSVFW32.dll
 0002:000a2048       _ICClose@4                 100a4048 f   vfw32:MSVFW32.dll
 0002:000a204e       _ICSendMessage@16          100a404e f   vfw32:MSVFW32.dll
 0002:000a2054       _ICDecompress              100a4054 f   vfw32:MSVFW32.dll
 0002:000a205a       _ICLocate@20               100a405a f   vfw32:MSVFW32.dll
 0002:000a2060       _ICOpen@12                 100a4060 f   vfw32:MSVFW32.dll
 0002:000a2066       _ICCompress                100a4066 f   vfw32:MSVFW32.dll
 0002:000a206c       ?log@CInstance@@IAAXEPADZZ 100a406c f   ospdll:OspDll.dll
 0002:000a2072       ?GetAppID@CInstance@@QAEGXZ 100a4072 f   ospdll:OspDll.dll
 0002:000a2078       _OspPrintf                 100a4078 f   ospdll:OspDll.dll
 0002:000a207e       _OspPton                   100a407e f   ospdll:OspDll.dll
 0002:000a2084       _OspTaskDelay              100a4084 f   ospdll:OspDll.dll
 0002:000a208a       _OspGetCpuInfo             100a408a f   ospdll:OspDll.dll
 0002:000a2090       _OspRegistModule           100a4090 f   ospdll:OspDll.dll
 0002:000a2096       _OspInit                   100a4096 f   ospdll:OspDll.dll
 0002:000a209c       _IsOspInitd                100a409c f   ospdll:OspDll.dll
 0002:000a20a2       _OspQuit                   100a40a2 f   ospdll:OspDll.dll
 0002:000a20b0       _ConvertBMPToYUV420AndAlpha 100a40b0 f   logowin:addlogo.obj
 0002:000a3a70       _AddLogo                   100a5a70 f   logowin:addlogo.obj
 0002:000a3e30       _RGB2JPGFile               100a5e30 f   jpeg2:main.obj
 0002:000a40a0       ?jpeg_CreateCompress@@YAXPAUjpeg_compress_struct@@HI@Z 100a60a0 f   jpeg2:jcapimin.obj
 0002:000a4170       ?jpeg_destroy_compress@@YAXPAUjpeg_compress_struct@@@Z 100a6170 f   jpeg2:jcapimin.obj
 0002:000a4180       ?jpeg_suppress_tables@@YAXPAUjpeg_compress_struct@@E@Z 100a6180 f   jpeg2:jcapimin.obj
 0002:000a41d0       ?jpeg_finish_compress@@YAXPAUjpeg_compress_struct@@@Z 100a61d0 f   jpeg2:jcapimin.obj
 0002:000a42e0       ?jpeg_start_compress@@YAXPAUjpeg_compress_struct@@E@Z 100a62e0 f   jpeg2:jcapistd.obj
 0002:000a4360       ?jpeg_write_scanlines@@YAIPAUjpeg_compress_struct@@PAPAEI@Z 100a6360 f   jpeg2:jcapistd.obj
 0002:000a4430       ?jpeg_add_quant_table@@YAXPAUjpeg_compress_struct@@HPBIHE@Z 100a6430 f   jpeg2:jcparam.obj
 0002:000a4510       ?jpeg_set_linear_quality@@YAXPAUjpeg_compress_struct@@HE@Z 100a6510 f   jpeg2:jcparam.obj
 0002:000a4550       ?jpeg_quality_scaling@@YAHH@Z 100a6550 f   jpeg2:jcparam.obj
 0002:000a4590       ?jpeg_set_quality@@YAXPAUjpeg_compress_struct@@HE@Z 100a6590 f   jpeg2:jcparam.obj
 0002:000a45b0       ?jpeg_set_defaults@@YAXPAUjpeg_compress_struct@@@Z 100a65b0 f   jpeg2:jcparam.obj
 0002:000a47b0       ?jpeg_default_colorspace@@YAXPAUjpeg_compress_struct@@@Z 100a67b0 f   jpeg2:jcparam.obj
 0002:000a4830       ?jpeg_set_colorspace@@YAXPAUjpeg_compress_struct@@W4J_COLOR_SPACE@@@Z 100a6830 f   jpeg2:jcparam.obj
 0002:000a4b30       ?jpeg_stdio_dest@@YAXPAUjpeg_compress_struct@@PAU_iobuf@@@Z 100a6b30 f   jpeg2:jdatadst.obj
 0002:000a4c60       ?jpeg_std_error@@YAPAUjpeg_error_mgr@@PAU1@@Z 100a6c60 f   jpeg2:jerror.obj
 0002:000a4e20       ?jinit_memory_mgr@@YAXPAUjpeg_common_struct@@@Z 100a6e20 f   jpeg2:jmemmgr.obj
 0002:000a5a40       ?jpeg_abort@@YAXPAUjpeg_common_struct@@@Z 100a7a40 f   jpeg2:jcomapi.obj
 0002:000a5a80       ?jpeg_destroy@@YAXPAUjpeg_common_struct@@@Z 100a7a80 f   jpeg2:jcomapi.obj
 0002:000a5aa0       ?jpeg_alloc_quant_table@@YAPAUJQUANT_TBL@@PAUjpeg_common_struct@@@Z 100a7aa0 f   jpeg2:jcomapi.obj
 0002:000a5ac0       ?jpeg_alloc_huff_table@@YAPAUJHUFF_TBL@@PAUjpeg_common_struct@@@Z 100a7ac0 f   jpeg2:jcomapi.obj
 0002:000a5ae0       ?jinit_marker_writer@@YAXPAUjpeg_compress_struct@@@Z 100a7ae0 f   jpeg2:jcmarker.obj
 0002:000a63d0       ?jinit_compress_master@@YAXPAUjpeg_compress_struct@@@Z 100a83d0 f   jpeg2:jcinit.obj
 0002:000a6490       ?jpeg_get_small@@YAPAXPAUjpeg_common_struct@@I@Z 100a8490 f   jpeg2:jmemnobs.obj
 0002:000a64a0       ?jpeg_free_small@@YAXPAUjpeg_common_struct@@PAXI@Z 100a84a0 f   jpeg2:jmemnobs.obj
 0002:000a64b0       ?jpeg_get_large@@YAPAXPAUjpeg_common_struct@@I@Z 100a84b0 f   jpeg2:jmemnobs.obj
 0002:000a64c0       ?jpeg_free_large@@YAXPAUjpeg_common_struct@@PAXI@Z 100a84c0 f   jpeg2:jmemnobs.obj
 0002:000a64d0       ?jpeg_mem_available@@YAJPAUjpeg_common_struct@@JJJ@Z 100a84d0 f   jpeg2:jmemnobs.obj
 0002:000a64e0       ?jpeg_open_backing_store@@YAXPAUjpeg_common_struct@@PAUbacking_store_struct@@J@Z 100a84e0 f   jpeg2:jmemnobs.obj
 0002:000a6500       ?jpeg_mem_init@@YAJPAUjpeg_common_struct@@@Z 100a8500 f   jpeg2:jmemnobs.obj
 0002:000a6510       ?jpeg_mem_term@@YAXPAUjpeg_common_struct@@@Z 100a8510 f   jpeg2:jmemnobs.obj
 0002:000a6520       ?jdiv_round_up@@YAJJJ@Z    100a8520 f   jpeg2:jutils.obj
 0002:000a6530       ?jround_up@@YAJJJ@Z        100a8530 f   jpeg2:jutils.obj
 0002:000a6550       ?jcopy_sample_rows@@YAXPAPAEH0HHI@Z 100a8550 f   jpeg2:jutils.obj
 0002:000a65a0       ?jzero_far@@YAXPAXI@Z      100a85a0 f   jpeg2:jutils.obj
 0002:000a65c0       ?jinit_c_main_controller@@YAXPAUjpeg_compress_struct@@E@Z 100a85c0 f   jpeg2:jcmainct.obj
 0002:000a6750       ?jinit_c_coef_controller@@YAXPAUjpeg_compress_struct@@E@Z 100a8750 f   jpeg2:jccoefct.obj
 0002:000a6fc0       ?jpeg_make_c_derived_tbl@@YAXPAUjpeg_compress_struct@@EHPAPAUc_derived_tbl@@@Z 100a8fc0 f   jpeg2:jchuff.obj
 0002:000a71d0       ?jpeg_gen_optimal_table@@YAXPAUjpeg_compress_struct@@PAUJHUFF_TBL@@QAJ@Z 100a91d0 f   jpeg2:jchuff.obj
 0002:000a7400       ?jinit_huff_encoder@@YAXPAUjpeg_compress_struct@@@Z 100a9400 f   jpeg2:jchuff.obj
 0002:000a7d60       ?jinit_phuff_encoder@@YAXPAUjpeg_compress_struct@@@Z 100a9d60 f   jpeg2:jcphuff.obj
 0002:000a8970       ?jinit_forward_dct@@YAXPAUjpeg_compress_struct@@@Z 100aa970 f   jpeg2:jcdctmgr.obj
 0002:000a8f40       ?jinit_c_prep_controller@@YAXPAUjpeg_compress_struct@@E@Z 100aaf40 f   jpeg2:jcprepct.obj
 0002:000a9500       ?jinit_downsampler@@YAXPAUjpeg_compress_struct@@@Z 100ab500 f   jpeg2:jcsample.obj
 0002:000a9f20       ?jinit_color_converter@@YAXPAUjpeg_compress_struct@@@Z 100abf20 f   jpeg2:jccolor.obj
 0002:000aa6b0       ?jinit_c_master_control@@YAXPAUjpeg_compress_struct@@E@Z 100ac6b0 f   jpeg2:jcmaster.obj
 0002:000ab210       ?jpeg_fdct_islow@@YAXPAH@Z 100ad210 f   jpeg2:jfdctint.obj
 0002:000ab610       ?jpeg_fdct_ifast@@YAXPAH@Z 100ad610 f   jpeg2:jfdctfst.obj
 0002:000ab860       ?jpeg_fdct_float@@YAXPAM@Z 100ad860 f   jpeg2:jfdctflt.obj
 0002:000abad0       _VadOpen                   100adad0 f   vadlib:audio_vad.obj
 0002:000abc70       _VadProcess                100adc70 f   vadlib:audio_vad.obj
 0002:000abd10       _VadReset                  100add10 f   vadlib:audio_vad.obj
 0002:000abdc0       _VadClose                  100addc0 f   vadlib:audio_vad.obj
 0002:000abe40       _Vad_Init                  100ade40 f   vadlib:webrtc_vad.obj
 0002:000abe50       _Vad_set_mode              100ade50 f   vadlib:webrtc_vad.obj
 0002:000abe70       _SubVad_Process            100ade70 f   vadlib:webrtc_vad.obj
 0002:000ac720       _Vad_set_mode_core         100ae720 f   vadlib:vad_core.obj
 0002:000ac900       _Vad_CalcVad8khz           100ae900 f   vadlib:vad_core.obj
 0002:000ac950       _AdjustInParaFd            100ae950 f   vadlib:vad_core.obj
 0002:000ac9f0       _Vad_InitCore              100ae9f0 f   vadlib:vad_core.obj
 0002:000acb00       _Vad_CalcVad48khz          100aeb00 f   vadlib:vad_core.obj
 0002:000acb70       _Vad_CalcVad32khz          100aeb70 f   vadlib:vad_core.obj
 0002:000acc00       _Vad_CalcVad16khz          100aec00 f   vadlib:vad_core.obj
 0002:000acc70       _Vad_Downsampling          100aec70 f   vadlib:vad_sp.obj
 0002:000acd00       _Vad_FindMinimum           100aed00 f   vadlib:vad_sp.obj
 0002:000acef0       _VadSpl_DivW32W16          100aeef0 f   vadlib:division_operations.obj
 0002:000acf10       _Vad_GaussianProbability   100aef10 f   vadlib:vad_gmm.obj
 0002:000ad1e0       _Vad_CalculateFeatures     100af1e0 f   vadlib:vad_filterbank.obj
 0002:000ad3d0       _ResampleTrans48KTo8K      100af3d0 f   vadlib:vad_resample.obj
 0002:000ad4f0       _VadSpl_Energy             100af4f0 f   vadlib:energy.obj
 0002:000ad590       _VadSpl_GetScalingSquare   100af590 f   vadlib:get_scaling_square.obj
 0002:000ad640       _SpeOpen                   100af640 f   spe_win32:spe_nsx.obj
 0002:000ad7e0       _SpeProcess                100af7e0 f   spe_win32:spe_nsx.obj
 0002:000ad9a0       _SpeClose                  100af9a0 f   spe_win32:spe_nsx.obj
 0002:000ae2d0       _WebRtcNsx_CalcParametricNoiseEstimate 100b02d0 f   spe_win32:nsx_core.obj
 0002:000ae3a0       _WebRtcNsx_set_policy_core 100b03a0 f   spe_win32:nsx_core.obj
 0002:000ae460       _WebRtcNsx_FeatureParameterExtraction 100b0460 f   spe_win32:nsx_core.obj
 0002:000ae800       _WebRtcNsx_ComputeSpectralFlatness 100b0800 f   spe_win32:nsx_core.obj
 0002:000aea00       _WebRtcNsx_ComputeSpectralDifference 100b0a00 f   spe_win32:nsx_core.obj
 0002:000aecb0       _WebRtcNsx_SpeechNoiseProb 100b0cb0 f   spe_win32:nsx_core.obj
 0002:000af2f0       _WebRtcNsx_DataAnalysis    100b12f0 f   spe_win32:nsx_core.obj
 0002:000af8c0       _WebRtcNsx_DataSynthesis   100b18c0 f   spe_win32:nsx_core.obj
 0002:000afad0       _WebRtcNsx_ProcessCore     100b1ad0 f   spe_win32:nsx_core.obj
 0002:000b0820       _WebRtcNsx_InitCore        100b2820 f   spe_win32:nsx_core.obj
 0002:000b0b90       _WriteLoopBuf              100b2b90 f   spe_win32:read_write_buf.obj
 0002:000b0c00       _ReadLoopBuf               100b2c00 f   spe_win32:read_write_buf.obj
 0002:000b0c70       _WebRtcSpl_AllPassQMF      100b2c70 f   spe_win32:splitting_filter.obj
 0002:000b0f00       _WebRtcSpl_AnalysisQMF     100b2f00 f   spe_win32:splitting_filter.obj
 0002:000b1200       _WebRtcSpl_SynthesisQMF    100b3200 f   spe_win32:splitting_filter.obj
 0002:000b1360       _WebRtcSpl_MemSetW16       100b3360 f   spe_win32:copy_set_operations.obj
 0002:000b1390       _WebRtcSpl_ZerosArrayW16   100b3390 f   spe_win32:copy_set_operations.obj
 0002:000b13b0       _WebRtcSpl_DivU32U16       100b33b0 f   spe_win32:division_operations.obj
 0002:000b13d0       _WebRtcSpl_DivW32W16       100b33d0 f   spe_win32:division_operations.obj
 0002:000b13f0       _WebRtcSpl_DivW32W16ResW16 100b33f0 f   spe_win32:division_operations.obj
 0002:000b1410       _WebRtcSpl_SqrtFloor       100b3410 f   spe_win32:spl_sqrt_floor.obj
 0002:000b1540       _WebRtcSpl_Energy          100b3540 f   spe_win32:energy.obj
 0002:000b1590       _WebRtcSpl_RealForwardFFTC 100b3590 f   spe_win32:real_fft.obj
 0002:000b15d0       _WebRtcSpl_RealInverseFFTC 100b35d0 f   spe_win32:real_fft.obj
 0002:000b1610       _WebRtcSpl_MaxAbsValueW16C 100b3610 f   spe_win32:min_max_operations.obj
 0002:000b1670       _WebRtcSpl_MaxValueW16C    100b3670 f   spe_win32:min_max_operations.obj
 0002:000b1700       _WebRtcSpl_GetScalingSquare 100b3700 f   spe_win32:get_scaling_square.obj
 0002:000b17b0       _WebRtcSpl_ComplexFFT      100b37b0 f   spe_win32:complex_fft.obj
 0002:000b1a60       _WebRtcSpl_ComplexIFFT     100b3a60 f   spe_win32:complex_fft.obj
 0002:000b1d60       _WebRtcSpl_ComplexBitReverse 100b3d60 f   spe_win32:complex_bit_reverse.obj
 0002:000b1e0c       _MoFreeMediaType@4         100b3e0c f   Msdmo:msdmo.dll
 0002:000b1e12       _MoInitMediaType@8         100b3e12 f   Msdmo:msdmo.dll
 0002:000b1e18       _VerQueryValueW@16         100b3e18 f   version:VERSION.dll
 0002:000b1e1e       _GetFileVersionInfoW@16    100b3e1e f   version:VERSION.dll
 0002:000b1e24       _GetFileVersionInfoSizeW@8 100b3e24 f   version:VERSION.dll
 0002:000b1e30       __aullshr                  100b3e30 f   MSVCRT:ullshr.obj
 0002:000b1e50       _malloc                    100b3e50 f   MSVCRT:MSVCR100.dll
 0002:000b1e56       __ftol                     100b3e56 f   MSVCRT:MSVCR100.dll
 0002:000b2090       _VideoMemMalloc_c          100b4090 f   videomanage_win32:mm_dbg_c.obj
 0002:000b2130       _VideoMemFree_c            100b4130 f   videomanage_win32:mm_dbg_c.obj
 0002:000b21f0       _VideoMemClose_c           100b41f0 f   videomanage_win32:mm_dbg_c.obj
 0002:000b2230       _VideoMalloc               100b4230 f   videomanage_win32:res_videomanage_c.obj
 0002:000b2290       _VideoMemInitial_c         100b4290 f   videomanage_win32:res_videomanage_c.obj
 0002:000b23b0       _VideoMemMalloc_inner_c    100b43b0 f   videomanage_win32:res_videomanage_c.obj
 0002:000b2400       _VideoMemFree_inner_c      100b4400 f   videomanage_win32:res_videomanage_c.obj
 0002:000b2410       _VideoMemClose_inner_c     100b4410 f   videomanage_win32:res_videomanage_c.obj
 0003:00000000       __imp__RegQueryValueExA@24 100ba000     advapi32:ADVAPI32.dll
 0003:00000004       __imp__RegOpenKeyExW@20    100ba004     advapi32:ADVAPI32.dll
 0003:00000008       __imp__RegQueryValueExW@24 100ba008     advapi32:ADVAPI32.dll
 0003:0000000c       __imp__RegOpenKeyExA@20    100ba00c     advapi32:ADVAPI32.dll
 0003:00000010       __imp__RegCloseKey@4       100ba010     advapi32:ADVAPI32.dll
 0003:00000014       \177ADVAPI32_NULL_THUNK_DATA 100ba014     advapi32:ADVAPI32.dll
 0003:00000018       __imp_??1CAudioCollect@@QAE@XZ 100ba018     AVCollection:AVCollection.dll
 0003:0000001c       __imp_??0CAudioCollect@@QAE@XZ 100ba01c     AVCollection:AVCollection.dll
 0003:00000020       __imp_?Destroy@CAudioCollect@@QAEHXZ 100ba020     AVCollection:AVCollection.dll
 0003:00000024       __imp_?StopAudCapture@CAudioCollect@@QAEHXZ 100ba024     AVCollection:AVCollection.dll
 0003:00000028       __imp_?StartAudCapture@CAudioCollect@@QAEH_N@Z 100ba028     AVCollection:AVCollection.dll
 0003:0000002c       __imp_?SetAudioCallBack@CAudioCollect@@QAE_NP6AXPAEHHHPAXH@Z1@Z 100ba02c     AVCollection:AVCollection.dll
 0003:00000030       __imp_?InitAudCap@CAudioCollect@@QAEHXZ 100ba030     AVCollection:AVCollection.dll
 0003:00000034       __imp_??1CVideoCollect@@QAE@XZ 100ba034     AVCollection:AVCollection.dll
 0003:00000038       __imp_??0CVideoCollect@@QAE@XZ 100ba038     AVCollection:AVCollection.dll
 0003:0000003c       __imp_?SetFrameRate@CVideoCollect@@QAEHH@Z 100ba03c     AVCollection:AVCollection.dll
 0003:00000040       __imp_?SetVideoCallBack@CVideoCollect@@QAE_NP6AXPAEHHHPAXH@Z1@Z 100ba040     AVCollection:AVCollection.dll
 0003:00000044       __imp_?InitVideoCap@CVideoCollect@@QAEHXZ 100ba044     AVCollection:AVCollection.dll
 0003:00000048       __imp_?AvCheckAuth@@YA_NPADH@Z 100ba048     AVCollection:AVCollection.dll
 0003:0000004c       __imp_?AvMd5Encode@@YAXPAD0@Z 100ba04c     AVCollection:AVCollection.dll
 0003:00000050       __imp_?Destroy@CVideoCollect@@QAEHXZ 100ba050     AVCollection:AVCollection.dll
 0003:00000054       __imp_?StopVidCapture@CVideoCollect@@QAEHXZ 100ba054     AVCollection:AVCollection.dll
 0003:00000058       __imp_?StartVidCapture@CVideoCollect@@QAEH_N@Z 100ba058     AVCollection:AVCollection.dll
 0003:0000005c       __imp_?GetCurrentVer@CVideoCollect@@QAEXPAD@Z 100ba05c     AVCollection:AVCollection.dll
 0003:00000060       __imp_?SelectCaptureScreen@CVideoCollect@@QAE_NH@Z 100ba060     AVCollection:AVCollection.dll
 0003:00000064       \177AVCollection_NULL_THUNK_DATA 100ba064     AVCollection:AVCollection.dll
 0003:00000068       __imp__DirectDrawCreateEx@16 100ba068     ddraw:DDRAW.dll
 0003:0000006c       \177DDRAW_NULL_THUNK_DATA  100ba06c     ddraw:DDRAW.dll
 0003:00000070       __imp__SelectObject@8      100ba070     gdi32:GDI32.dll
 0003:00000074       __imp__CreatePen@12        100ba074     gdi32:GDI32.dll
 0003:00000078       __imp__DeleteObject@4      100ba078     gdi32:GDI32.dll
 0003:0000007c       __imp__DeleteDC@4          100ba07c     gdi32:GDI32.dll
 0003:00000080       __imp__BitBlt@36           100ba080     gdi32:GDI32.dll
 0003:00000084       __imp__CreateCompatibleBitmap@12 100ba084     gdi32:GDI32.dll
 0003:00000088       __imp__CreateCompatibleDC@4 100ba088     gdi32:GDI32.dll
 0003:0000008c       __imp__MoveToEx@16         100ba08c     gdi32:GDI32.dll
 0003:00000090       __imp__SetStretchBltMode@8 100ba090     gdi32:GDI32.dll
 0003:00000094       __imp__GetDIBits@28        100ba094     gdi32:GDI32.dll
 0003:00000098       __imp__StretchBlt@44       100ba098     gdi32:GDI32.dll
 0003:0000009c       __imp__SetBrushOrgEx@16    100ba09c     gdi32:GDI32.dll
 0003:000000a0       __imp__SetDIBits@28        100ba0a0     gdi32:GDI32.dll
 0003:000000a4       __imp__CreateSolidBrush@4  100ba0a4     gdi32:GDI32.dll
 0003:000000a8       __imp__StretchDIBits@52    100ba0a8     gdi32:GDI32.dll
 0003:000000ac       __imp__LineTo@12           100ba0ac     gdi32:GDI32.dll
 0003:000000b0       \177GDI32_NULL_THUNK_DATA  100ba0b0     gdi32:GDI32.dll
 0003:000000b4       __imp__FormatMessageW@28   100ba0b4     kernel32:KERNEL32.dll
 0003:000000b8       __imp__GetLastError@0      100ba0b8     kernel32:KERNEL32.dll
 0003:000000bc       __imp__FreeLibrary@4       100ba0bc     kernel32:KERNEL32.dll
 0003:000000c0       __imp__GetVersionExW@4     100ba0c0     kernel32:KERNEL32.dll
 0003:000000c4       __imp__GetCurrentProcess@0 100ba0c4     kernel32:KERNEL32.dll
 0003:000000c8       __imp__GetSystemInfo@4     100ba0c8     kernel32:KERNEL32.dll
 0003:000000cc       __imp__VerifyVersionInfoW@16 100ba0cc     kernel32:KERNEL32.dll
 0003:000000d0       __imp__VerSetConditionMask@16 100ba0d0     kernel32:KERNEL32.dll
 0003:000000d4       __imp__GetModuleFileNameW@12 100ba0d4     kernel32:KERNEL32.dll
 0003:000000d8       __imp__LoadLibraryW@4      100ba0d8     kernel32:KERNEL32.dll
 0003:000000dc       __imp__FormatMessageA@28   100ba0dc     kernel32:KERNEL32.dll
 0003:000000e0       __imp__GetModuleHandleA@4  100ba0e0     kernel32:KERNEL32.dll
 0003:000000e4       __imp__GetProcessTimes@20  100ba0e4     kernel32:KERNEL32.dll
 0003:000000e8       __imp__OpenProcess@12      100ba0e8     kernel32:KERNEL32.dll
 0003:000000ec       __imp__GetCurrentProcessId@0 100ba0ec     kernel32:KERNEL32.dll
 0003:000000f0       __imp__GetThreadTimes@20   100ba0f0     kernel32:KERNEL32.dll
 0003:000000f4       __imp__GetProcAddress@8    100ba0f4     kernel32:KERNEL32.dll
 0003:000000f8       __imp__GetCurrentThreadId@0 100ba0f8     kernel32:KERNEL32.dll
 0003:000000fc       __imp__GetPrivateProfileStringW@24 100ba0fc     kernel32:KERNEL32.dll
 0003:00000100       __imp__GetModuleHandleW@4  100ba100     kernel32:KERNEL32.dll
 0003:00000104       __imp__WritePrivateProfileStringW@16 100ba104     kernel32:KERNEL32.dll
 0003:00000108       __imp__InterlockedIncrement@4 100ba108     kernel32:KERNEL32.dll
 0003:0000010c       __imp__InterlockedDecrement@4 100ba10c     kernel32:KERNEL32.dll
 0003:00000110       __imp__WideCharToMultiByte@32 100ba110     kernel32:KERNEL32.dll
 0003:00000114       __imp__GetFileAttributesA@4 100ba114     kernel32:KERNEL32.dll
 0003:00000118       __imp__CreateDirectoryW@8  100ba118     kernel32:KERNEL32.dll
 0003:0000011c       __imp__DeleteFileW@4       100ba11c     kernel32:KERNEL32.dll
 0003:00000120       __imp__GetFileAttributesW@4 100ba120     kernel32:KERNEL32.dll
 0003:00000124       __imp__GetDiskFreeSpaceW@20 100ba124     kernel32:KERNEL32.dll
 0003:00000128       __imp__TryEnterCriticalSection@4 100ba128     kernel32:KERNEL32.dll
 0003:0000012c       __imp__RaiseException@16   100ba12c     kernel32:KERNEL32.dll
 0003:00000130       __imp__GetCurrentThread@0  100ba130     kernel32:KERNEL32.dll
 0003:00000134       __imp__WriteFile@20        100ba134     kernel32:KERNEL32.dll
 0003:00000138       __imp__CreateFileA@28      100ba138     kernel32:KERNEL32.dll
 0003:0000013c       __imp__MultiByteToWideChar@24 100ba13c     kernel32:KERNEL32.dll
 0003:00000140       __imp__lstrcpynW@12        100ba140     kernel32:KERNEL32.dll
 0003:00000144       __imp__lstrcmpW@8          100ba144     kernel32:KERNEL32.dll
 0003:00000148       __imp__lstrlenW@4          100ba148     kernel32:KERNEL32.dll
 0003:0000014c       __imp__InterlockedExchange@8 100ba14c     kernel32:KERNEL32.dll
 0003:00000150       __imp__LoadLibraryA@4      100ba150     kernel32:KERNEL32.dll
 0003:00000154       __imp__GetModuleFileNameA@12 100ba154     kernel32:KERNEL32.dll
 0003:00000158       __imp__GetSystemTimeAsFileTime@4 100ba158     kernel32:KERNEL32.dll
 0003:0000015c       __imp__QueryPerformanceCounter@4 100ba15c     kernel32:KERNEL32.dll
 0003:00000160       __imp__VirtualQuery@12     100ba160     kernel32:KERNEL32.dll
 0003:00000164       __imp__GetProcessHeap@0    100ba164     kernel32:KERNEL32.dll
 0003:00000168       __imp__HeapAlloc@12        100ba168     kernel32:KERNEL32.dll
 0003:0000016c       __imp__HeapFree@12         100ba16c     kernel32:KERNEL32.dll
 0003:00000170       __imp__IsProcessorFeaturePresent@4 100ba170     kernel32:KERNEL32.dll
 0003:00000174       __imp__SetUnhandledExceptionFilter@4 100ba174     kernel32:KERNEL32.dll
 0003:00000178       __imp__UnhandledExceptionFilter@4 100ba178     kernel32:KERNEL32.dll
 0003:0000017c       __imp__TerminateProcess@8  100ba17c     kernel32:KERNEL32.dll
 0003:00000180       __imp__InterlockedCompareExchange@12 100ba180     kernel32:KERNEL32.dll
 0003:00000184       __imp__IsDebuggerPresent@0 100ba184     kernel32:KERNEL32.dll
 0003:00000188       __imp__DecodePointer@4     100ba188     kernel32:KERNEL32.dll
 0003:0000018c       __imp__EncodePointer@4     100ba18c     kernel32:KERNEL32.dll
 0003:00000190       __imp__SetThreadPriority@8 100ba190     kernel32:KERNEL32.dll
 0003:00000194       __imp__Sleep@4             100ba194     kernel32:KERNEL32.dll
 0003:00000198       __imp__SetThreadAffinityMask@8 100ba198     kernel32:KERNEL32.dll
 0003:0000019c       __imp__LeaveCriticalSection@4 100ba19c     kernel32:KERNEL32.dll
 0003:000001a0       __imp__EnterCriticalSection@4 100ba1a0     kernel32:KERNEL32.dll
 0003:000001a4       __imp__DeleteCriticalSection@4 100ba1a4     kernel32:KERNEL32.dll
 0003:000001a8       __imp__InitializeCriticalSection@4 100ba1a8     kernel32:KERNEL32.dll
 0003:000001ac       __imp__GetTickCount@0      100ba1ac     kernel32:KERNEL32.dll
 0003:000001b0       __imp__GetLocalTime@4      100ba1b0     kernel32:KERNEL32.dll
 0003:000001b4       __imp__WaitForSingleObject@8 100ba1b4     kernel32:KERNEL32.dll
 0003:000001b8       __imp__ResetEvent@4        100ba1b8     kernel32:KERNEL32.dll
 0003:000001bc       __imp__SetEvent@4          100ba1bc     kernel32:KERNEL32.dll
 0003:000001c0       __imp__CloseHandle@4       100ba1c0     kernel32:KERNEL32.dll
 0003:000001c4       __imp__CreateEventW@16     100ba1c4     kernel32:KERNEL32.dll
 0003:000001c8       __imp__OpenThread@12       100ba1c8     kernel32:KERNEL32.dll
 0003:000001cc       \177KERNEL32_NULL_THUNK_DATA 100ba1cc     kernel32:KERNEL32.dll
 0003:000001d0       __imp_?GetMediaSnd@CKdvMediaSnd@@SAPAV1@XZ 100ba1d0     kdvmedianetdll:KdvMediaNetDll.dll
 0003:000001d4       __imp_?PutMediaSnd@CKdvMediaSnd@@SAXPAV1@@Z 100ba1d4     kdvmedianetdll:KdvMediaNetDll.dll
 0003:000001d8       __imp__MnetCryptCfgSetAuthTag 100ba1d8     kdvmedianetdll:KdvMediaNetDll.dll
 0003:000001dc       __imp_?GetMediaRcv@CKdvMediaRcv@@SAPAV1@XZ 100ba1dc     kdvmedianetdll:KdvMediaNetDll.dll
 0003:000001e0       __imp_?PutMediaRcv@CKdvMediaRcv@@SAXPAV1@@Z 100ba1e0     kdvmedianetdll:KdvMediaNetDll.dll
 0003:000001e4       __imp__MnetCryptCfgInit    100ba1e4     kdvmedianetdll:KdvMediaNetDll.dll
 0003:000001e8       __imp__MnetCryptCfgSetCipherAlgorithm 100ba1e8     kdvmedianetdll:KdvMediaNetDll.dll
 0003:000001ec       __imp__MnetCryptCfgSetAuthAlgorithm 100ba1ec     kdvmedianetdll:KdvMediaNetDll.dll
 0003:000001f0       __imp__MnetCryptCfgSetMasterKey 100ba1f0     kdvmedianetdll:KdvMediaNetDll.dll
 0003:000001f4       __imp__MnetCryptCfgSetCipherKey 100ba1f4     kdvmedianetdll:KdvMediaNetDll.dll
 0003:000001f8       __imp__MnetCryptCfgSetAuthKey 100ba1f8     kdvmedianetdll:KdvMediaNetDll.dll
 0003:000001fc       __imp__MnetCryptCfgSetPkt  100ba1fc     kdvmedianetdll:KdvMediaNetDll.dll
 0003:00000200       \177KdvMediaNetDll_NULL_THUNK_DATA 100ba200     kdvmedianetdll:KdvMediaNetDll.dll
 0003:00000204       __imp_?_Swap_all@_Container_base0@std@@QAEXAAU12@@Z 100ba204     msvcprt:MSVCP100.dll
 0003:00000208       __imp_?_Orphan_all@_Container_base0@std@@QAEXXZ 100ba208     msvcprt:MSVCP100.dll
 0003:0000020c       __imp_??1_Winit@std@@QAE@XZ 100ba20c     msvcprt:MSVCP100.dll
 0003:00000210       __imp_??0_Winit@std@@QAE@XZ 100ba210     msvcprt:MSVCP100.dll
 0003:00000214       __imp_??1Init@ios_base@std@@QAE@XZ 100ba214     msvcprt:MSVCP100.dll
 0003:00000218       __imp_??0Init@ios_base@std@@QAE@XZ 100ba218     msvcprt:MSVCP100.dll
 0003:0000021c       __imp_?_Xinvalid_argument@std@@YAXPBD@Z 100ba21c     msvcprt:MSVCP100.dll
 0003:00000220       __imp_?_Xlength_error@std@@YAXPBD@Z 100ba220     msvcprt:MSVCP100.dll
 0003:00000224       __imp_?_Xout_of_range@std@@YAXPBD@Z 100ba224     msvcprt:MSVCP100.dll
 0003:00000228       \177MSVCP100_NULL_THUNK_DATA 100ba228     msvcprt:MSVCP100.dll
 0003:0000022c       __imp_?_type_info_dtor_internal_method@type_info@@QAEXXZ 100ba22c     MSVCRT:MSVCR100.dll
 0003:00000230       __imp____CppXcptFilter     100ba230     MSVCRT:MSVCR100.dll
 0003:00000234       __imp___amsg_exit          100ba234     MSVCRT:MSVCR100.dll
 0003:00000238       __imp___initterm_e         100ba238     MSVCRT:MSVCR100.dll
 0003:0000023c       __imp___initterm           100ba23c     MSVCRT:MSVCR100.dll
 0003:00000240       __imp___encoded_null       100ba240     MSVCRT:MSVCR100.dll
 0003:00000244       __imp__free                100ba244     MSVCRT:MSVCR100.dll
 0003:00000248       __imp___malloc_crt         100ba248     MSVCRT:MSVCR100.dll
 0003:0000024c       __imp___except_handler4_common 100ba24c     MSVCRT:MSVCR100.dll
 0003:00000250       __imp___crt_debugger_hook  100ba250     MSVCRT:MSVCR100.dll
 0003:00000254       __imp____clean_type_info_names_internal 100ba254     MSVCRT:MSVCR100.dll
 0003:00000258       __imp___iob                100ba258     MSVCRT:MSVCR100.dll
 0003:0000025c       __imp__exit                100ba25c     MSVCRT:MSVCR100.dll
 0003:00000260       __imp__malloc              100ba260     MSVCRT:MSVCR100.dll
 0003:00000264       __imp__sscanf              100ba264     MSVCRT:MSVCR100.dll
 0003:00000268       __imp___onexit             100ba268     MSVCRT:MSVCR100.dll
 0003:0000026c       __imp___lock               100ba26c     MSVCRT:MSVCR100.dll
 0003:00000270       __imp____dllonexit         100ba270     MSVCRT:MSVCR100.dll
 0003:00000274       __imp___purecall           100ba274     MSVCRT:MSVCR100.dll
 0003:00000278       __imp_??3@YAXPAX@Z         100ba278     MSVCRT:MSVCR100.dll
 0003:0000027c       __imp_??_V@YAXPAX@Z        100ba27c     MSVCRT:MSVCR100.dll
 0003:00000280       __imp____CxxFrameHandler3  100ba280     MSVCRT:MSVCR100.dll
 0003:00000284       __imp__memcpy              100ba284     MSVCRT:MSVCR100.dll
 0003:00000288       __imp_??2@YAPAXI@Z         100ba288     MSVCRT:MSVCR100.dll
 0003:0000028c       __imp__setlocale           100ba28c     MSVCRT:MSVCR100.dll
 0003:00000290       __imp__fclose              100ba290     MSVCRT:MSVCR100.dll
 0003:00000294       __imp__fopen               100ba294     MSVCRT:MSVCR100.dll
 0003:00000298       __imp__strcat              100ba298     MSVCRT:MSVCR100.dll
 0003:0000029c       __imp__memset              100ba29c     MSVCRT:MSVCR100.dll
 0003:000002a0       __imp__printf              100ba2a0     MSVCRT:MSVCR100.dll
 0003:000002a4       __imp__fflush              100ba2a4     MSVCRT:MSVCR100.dll
 0003:000002a8       __imp__fprintf             100ba2a8     MSVCRT:MSVCR100.dll
 0003:000002ac       __imp__strrchr             100ba2ac     MSVCRT:MSVCR100.dll
 0003:000002b0       __imp__fseek               100ba2b0     MSVCRT:MSVCR100.dll
 0003:000002b4       __imp__sprintf_s           100ba2b4     MSVCRT:MSVCR100.dll
 0003:000002b8       __imp__strncpy             100ba2b8     MSVCRT:MSVCR100.dll
 0003:000002bc       __imp__strlen              100ba2bc     MSVCRT:MSVCR100.dll
 0003:000002c0       __imp__fwrite              100ba2c0     MSVCRT:MSVCR100.dll
 0003:000002c4       __imp__fread               100ba2c4     MSVCRT:MSVCR100.dll
 0003:000002c8       __imp__fscanf              100ba2c8     MSVCRT:MSVCR100.dll
 0003:000002cc       __imp__feof                100ba2cc     MSVCRT:MSVCR100.dll
 0003:000002d0       __imp___beginthreadex      100ba2d0     MSVCRT:MSVCR100.dll
 0003:000002d4       __imp__sprintf             100ba2d4     MSVCRT:MSVCR100.dll
 0003:000002d8       __imp__strcmp              100ba2d8     MSVCRT:MSVCR100.dll
 0003:000002dc       __imp__isspace             100ba2dc     MSVCRT:MSVCR100.dll
 0003:000002e0       __imp__strcpy              100ba2e0     MSVCRT:MSVCR100.dll
 0003:000002e4       __imp__strerror            100ba2e4     MSVCRT:MSVCR100.dll
 0003:000002e8       __imp__memmove             100ba2e8     MSVCRT:MSVCR100.dll
 0003:000002ec       __imp___CxxThrowException@8 100ba2ec     MSVCRT:MSVCR100.dll
 0003:000002f0       __imp_??0exception@std@@QAE@ABV01@@Z 100ba2f0     MSVCRT:MSVCR100.dll
 0003:000002f4       __imp_??0exception@std@@QAE@ABQBD@Z 100ba2f4     MSVCRT:MSVCR100.dll
 0003:000002f8       __imp_?what@exception@std@@UBEPBDXZ 100ba2f8     MSVCRT:MSVCR100.dll
 0003:000002fc       __imp_??1exception@std@@UAE@XZ 100ba2fc     MSVCRT:MSVCR100.dll
 0003:00000300       __imp__wcscmp              100ba300     MSVCRT:MSVCR100.dll
 0003:00000304       __imp___wtoi               100ba304     MSVCRT:MSVCR100.dll
 0003:00000308       __imp__ftell               100ba308     MSVCRT:MSVCR100.dll
 0003:0000030c       __imp___wfopen             100ba30c     MSVCRT:MSVCR100.dll
 0003:00000310       __imp__wcscat              100ba310     MSVCRT:MSVCR100.dll
 0003:00000314       __imp__wcsrchr             100ba314     MSVCRT:MSVCR100.dll
 0003:00000318       __imp__log10               100ba318     MSVCRT:MSVCR100.dll
 0003:0000031c       __imp__wcslen              100ba31c     MSVCRT:MSVCR100.dll
 0003:00000320       __imp___itow_s             100ba320     MSVCRT:MSVCR100.dll
 0003:00000324       __imp__rand                100ba324     MSVCRT:MSVCR100.dll
 0003:00000328       __imp__wcsstr              100ba328     MSVCRT:MSVCR100.dll
 0003:0000032c       __imp__memcmp              100ba32c     MSVCRT:MSVCR100.dll
 0003:00000330       __imp__wcsncpy_s           100ba330     MSVCRT:MSVCR100.dll
 0003:00000334       __imp___stricmp            100ba334     MSVCRT:MSVCR100.dll
 0003:00000338       __imp__wmemcpy_s           100ba338     MSVCRT:MSVCR100.dll
 0003:0000033c       __imp__abs                 100ba33c     MSVCRT:MSVCR100.dll
 0003:00000340       __imp__wcscpy              100ba340     MSVCRT:MSVCR100.dll
 0003:00000344       __imp__vsprintf_s          100ba344     MSVCRT:MSVCR100.dll
 0003:00000348       __imp__strcat_s            100ba348     MSVCRT:MSVCR100.dll
 0003:0000034c       __imp__labs                100ba34c     MSVCRT:MSVCR100.dll
 0003:00000350       __imp___wcsnicmp           100ba350     MSVCRT:MSVCR100.dll
 0003:00000354       __imp__memchr              100ba354     MSVCRT:MSVCR100.dll
 0003:00000358       __imp___vswprintf          100ba358     MSVCRT:MSVCR100.dll
 0003:0000035c       __imp__getenv              100ba35c     MSVCRT:MSVCR100.dll
 0003:00000360       __imp__atoi                100ba360     MSVCRT:MSVCR100.dll
 0003:00000364       __imp___CRT_RTC_INITW      100ba364     MSVCRT:MSVCR100.dll
 0003:00000368       __imp_?terminate@@YAXXZ    100ba368     MSVCRT:MSVCR100.dll
 0003:0000036c       __imp___vsnprintf_s        100ba36c     MSVCRT:MSVCR100.dll
 0003:0000036c       __imp__vsnprintf_s         100ba36c     MSVCRT:MSVCR100.dll
 0003:00000370       __imp___unlock             100ba370     MSVCRT:MSVCR100.dll
 0003:00000374       __imp___ftol               100ba374     MSVCRT:MSVCR100.dll
 0003:00000378       \177MSVCR100_NULL_THUNK_DATA 100ba378     MSVCRT:MSVCR100.dll
 0003:0000037c       __imp__DrawDibClose@4      100ba37c     vfw32:MSVFW32.dll
 0003:00000380       __imp__DrawDibBegin@32     100ba380     vfw32:MSVFW32.dll
 0003:00000384       __imp__DrawDibDraw@52      100ba384     vfw32:MSVFW32.dll
 0003:00000388       __imp__ICClose@4           100ba388     vfw32:MSVFW32.dll
 0003:0000038c       __imp__ICSendMessage@16    100ba38c     vfw32:MSVFW32.dll
 0003:00000390       __imp__ICDecompress        100ba390     vfw32:MSVFW32.dll
 0003:00000394       __imp__ICLocate@20         100ba394     vfw32:MSVFW32.dll
 0003:00000398       __imp__ICOpen@12           100ba398     vfw32:MSVFW32.dll
 0003:0000039c       __imp__ICCompress          100ba39c     vfw32:MSVFW32.dll
 0003:000003a0       __imp__DrawDibOpen@0       100ba3a0     vfw32:MSVFW32.dll
 0003:000003a4       \177MSVFW32_NULL_THUNK_DATA 100ba3a4     vfw32:MSVFW32.dll
 0003:000003a8       __imp__VariantClear@4      100ba3a8     oleaut32:OLEAUT32.dll
 0003:000003ac       __imp__VariantInit@4       100ba3ac     oleaut32:OLEAUT32.dll
 0003:000003b0       \177OLEAUT32_NULL_THUNK_DATA 100ba3b0     oleaut32:OLEAUT32.dll
 0003:000003b4       __imp_?log@CInstance@@IAAXEPADZZ 100ba3b4     ospdll:OspDll.dll
 0003:000003b8       __imp__IsOspInitd          100ba3b8     ospdll:OspDll.dll
 0003:000003bc       __imp__OspTaskDelay        100ba3bc     ospdll:OspDll.dll
 0003:000003c0       __imp_?GetAppID@CInstance@@QAEGXZ 100ba3c0     ospdll:OspDll.dll
 0003:000003c4       __imp__OspGetCpuInfo       100ba3c4     ospdll:OspDll.dll
 0003:000003c8       __imp__OspPton             100ba3c8     ospdll:OspDll.dll
 0003:000003cc       __imp__OspInit             100ba3cc     ospdll:OspDll.dll
 0003:000003d0       __imp__OspRegistModule     100ba3d0     ospdll:OspDll.dll
 0003:000003d4       __imp__OspQuit             100ba3d4     ospdll:OspDll.dll
 0003:000003d8       __imp__OspPrintf           100ba3d8     ospdll:OspDll.dll
 0003:000003dc       \177OspDll_NULL_THUNK_DATA 100ba3dc     ospdll:OspDll.dll
 0003:000003e0       __imp__UpdateWindow@4      100ba3e0     user32:USER32.dll
 0003:000003e4       __imp__EndPaint@8          100ba3e4     user32:USER32.dll
 0003:000003e8       __imp__DrawIcon@16         100ba3e8     user32:USER32.dll
 0003:000003ec       __imp__FillRect@12         100ba3ec     user32:USER32.dll
 0003:000003f0       __imp__GetDesktopWindow@0  100ba3f0     user32:USER32.dll
 0003:000003f4       __imp__GetWindowRect@8     100ba3f4     user32:USER32.dll
 0003:000003f8       __imp__GetSystemMetrics@4  100ba3f8     user32:USER32.dll
 0003:000003fc       __imp__SetWindowPos@28     100ba3fc     user32:USER32.dll
 0003:00000400       __imp__ReleaseDC@8         100ba400     user32:USER32.dll
 0003:00000404       __imp__SetRect@20          100ba404     user32:USER32.dll
 0003:00000408       __imp__SetRectEmpty@4      100ba408     user32:USER32.dll
 0003:0000040c       __imp__wsprintfW           100ba40c     user32:USER32.dll
 0003:00000410       __imp__GetDC@4             100ba410     user32:USER32.dll
 0003:00000414       __imp__InvalidateRect@12   100ba414     user32:USER32.dll
 0003:00000418       __imp__GetClientRect@8     100ba418     user32:USER32.dll
 0003:0000041c       __imp__GetIconInfo@8       100ba41c     user32:USER32.dll
 0003:00000420       __imp__GetCursorPos@4      100ba420     user32:USER32.dll
 0003:00000424       __imp__GetCursorInfo@4     100ba424     user32:USER32.dll
 0003:00000428       __imp__IsIconic@4          100ba428     user32:USER32.dll
 0003:0000042c       __imp__IsWindowVisible@4   100ba42c     user32:USER32.dll
 0003:00000430       __imp__IsRectEmpty@4       100ba430     user32:USER32.dll
 0003:00000434       __imp__GetForegroundWindow@0 100ba434     user32:USER32.dll
 0003:00000438       __imp__SystemParametersInfoW@16 100ba438     user32:USER32.dll
 0003:0000043c       __imp__EnumDisplaySettingsW@12 100ba43c     user32:USER32.dll
 0003:00000440       __imp__BeginPaint@8        100ba440     user32:USER32.dll
 0003:00000444       \177USER32_NULL_THUNK_DATA 100ba444     user32:USER32.dll
 0003:00000448       __imp__GetFileVersionInfoW@16 100ba448     version:VERSION.dll
 0003:0000044c       __imp__VerQueryValueW@16   100ba44c     version:VERSION.dll
 0003:00000450       __imp__GetFileVersionInfoSizeW@8 100ba450     version:VERSION.dll
 0003:00000454       \177VERSION_NULL_THUNK_DATA 100ba454     version:VERSION.dll
 0003:00000458       __imp__timeKillEvent@4     100ba458     winmm:WINMM.dll
 0003:0000045c       __imp__timeSetEvent@20     100ba45c     winmm:WINMM.dll
 0003:00000460       __imp__timeGetTime@0       100ba460     winmm:WINMM.dll
 0003:00000464       __imp__waveInGetErrorTextA@12 100ba464     winmm:WINMM.dll
 0003:00000468       __imp__mixerGetControlDetailsW@12 100ba468     winmm:WINMM.dll
 0003:0000046c       __imp__mixerSetControlDetails@12 100ba46c     winmm:WINMM.dll
 0003:00000470       __imp__mixerGetLineControlsW@12 100ba470     winmm:WINMM.dll
 0003:00000474       __imp__mixerGetNumDevs@0   100ba474     winmm:WINMM.dll
 0003:00000478       __imp__mixerOpen@20        100ba478     winmm:WINMM.dll
 0003:0000047c       __imp__mixerClose@4        100ba47c     winmm:WINMM.dll
 0003:00000480       __imp__mixerGetLineInfoW@12 100ba480     winmm:WINMM.dll
 0003:00000484       __imp__waveOutGetPosition@12 100ba484     winmm:WINMM.dll
 0003:00000488       __imp__waveOutWrite@12     100ba488     winmm:WINMM.dll
 0003:0000048c       __imp__waveOutReset@4      100ba48c     winmm:WINMM.dll
 0003:00000490       __imp__waveOutUnprepareHeader@12 100ba490     winmm:WINMM.dll
 0003:00000494       __imp__waveOutClose@4      100ba494     winmm:WINMM.dll
 0003:00000498       __imp__waveOutOpen@24      100ba498     winmm:WINMM.dll
 0003:0000049c       __imp__waveOutPrepareHeader@12 100ba49c     winmm:WINMM.dll
 0003:000004a0       __imp__waveOutGetDevCapsW@12 100ba4a0     winmm:WINMM.dll
 0003:000004a4       __imp__waveOutMessage@16   100ba4a4     winmm:WINMM.dll
 0003:000004a8       __imp__waveOutGetNumDevs@0 100ba4a8     winmm:WINMM.dll
 0003:000004ac       __imp__waveOutGetErrorTextA@12 100ba4ac     winmm:WINMM.dll
 0003:000004b0       __imp__waveInGetPosition@12 100ba4b0     winmm:WINMM.dll
 0003:000004b4       __imp__waveInPrepareHeader@12 100ba4b4     winmm:WINMM.dll
 0003:000004b8       __imp__waveInMessage@16    100ba4b8     winmm:WINMM.dll
 0003:000004bc       __imp__waveInGetDevCapsW@12 100ba4bc     winmm:WINMM.dll
 0003:000004c0       __imp__waveInAddBuffer@12  100ba4c0     winmm:WINMM.dll
 0003:000004c4       __imp__waveInStart@4       100ba4c4     winmm:WINMM.dll
 0003:000004c8       __imp__waveInStop@4        100ba4c8     winmm:WINMM.dll
 0003:000004cc       __imp__waveInReset@4       100ba4cc     winmm:WINMM.dll
 0003:000004d0       __imp__waveInUnprepareHeader@12 100ba4d0     winmm:WINMM.dll
 0003:000004d4       __imp__waveInClose@4       100ba4d4     winmm:WINMM.dll
 0003:000004d8       __imp__waveInOpen@24       100ba4d8     winmm:WINMM.dll
 0003:000004dc       __imp__waveInGetNumDevs@0  100ba4dc     winmm:WINMM.dll
 0003:000004e0       \177WINMM_NULL_THUNK_DATA  100ba4e0     winmm:WINMM.dll
 0003:000004e4       __imp__htons@4             100ba4e4     Ws2_32:WS2_32.dll
 0003:000004e8       __imp__inet_ntoa@4         100ba4e8     Ws2_32:WS2_32.dll
 0003:000004ec       \177WS2_32_NULL_THUNK_DATA 100ba4ec     Ws2_32:WS2_32.dll
 0003:000004f0       __imp_?SetASFFileProperty@CKdvASFFileWriter@@QAEGPAUtagASFFileProperty@@@Z 100ba4f0     asflib:asflib.dll
 0003:000004f4       __imp_?BeginWriting@CKdvASFFileWriter@@QAEGXZ 100ba4f4     asflib:asflib.dll
 0003:000004f8       __imp_?SetContentProperty@CKdvASFFileWriter@@QAEGPAUtagContentDescriptionProperty@@@Z 100ba4f8     asflib:asflib.dll
 0003:000004fc       __imp_?Open@CKdvASFFileWriter@@QAEGPB_W@Z 100ba4fc     asflib:asflib.dll
 0003:00000500       __imp_?WriteSample@CKdvASFFileWriter@@QAEGEPAEIHIGPAI@Z 100ba500     asflib:asflib.dll
 0003:00000504       __imp_?EndWriting@CKdvASFFileWriter@@QAEGXZ 100ba504     asflib:asflib.dll
 0003:00000508       __imp_?Close@CKdvASFFileWriter@@QAEGXZ 100ba508     asflib:asflib.dll
 0003:0000050c       __imp_?AddStream@CKdvASFFileWriter@@QAEGPAUtagStreamProperty@@@Z 100ba50c     asflib:asflib.dll
 0003:00000510       __imp_??0CKdvASFFileWriter@@QAE@XZ 100ba510     asflib:asflib.dll
 0003:00000514       \177asflib_NULL_THUNK_DATA 100ba514     asflib:asflib.dll
 0003:00000518       __imp__H264EncoderClose_x  100ba518     h264enc_x:h264enc_x.dll
 0003:0000051c       __imp__H264EncoderSetParams_x 100ba51c     h264enc_x:h264enc_x.dll
 0003:00000520       __imp__H264EncoderOpen_x   100ba520     h264enc_x:h264enc_x.dll
 0003:00000524       __imp__H264EncoderProcess_x 100ba524     h264enc_x:h264enc_x.dll
 0003:00000528       \177h264enc_x_NULL_THUNK_DATA 100ba528     h264enc_x:h264enc_x.dll
 0003:0000052c       __imp__ImageUnitAnalyzeErrorCode 100ba52c     kdimg:kdimg.DLL
 0003:00000530       __imp__ImageUnitProcess    100ba530     kdimg:kdimg.DLL
 0003:00000534       __imp__ImageUnitClose      100ba534     kdimg:kdimg.DLL
 0003:00000538       __imp__ImageUnitOpen       100ba538     kdimg:kdimg.DLL
 0003:0000053c       \177kdimg_NULL_THUNK_DATA  100ba53c     kdimg:kdimg.DLL
 0003:00000540       __imp_??0CAudioProcWrapper@@QAE@XZ 100ba540     mediawrapper:mediawrapper.dll
 0003:00000544       __imp_?Initialize@CAudioProcWrapper@@QAEHXZ 100ba544     mediawrapper:mediawrapper.dll
 0003:00000548       __imp_?set_sample_rate_hz@CAudioProcWrapper@@QAEHH@Z 100ba548     mediawrapper:mediawrapper.dll
 0003:0000054c       __imp_?set_num_channels@CAudioProcWrapper@@QAEHHH@Z 100ba54c     mediawrapper:mediawrapper.dll
 0003:00000550       __imp_?set_num_reverse_channels@CAudioProcWrapper@@QAEHH@Z 100ba550     mediawrapper:mediawrapper.dll
 0003:00000554       __imp_?noise_suppression@CAudioProcWrapper@@QBEPAVNoiseSuppression@mediawrapper@@XZ 100ba554     mediawrapper:mediawrapper.dll
 0003:00000558       __imp_?high_pass_filter@CAudioProcWrapper@@QBEPAVHighPassFilter@mediawrapper@@XZ 100ba558     mediawrapper:mediawrapper.dll
 0003:0000055c       __imp_?gain_control@CAudioProcWrapper@@QBEPAVGainControl@mediawrapper@@XZ 100ba55c     mediawrapper:mediawrapper.dll
 0003:00000560       __imp_?level_estimator@CAudioProcWrapper@@QBEPAVLevelEstimator@mediawrapper@@XZ 100ba560     mediawrapper:mediawrapper.dll
 0003:00000564       __imp_?echo_cancellation@CAudioProcWrapper@@QBEPAVEchoCancellation@mediawrapper@@XZ 100ba564     mediawrapper:mediawrapper.dll
 0003:00000568       __imp_?Create@CAudioCodecWrapper@@QAEHH@Z 100ba568     mediawrapper:mediawrapper.dll
 0003:0000056c       __imp_?IncomingPacket@CAudioCodecWrapper@@QAEHPBEHABUWebRtcRTPHeader@mediawrapper@@@Z 100ba56c     mediawrapper:mediawrapper.dll
 0003:00000570       __imp_?ProcessStream@CAudioProcWrapper@@QAEHPAVAudioFrame@mediawrapper@@@Z 100ba570     mediawrapper:mediawrapper.dll
 0003:00000574       __imp_?Process@CAudioCodecWrapper@@QAEHXZ 100ba574     mediawrapper:mediawrapper.dll
 0003:00000578       __imp_??0CAudioCodecWrapper@@QAE@XZ 100ba578     mediawrapper:mediawrapper.dll
 0003:0000057c       __imp_?set_stream_delay_ms@CAudioProcWrapper@@QAEHH@Z 100ba57c     mediawrapper:mediawrapper.dll
 0003:00000580       __imp_?AnalyzeReverseStream@CAudioProcWrapper@@QAEHPAVAudioFrame@mediawrapper@@@Z 100ba580     mediawrapper:mediawrapper.dll
 0003:00000584       __imp_??1CAudioProcWrapper@@QAE@XZ 100ba584     mediawrapper:mediawrapper.dll
 0003:00000588       __imp_?NumberOfCodecs@CAudioCodecWrapper@@QAEEXZ 100ba588     mediawrapper:mediawrapper.dll
 0003:0000058c       __imp_?Codec@CAudioCodecWrapper@@QAEHEPAUCodecInst@mediawrapper@@@Z 100ba58c     mediawrapper:mediawrapper.dll
 0003:00000590       __imp_?RegisterReceiveCodec@CAudioCodecWrapper@@QAEHABUCodecInst@mediawrapper@@@Z 100ba590     mediawrapper:mediawrapper.dll
 0003:00000594       __imp_?SendCodec@CAudioCodecWrapper@@QBEHPAUCodecInst@mediawrapper@@@Z 100ba594     mediawrapper:mediawrapper.dll
 0003:00000598       __imp_?SetFECStatus@CAudioCodecWrapper@@QAEH_N@Z 100ba598     mediawrapper:mediawrapper.dll
 0003:0000059c       __imp_?SetPlayoutMode@CAudioCodecWrapper@@QAEHW4AudioPlayoutMode@mediawrapper@@@Z 100ba59c     mediawrapper:mediawrapper.dll
 0003:000005a0       __imp_?SetBackgroundNoiseMode@CAudioCodecWrapper@@QAEHW4ACMBackgroundNoiseMode@mediawrapper@@@Z 100ba5a0     mediawrapper:mediawrapper.dll
 0003:000005a4       __imp_?RegisterTransportCallback@CAudioCodecWrapper@@QAEHPAVAudioPacketizationCallback@mediawrapper@@@Z 100ba5a4     mediawrapper:mediawrapper.dll
 0003:000005a8       __imp_??1CAudioCodecWrapper@@QAE@XZ 100ba5a8     mediawrapper:mediawrapper.dll
 0003:000005ac       __imp_?PlayoutData10Ms@CAudioCodecWrapper@@QAEHHPAVAudioFrame@mediawrapper@@@Z 100ba5ac     mediawrapper:mediawrapper.dll
 0003:000005b0       __imp_?Add10MsData@CAudioCodecWrapper@@QAEHABVAudioFrame@mediawrapper@@@Z 100ba5b0     mediawrapper:mediawrapper.dll
 0003:000005b4       __imp_?RegisterSendCodec@CAudioCodecWrapper@@QAEHABUCodecInst@mediawrapper@@@Z 100ba5b4     mediawrapper:mediawrapper.dll
 0003:000005b8       \177mediawrapper_NULL_THUNK_DATA 100ba5b8     mediawrapper:mediawrapper.dll
 0003:000005bc       __imp__MoInitMediaType@8   100ba5bc     Msdmo:msdmo.dll
 0003:000005c0       __imp__MoFreeMediaType@4   100ba5c0     Msdmo:msdmo.dll
 0003:000005c4       \177msdmo_NULL_THUNK_DATA  100ba5c4     Msdmo:msdmo.dll
 0003:000005c8       __imp__CoTaskMemFree@4     100ba5c8     ole32:ole32.dll
 0003:000005cc       __imp__PropVariantClear@4  100ba5cc     ole32:ole32.dll
 0003:000005d0       __imp__CoCreateInstance@20 100ba5d0     ole32:ole32.dll
 0003:000005d4       __imp__CoTaskMemAlloc@4    100ba5d4     ole32:ole32.dll
 0003:000005d8       __imp__CoUninitialize@0    100ba5d8     ole32:ole32.dll
 0003:000005dc       __imp__CoInitialize@4      100ba5dc     ole32:ole32.dll
 0003:000005e0       __imp__CoFreeUnusedLibraries@0 100ba5e0     ole32:ole32.dll
 0003:000005e4       __imp__StringFromGUID2@12  100ba5e4     ole32:ole32.dll
 0003:000005e8       __imp__CoInitializeEx@8    100ba5e8     ole32:ole32.dll
 0003:000005ec       \177ole32_NULL_THUNK_DATA  100ba5ec     ole32:ole32.dll
 0003:000005f0       ___xc_a                    100ba5f0     MSVCRT:cinitexe.obj
 0003:00000620       ___xc_z                    100ba620     MSVCRT:cinitexe.obj
 0003:00000624       ___xi_a                    100ba624     MSVCRT:cinitexe.obj
 0003:00000630       ___xi_z                    100ba630     MSVCRT:cinitexe.obj
 0003:00000660       ??_7CApp@@6B@              100ba660     cloopbuffer.obj
 0003:00000680       ??_C@_0GH@LFFLPCJB@Osp?3?5message?5received?5in?5default@ 100ba680     cloopbuffer.obj
 0003:000006ec       ??_7CInstance@@6B@         100ba6ec     cloopbuffer.obj
 0003:00000700       ??_C@_0DC@MGFPJBJP@Input?5param?5?$CCdwSize?$CC?5isn?8t?5power@ 100ba700     cloopbuffer.obj
 0003:00000738       ??_C@_0FB@OGEAKCJD@k?3?2cbb?2media?2mediacontrol_tp?240?9@ 100ba738     cloopbuffer.obj
 0003:0000078c       ??_C@_0BH@EIBPKGHN@CLoopBuf?3?3LoopBuf_init?$AA@ 100ba78c     cloopbuffer.obj
 0003:000007a4       ??_C@_0DA@NCCMJFF@Input?5param?5is?5invalid?$CB?3pBuffer?$DN@ 100ba7a4     cloopbuffer.obj
 0003:000007d4       ??_C@_0BG@DIPGLLBK@CLoopBuf?3?3LoopBuf_put?$AA@ 100ba7d4     cloopbuffer.obj
 0003:000007ec       ??_C@_0BG@OJBOHHEM@CLoopBuf?3?3LoopBuf_get?$AA@ 100ba7ec     cloopbuffer.obj
 0003:00000804       ??_C@_0CP@FJAKGOPH@Input?5param?5is?5invalid?$CB?3pBuffer?$DN@ 100ba804     cloopbuffer.obj
 0003:00000838       ??_7CEventWindows@@6B@     100ba838     eventwindows.obj
 0003:00000858       ??_C@_0FD@EGPJNPBP@k?3?2cbb?2media?2mediacontrol_tp?240?9@ 100ba858     listcomponent.obj
 0003:000008ac       ??_C@_0BM@FMFGGCLM@CMediaListCom?3?3AddDataFront?$AA@ 100ba8ac     listcomponent.obj
 0003:000008c8       ??_C@_0EJ@LBGNDPD@Memory?5allocation?5failed?5with?5op@ 100ba8c8     listcomponent.obj
 0003:00000914       ??_C@_0BL@NMFHCPDN@CMediaListCom?3?3AddDataTail?$AA@ 100ba914     listcomponent.obj
 0003:0000092f       ??_C@_00CNPNBAHC@?$AA@     100ba92f     logbase.obj
 0003:00000930       ??_C@_0BD@INAIBIIO@?$LF?$LB?G?$LA?$LE?r?S?$KB?$LF?H?$LM?$LG?N?$KK?3?$CFd?6?$AA@ 100ba930     logbase.obj
 0003:00000944       ??_C@_0BO@ECOPFELP@?$DN?$DN?$DN?$DN?$DN?$DN?$DN?$DN?$DN?$DN?$DN?$DN?$DN?$DN?$DN?$DN?$DN?$DN?$DN?$DN?$DN?$DN?$DN?$DN?$DN?$DN?$DN?$DN?6?$AA@ 100ba944     logbase.obj
 0003:00000964       ??_C@_0BN@GHFGKEP@?5?5?5?5?5?5?5?5?5?54?5?9?9?5?$LE?r?S?$KB?$LF?w?J?T?P?E?O?$KC?6?$AA@ 100ba964     logbase.obj
 0003:00000984       ??_C@_0BN@KMKINLAL@?5?5?5?5?5?5?5?5?5?53?5?9?9?5?$LE?r?S?$KB?$LO?$KP?$LI?f?P?E?O?$KC?6?$AA@ 100ba984     logbase.obj
 0003:000009a4       ??_C@_0BN@MDNFMLGF@?5?5?5?5?5?5?5?5?5?52?5?9?9?5?$LE?r?S?$KB?$LE?m?N?s?P?E?O?$KC?6?$AA@ 100ba9a4     logbase.obj
 0003:000009c4       ??_C@_0BN@PFIGBBDL@?5?5?5level?3?51?5?9?9?5?$LE?r?S?$KB?$LB?X?$LE?r?P?E?O?$KC?6?$AA@ 100ba9c4     logbase.obj
 0003:000009e4       ??_C@_0L@GIDHBCDK@?$LC?N?J?$PN?C?h?J?v?3?6?$AA@ 100ba9e4     logbase.obj
 0003:000009f0       ??_C@_0EN@DKKELBM@k?3?2cbb?2media?2mediacontrol_tp?240?9@ 100ba9f0     logbase.obj
 0003:00000a40       ??_C@_0BL@NCPGGGEF@CCodecWrapperLog?3?3SetLevel?$AA@ 100baa40     logbase.obj
 0003:00000a5c       ??_C@_0DB@LBCHNLKD@?$LJ?$KG?5?5?5?5?D?$NM?3?I?h?V?C?$LE?r?S?$KB?$LF?H?$LM?$LG?$KD?$KM?J?$PN?V?$LF?T?$LN?P?$KB?$KD@ 100baa5c     logbase.obj
 0003:00000a90       ??_C@_0CD@ELEGNJCG@fopen?$CI?$CCmediasdk_log?4txt?$CC?$CJ?5failed@ 100baa90     logbase.obj
 0003:00000ab4       ??_C@_02GMLFBBN@wb?$AA@    100baab4     logbase.obj
 0003:00000ab8       ??_C@_0BB@HOJMKLMN@mediasdk_log?4txt?$AA@ 100baab8     logbase.obj
 0003:00000acc       ??_C@_0BJ@FFMBMNFP@GetModulePath?$CI?$CJ?5failed?$CB?6?$AA@ 100baacc     logbase.obj
 0003:00000ae8       ??_C@_0BC@IPPHIPEA@?$LF?$LB?G?$LA?$LE?r?S?$KB?$LG?K?$LP?Z?5?3?$CFd?6?$AA@ 100baae8     logbase.obj
 0003:00000afc       ??_C@_0CL@FMOCLLPF@?5?5?5?5?5?5?5?5?5?53?5?9?9?5?T?Zmediasdk_log?4tx@ 100baafc     logbase.obj
 0003:00000b28       ??_C@_0CB@JBOGHEOB@?5?5?5?5?5?5?5?5?5?52?5?9?9?5?T?ZTelnet?$LE?r?S?$KB?H?U?V?$LO?6@ 100bab28     logbase.obj
 0003:00000b4c       ??_C@_0BP@KHLAOPOO@?5?5?5?5?5?5?5?5?5?51?5?9?9?5?T?Z?$LE?$KO?$LP?Z?$LE?r?S?$KB?H?U?V?$LO?6?$AA@ 100bab4c     logbase.obj
 0003:00000b6c       ??_C@_0CB@FDNCOJMO@?5?5dwPort?3?50?5?9?9?5?$LJ?X?$LB?U?K?y?S?P?$LG?K?$LP?Z?$LE?r?S?$KB?6@ 100bab6c     logbase.obj
 0003:00000b90       ??_C@_0BN@JMJNDBEI@CCodecWrapperLog?3?3OpenPtPort?$AA@ 100bab90     logbase.obj
 0003:00000bb0       ??_C@_0BJ@HHLPGPIJ@?$LJ?$KG?5?5?5?5?D?$NM?3?I?h?V?C?$LE?r?S?$KB?$LF?D?$LG?K?$LP?Z?6?$AA@ 100babb0     logbase.obj
 0003:00000bcc       ??_C@_0CH@MEGNLMDN@?$BL?$FL33m?$FL?5MCtrl?5?$FN?$FL?5?$CFs?5?$FN?$FL?$CFs?$CI?$CFd?$CJ?$HM?$CFs?$FN?5@ 100babcc     logbase.obj
 0003:00000bf4       ??_C@_0DB@IIJLCAJK@?$BL?$FL33m?$FL?5MCtrl?5?$FN?$FL?5?$BL?$FL31m?$CFs?$BL?$FL33m?5?$FN?$FL?$CF@ 100babf4     logbase.obj
 0003:00000c28       ??_C@_0M@JCJOONFK@?$BL?$FL33m?$CFs?$BL?$FL0m?$AA@ 100bac28     logbase.obj
 0003:00000c34       ??_C@_0BO@CMNIODPF@?$FL?5MCtrl?5?$FN?$FL?5?$CFs?5?$FN?$FL?$CFs?$CI?$CFd?$CJ?$HM?$CFs?$FN?5?$CFs?$AA@ 100bac34     logbase.obj
 0003:00000c54       ??_C@_0BO@PLKGCBDO@?$FL?$CFs?$FN?$FLMCtrl?$FN?$FL?$CFs?$FN?$FL?$CFs?$CI?$CFd?$CJ?$HM?$CFs?$FN?5?$CFs?$AA@ 100bac54     logbase.obj
 0003:00000c74       ??_C@_05NNNMIPMB@OTHER?$AA@ 100bac74     logbase.obj
 0003:00000c7c       ??_C@_05KOLFGEDA@DEBUG?$AA@ 100bac7c     logbase.obj
 0003:00000c84       ??_C@_07KCOHIFOP@WARNING?$AA@ 100bac84     logbase.obj
 0003:00000c8c       ??_C@_05MBDEGLCK@ERROR?$AA@ 100bac8c     logbase.obj
 0003:00000c94       ??_C@_04BEADLPGM@INFO?$AA@ 100bac94     logbase.obj
 0003:00000c9c       ??_C@_0CC@FNEAAPND@?$CF4d?9?$CF02d?9?$CF02d?5?$CF02d?3?$CF02d?3?$CF02d?4?$CF03@ 100bac9c     logbase.obj
 0003:00000cc0       ??_C@_0EL@IMFNJNBA@Memory?5allocation?5failed?5with?5op@ 100bacc0     record_pakage.obj
 0003:00000d10       ??_C@_0FD@PBLONLDJ@k?3?2cbb?2media?2mediacontrol_tp?240?9@ 100bad10     record_pakage.obj
 0003:00000d64       ??_C@_0BF@LFPCOFGB@CRecordPakge?3?3Create?$AA@ 100bad64     record_pakage.obj
 0003:00000d7c       ??_C@_03OFAPEBGM@?$CFs?6?$AA@ 100bad7c     record_pakage.obj
 0003:00000d80       ??_C@_0O@MGCGMCMP@0?5?$CB?$DN?5dwMemLen?$AA@ 100bad80     record_pakage.obj
 0003:00000d90       ??_C@_0BD@BBPOFOAA@CRecordPakge?3?3Init?$AA@ 100bad90     record_pakage.obj
 0003:00000da4       ??_C@_0N@DMDKDILN@NULL?5?$CB?$DN?5pMem?$AA@ 100bada4     record_pakage.obj
 0003:00000db4       ??_C@_0O@LABGCBGD@Get?5sem?5fail?6?$AA@ 100badb4     record_pakage.obj
 0003:00000dc4       ??_C@_0P@OPJPBKEF@0?5?$CB?$DN?5dwHeadLen?$AA@ 100badc4     record_pakage.obj
 0003:00000dd4       ??_C@_0BI@ONAMGPAJ@CRecordPakge?3?3WriteData?$AA@ 100badd4     record_pakage.obj
 0003:00000dec       ??_C@_0BC@LCDPKDBM@NULL?5?$CB?$DN?5pDataHead?$AA@ 100badec     record_pakage.obj
 0003:00000e00       ??_C@_0BE@KOKNNAPH@NULL?5?$CB?$DN?5m_ptMemHead?$AA@ 100bae00     record_pakage.obj
 0003:00000e14       ??_C@_0BM@HGJCKBHO@CRecordPakge?3?3GetDataBuffer?$AA@ 100bae14     record_pakage.obj
 0003:00000e30       ??_C@_0BG@JEDFKIJF@return?5data?5len?5fail?6?$AA@ 100bae30     record_pakage.obj
 0003:00000e48       ??_C@_0BG@DJAILLKF@return?5data?5ptr?5fail?6?$AA@ 100bae48     record_pakage.obj
 0003:00000e60       ??_C@_0L@LIHDGPL@0?5?$CB?$DN?5dwLen?$AA@ 100bae60     record_pakage.obj
 0003:00000e6c       ??_C@_0BP@GDLFDHHM@CRecordPakge?3?3ReturnDataBuffer?$AA@ 100bae6c     record_pakage.obj
 0003:00000e8c       ??_C@_09LHGEHAOE@NULL?5?$CB?$DN?5p?$AA@ 100bae8c     record_pakage.obj
 0003:00000e98       ??_C@_0CI@EEIAIMEO@Input?5param?5is?5invalid?4?5pFileNam@ 100bae98     savefilecomponent.obj
 0003:00000ec0       ??_C@_04EBGNMJBD@?4csv?$AA@ 100baec0     savefilecomponent.obj
 0003:00000ec8       ??_C@_0EK@JIALLOCI@Memory?5allocation?5failed?5with?5op@ 100baec8     savefilecomponent.obj
 0003:00000f18       ??_C@_0FH@LLBIABLK@k?3?2cbb?2media?2mediacontrol_tp?240?9@ 100baf18     savefilecomponent.obj
 0003:00000f70       ??_C@_0BF@OOBMPJLD@CSaveFileCom?3?3Create?$AA@ 100baf70     savefilecomponent.obj
 0003:00000f88       ??_C@_0EL@GAMOFKBO@Memory?5allocation?5failed?5with?5op@ 100baf88     savefilecomponent.obj
 0003:00000fd4       ??_C@_0BB@LBHODFPB@save?5?$CC?$CFs?$CC?5over?$CB?6?$AA@ 100bafd4     savefilecomponent.obj
 0003:00000fe8       ??_C@_06EKJPGNIJ@?$CFd?0?$CFd?6?$AA@ 100bafe8     savefilecomponent.obj
 0003:00000ff0       ??_C@_0BK@HLHLKKCG@LenFile?5has?5no?5filename?$CB?6?$AA@ 100baff0     savefilecomponent.obj
 0003:0000100c       ??_C@_0BJ@MBIDBHFL@CSaveFileCom?3?3SaveToFile?$AA@ 100bb00c     savefilecomponent.obj
 0003:00001028       ??_C@_0BL@EPDJHBK@DataFile?5has?5no?5filename?$CB?6?$AA@ 100bb028     savefilecomponent.obj
 0003:00001044       ??_C@_03BFHAFKOB@wb?$CL?$AA@ 100bb044     savefilecomponent.obj
 0003:00001048       ??_C@_01KDCPPGHE@r?$AA@    100bb048     savefilecomponent.obj
 0003:0000104c       ??_C@_0BK@LJMIMNAD@CReadFileCom?3?3OpenFileSrc?$AA@ 100bb04c     savefilecomponent.obj
 0003:00001068       ??_C@_0N@CCINFJKP@?$CFs?5open?5err?6?$AA@ 100bb068     savefilecomponent.obj
 0003:00001078       ??_C@_02JDPG@rb?$AA@       100bb078     savefilecomponent.obj
 0003:0000107c       ??_C@_02DPKJAMEF@?$CFd?$AA@ 100bb07c     savefilecomponent.obj
 0003:00001080       ??_C@_0FC@DGFLDMBJ@k?3?2cbb?2media?2mediacontrol_tp?240?9@ 100bb080     semcomponent.obj
 0003:000010d4       ??_C@_0BE@BNMHCDHE@CSemaphoreCom?3?3Take?$AA@ 100bb0d4     semcomponent.obj
 0003:000010e8       ??_C@_0CA@IMCDIKDD@SEMAPHORE_HANDLE?5m_hSem?5?$DN?5NULL?6?$AA@ 100bb0e8     semcomponent.obj
 0003:00001108       ??_C@_0BE@OLMNNGOK@CSemaphoreCom?3?3Give?$AA@ 100bb108     semcomponent.obj
 0003:00001120       ??_7CTaskCreate@@6B@       100bb120     taskcomponent.obj
 0003:00001128       ??_C@_0EN@FNOBEFMC@Memory?5allocation?5failed?5with?5op@ 100bb128     taskcomponent.obj
 0003:00001178       ??_C@_0CC@PPJJALLP@?$BL?$FL36mcreate?5task?5name?$FL?$CFd?$FN?3?5?$CFs?$BL?$FLm@ 100bb178     taskcomponent.obj
 0003:000011a0       ??_C@_0EC@GDKMCNOG@new?5BOOL32?$FL?$CFd?$FN?5failed?0?5m_pTaskRu@ 100bb1a0     taskcomponent.obj
 0003:000011e8       ??_C@_0EO@DACIHOGN@Memory?5allocation?5failed?5with?5op@ 100bb1e8     taskcomponent.obj
 0003:00001238       ??_C@_0FD@IJPBDOEH@k?3?2cbb?2media?2mediacontrol_tp?240?9@ 100bb238     taskcomponent.obj
 0003:0000128c       ??_C@_0BI@CBKIJOEP@CTaskCreate?3?3CreateTask?$AA@ 100bb28c     taskcomponent.obj
 0003:000012a8       ??_C@_0EO@MOBNMCIF@Memory?5allocation?5failed?5with?5op@ 100bb2a8     taskcomponent.obj
 0003:000012f8       ??_C@_0BD@NCEFLHGE@HwCodecWrapper?4dll?$AA@ 100bb2f8     win32common.obj
 0003:0000130c       ??_C@_0M@CDKINHFH@uniplay?4dll?$AA@ 100bb30c     win32common.obj
 0003:00001318       ??_C@_08IAEAMBAJ@FPU?5busy?$AA@ 100bb318     win32common.obj
 0003:00001324       ??_C@_0BF@GDAHOOEF@Error?5summary?5status?$AA@ 100bb324     win32common.obj
 0003:0000133c       ??_C@_0M@LEEDKLOB@Stack?5fault?$AA@ 100bb33c     win32common.obj
 0003:00001348       ??_C@_0BC@LHEDHHJL@Round?5toward?5zero?$AA@ 100bb348     win32common.obj
 0003:0000135c       ??_C@_08HBLCAMOO@Round?5up?$AA@ 100bb35c     win32common.obj
 0003:00001368       ??_C@_0L@DGHBCCPM@Round?5down?$AA@ 100bb368     win32common.obj
 0003:00001374       ??_C@_0BB@BKNJHCHB@Round?5to?5nearest?$AA@ 100bb374     win32common.obj
 0003:00001388       ??_C@_0CE@DLMIMDEC@Double?5Extended?5Precision?5?$CI64?9bi@ 100bb388     win32common.obj
 0003:000013ac       ??_C@_0BL@IKJLOCNC@Double?5Precision?5?$CI53?9bits?$CJ?$AA@ 100bb3ac     win32common.obj
 0003:000013c8       ??_C@_08NKCLJDKG@Reserved?$AA@ 100bb3c8     win32common.obj
 0003:000013d4       ??_C@_0BL@POJCEPJC@Single?5Precision?5?$CI24?9bits?$CJ?$AA@ 100bb3d4     win32common.obj
 0003:000013f0       ??_C@_0BB@IABHILBI@Infinity?5control?$AA@ 100bb3f0     win32common.obj
 0003:00001404       ??_C@_0BL@MPFLDDOK@Inexact?5result?5?$CIprecision?$CJ?$AA@ 100bb404     win32common.obj
 0003:00001420       ??_C@_0BC@LKKIAODK@Numeric?5underflow?$AA@ 100bb420     win32common.obj
 0003:00001434       ??_C@_0BB@OCMNPHKL@Numeric?5overflow?$AA@ 100bb434     win32common.obj
 0003:00001448       ??_C@_0P@BLDBDIAK@Divide?9by?9zero?$AA@ 100bb448     win32common.obj
 0003:00001458       ??_C@_0BF@KNOJJAKO@Denormalized?5operand?$AA@ 100bb458     win32common.obj
 0003:00001470       ??_C@_0BC@BPINLOPL@Invalid?5operation?$AA@ 100bb470     win32common.obj
 0003:00001484       ??_C@_0CF@FJBMKAJA@LoadLibrary?5?8?$CFs?8?5wants?5to?5load?5?8@ 100bb484     win32common.obj
 0003:000014b0       ??_C@_0FB@MLOPPJFG@k?3?2cbb?2media?2mediacontrol_tp?240?9@ 100bb4b0     win32common.obj
 0003:00001504       ??_C@_0N@OHAKMNLP@Sys_DLL_Load?$AA@ 100bb504     win32common.obj
 0003:00001514       ??_C@_0CG@NDOCJAAH@Input?5param?5is?5invalid?4?5DllName?$DN@ 100bb514     win32common.obj
 0003:0000153c       ??_C@_0BH@OENOHCOI@Sys_DLL_GetProcAddress?$AA@ 100bb53c     win32common.obj
 0003:00001554       ??_C@_0CG@JNIFHBBH@GetProcAddress?$CI?$CJ?5failed?$CB?3FuncNam@ 100bb554     win32common.obj
 0003:0000157c       ??_C@_0P@NIIHKNMM@Sys_DLL_Unload?$AA@ 100bb57c     win32common.obj
 0003:0000158c       ??_C@_0CE@LFHLNKDM@FreeLibrary?$CI?$CC?$CFS?$CC?$CJ?5failed?4?5ErrID?$DN@ 100bb58c     win32common.obj
 0003:000015b0       __real@412e848000000000    100bb5b0     win32common.obj
 0003:000015b8       ??_C@_04CFGHHCHG@?$HOmhz?$AA@ 100bb5b8     win32common.obj
 0003:000015c0       ??_C@_04IFFFNNEI@?$HOMhz?$AA@ 100bb5c0     win32common.obj
 0003:000015c8       ??_C@_04LNBIJLKI@?$HOMHz?$AA@ 100bb5c8     win32common.obj
 0003:000015d0       ??_C@_0CP@JONMPIIP@HARDWARE?2DESCRIPTION?2System?2Cent@ 100bb5d0     win32common.obj
 0003:00001600       __real@0000000000000000    100bb600     win32common.obj
 0003:00001608       ??_C@_0BA@OHCKHMIN@Sys_IsXpOrLower?$AA@ 100bb608     win32common.obj
 0003:00001618       ??_C@_0BI@PODMJCJP@GetVersionEx?$CI?$CJ?5failed?4?6?$AA@ 100bb618     win32common.obj
 0003:00001630       ??_C@_13FPGAJAPJ@?$AA?2?$AA?$AA@ 100bb630     win32common.obj
 0003:00001638       ??_C@_0EM@PCMPGNPK@Memory?5allocation?5failed?5with?5op@ 100bb638     win32common.obj
 0003:00001684       ??_C@_0M@LFNIGKEB@Sys_IsWin10?$AA@ 100bb684     win32common.obj
 0003:00001690       ??_C@_0CF@PJCOAPKO@LoadLibrary?5?8?$CFs?8?5wants?5to?5load?5?8@ 100bb690     win32common.obj
 0003:000016b8       ??_C@_0N@MDJJJHMB@kernel32?4dll?$AA@ 100bb6b8     win32common.obj
 0003:000016c8       ??_C@_1BK@MGMFAEKH@?$AAk?$AAe?$AAr?$AAn?$AAe?$AAl?$AA3?$AA2?$AA?4?$AAd?$AAl?$AAl?$AA?$AA@ 100bb6c8     win32common.obj
 0003:000016e4       ??_C@_0N@FFJGBINN@AuthenticAMD?$AA@ 100bb6e4     win32common.obj
 0003:000016f4       ??_C@_0M@IEADAMJK@PrintComErr?$AA@ 100bb6f4     win32common.obj
 0003:00001700       ??_C@_0N@IIFGDKON@?5hr?5?$CFd?5?3?5?$CFs?6?$AA@ 100bb700     win32common.obj
 0003:00001710       ??_C@_0DF@BEBNJBBG@Input?5buffer?5is?5too?5small?4?5dwBuf@ 100bb710     win32common.obj
 0003:00001748       ??_C@_01KICIPPFI@?2?$AA@   100bb748     win32common.obj
 0003:0000174c       ??_C@_0DM@IJOGJKMJ@strrchr?$CIachWorkDirectory?0?5?8?2?8?$CJ?5f@ 100bb74c     win32common.obj
 0003:00001788       ??_C@_0BO@ELDKBHFK@GetModuleFileNameA?$CI?$CJ?5failed?4?6?$AA@ 100bb788     win32common.obj
 0003:000017a8       ??_C@_0N@BFLJLCGI@mediasdkvc10?$AA@ 100bb7a8     win32common.obj
 0003:000017b8       ??_C@_0O@LHNFIKHA@GetModulePath?$AA@ 100bb7b8     win32common.obj
 0003:000017c8       ??_C@_0DB@KLIMLGDD@Input?5param?5is?5invalid?4?5pPath?$DN0x@ 100bb7c8     win32common.obj
 0003:00001800       ??_C@_0FB@GMIFCGDM@k?3?2cbb?2media?2mediacontrol_tp?240?9@ 100bb800     win32common.obj
 0003:00001854       ??_C@_0M@OJICFIDB@PrintSysErr?$AA@ 100bb854     win32common.obj
 0003:00001860       ??_C@_0P@KKMDGKHG@?$FLErrID?3?$CFd?$FN?5?$CFs?6?$AA@ 100bb860     win32common.obj
 0003:00001870       __real@4059000000000000    100bb870     win32common.obj
 0003:00001878       ??_C@_0DI@LOLDMKLL@GetProcessTimes?$CI?$CJ?5failed?4?5dwProc@ 100bb878     win32common.obj
